
dist\default\production\\smartPrinterApp.x.production.elf:     file format elf32-littlearm


Disassembly of section .vectors:

08000000 <__gVectors>:
 8000000:	8000      	strh	r0, [r0, #0]
 8000002:	2001      	movs	r0, #1
 8000004:	0455      	lsls	r5, r2, #17
 8000006:	0800      	lsrs	r0, r0, #32
 8000008:	0191      	lsls	r1, r2, #6
 800000a:	0800      	lsrs	r0, r0, #32
 800000c:	0195      	lsls	r5, r2, #6
 800000e:	0800      	lsrs	r0, r0, #32
 8000010:	0199      	lsls	r1, r3, #6
 8000012:	0800      	lsrs	r0, r0, #32
 8000014:	019d      	lsls	r5, r3, #6
 8000016:	0800      	lsrs	r0, r0, #32
 8000018:	01a1      	lsls	r1, r4, #6
 800001a:	0800      	lsrs	r0, r0, #32
	...
 800002c:	01a5      	lsls	r5, r4, #6
 800002e:	0800      	lsrs	r0, r0, #32
 8000030:	01a9      	lsls	r1, r5, #6
 8000032:	0800      	lsrs	r0, r0, #32
 8000034:	0000      	movs	r0, r0
 8000036:	0000      	movs	r0, r0
 8000038:	01ad      	lsls	r5, r5, #6
 800003a:	0800      	lsrs	r0, r0, #32
 800003c:	1641      	asrs	r1, r0, #25
 800003e:	0800      	lsrs	r0, r0, #32
 8000040:	049d      	lsls	r5, r3, #18
 8000042:	0800      	lsrs	r0, r0, #32
 8000044:	049d      	lsls	r5, r3, #18
 8000046:	0800      	lsrs	r0, r0, #32
 8000048:	049d      	lsls	r5, r3, #18
 800004a:	0800      	lsrs	r0, r0, #32
 800004c:	049d      	lsls	r5, r3, #18
 800004e:	0800      	lsrs	r0, r0, #32
 8000050:	049d      	lsls	r5, r3, #18
 8000052:	0800      	lsrs	r0, r0, #32
 8000054:	049d      	lsls	r5, r3, #18
 8000056:	0800      	lsrs	r0, r0, #32
 8000058:	049d      	lsls	r5, r3, #18
 800005a:	0800      	lsrs	r0, r0, #32
 800005c:	049d      	lsls	r5, r3, #18
 800005e:	0800      	lsrs	r0, r0, #32
 8000060:	049d      	lsls	r5, r3, #18
 8000062:	0800      	lsrs	r0, r0, #32
 8000064:	049d      	lsls	r5, r3, #18
 8000066:	0800      	lsrs	r0, r0, #32
 8000068:	049d      	lsls	r5, r3, #18
 800006a:	0800      	lsrs	r0, r0, #32
 800006c:	049d      	lsls	r5, r3, #18
 800006e:	0800      	lsrs	r0, r0, #32
 8000070:	049d      	lsls	r5, r3, #18
 8000072:	0800      	lsrs	r0, r0, #32
 8000074:	049d      	lsls	r5, r3, #18
 8000076:	0800      	lsrs	r0, r0, #32
 8000078:	049d      	lsls	r5, r3, #18
 800007a:	0800      	lsrs	r0, r0, #32
 800007c:	049d      	lsls	r5, r3, #18
 800007e:	0800      	lsrs	r0, r0, #32
 8000080:	049d      	lsls	r5, r3, #18
 8000082:	0800      	lsrs	r0, r0, #32
 8000084:	049d      	lsls	r5, r3, #18
 8000086:	0800      	lsrs	r0, r0, #32
 8000088:	049d      	lsls	r5, r3, #18
 800008a:	0800      	lsrs	r0, r0, #32
 800008c:	049d      	lsls	r5, r3, #18
 800008e:	0800      	lsrs	r0, r0, #32
 8000090:	049d      	lsls	r5, r3, #18
 8000092:	0800      	lsrs	r0, r0, #32
 8000094:	049d      	lsls	r5, r3, #18
 8000096:	0800      	lsrs	r0, r0, #32
 8000098:	049d      	lsls	r5, r3, #18
 800009a:	0800      	lsrs	r0, r0, #32
 800009c:	0309      	lsls	r1, r1, #12
 800009e:	0800      	lsrs	r0, r0, #32
 80000a0:	049d      	lsls	r5, r3, #18
 80000a2:	0800      	lsrs	r0, r0, #32
 80000a4:	049d      	lsls	r5, r3, #18
 80000a6:	0800      	lsrs	r0, r0, #32
 80000a8:	049d      	lsls	r5, r3, #18
 80000aa:	0800      	lsrs	r0, r0, #32
 80000ac:	049d      	lsls	r5, r3, #18
 80000ae:	0800      	lsrs	r0, r0, #32
 80000b0:	0281      	lsls	r1, r0, #10
 80000b2:	0800      	lsrs	r0, r0, #32
 80000b4:	0251      	lsls	r1, r2, #9
 80000b6:	0800      	lsrs	r0, r0, #32
 80000b8:	049d      	lsls	r5, r3, #18
 80000ba:	0800      	lsrs	r0, r0, #32
 80000bc:	049d      	lsls	r5, r3, #18
 80000be:	0800      	lsrs	r0, r0, #32
 80000c0:	049d      	lsls	r5, r3, #18
 80000c2:	0800      	lsrs	r0, r0, #32
 80000c4:	049d      	lsls	r5, r3, #18
 80000c6:	0800      	lsrs	r0, r0, #32
 80000c8:	049d      	lsls	r5, r3, #18
 80000ca:	0800      	lsrs	r0, r0, #32
 80000cc:	02b1      	lsls	r1, r6, #10
 80000ce:	0800      	lsrs	r0, r0, #32
 80000d0:	049d      	lsls	r5, r3, #18
 80000d2:	0800      	lsrs	r0, r0, #32
 80000d4:	0301      	lsls	r1, r0, #12
 80000d6:	0800      	lsrs	r0, r0, #32
 80000d8:	049d      	lsls	r5, r3, #18
 80000da:	0800      	lsrs	r0, r0, #32
 80000dc:	049d      	lsls	r5, r3, #18
 80000de:	0800      	lsrs	r0, r0, #32
 80000e0:	049d      	lsls	r5, r3, #18
 80000e2:	0800      	lsrs	r0, r0, #32
 80000e4:	049d      	lsls	r5, r3, #18
 80000e6:	0800      	lsrs	r0, r0, #32
 80000e8:	01c1      	lsls	r1, r0, #7
 80000ea:	0800      	lsrs	r0, r0, #32
 80000ec:	049d      	lsls	r5, r3, #18
 80000ee:	0800      	lsrs	r0, r0, #32
 80000f0:	049d      	lsls	r5, r3, #18
 80000f2:	0800      	lsrs	r0, r0, #32
 80000f4:	049d      	lsls	r5, r3, #18
 80000f6:	0800      	lsrs	r0, r0, #32
 80000f8:	049d      	lsls	r5, r3, #18
 80000fa:	0800      	lsrs	r0, r0, #32
 80000fc:	0000      	movs	r0, r0
 80000fe:	0000      	movs	r0, r0
 8000100:	049d      	lsls	r5, r3, #18
 8000102:	0800      	lsrs	r0, r0, #32
 8000104:	0000      	movs	r0, r0
 8000106:	0000      	movs	r0, r0
 8000108:	049d      	lsls	r5, r3, #18
 800010a:	0800      	lsrs	r0, r0, #32
 800010c:	02b5      	lsls	r5, r6, #10
 800010e:	0800      	lsrs	r0, r0, #32
 8000110:	049d      	lsls	r5, r3, #18
 8000112:	0800      	lsrs	r0, r0, #32
 8000114:	049d      	lsls	r5, r3, #18
 8000116:	0800      	lsrs	r0, r0, #32
 8000118:	049d      	lsls	r5, r3, #18
 800011a:	0800      	lsrs	r0, r0, #32
 800011c:	049d      	lsls	r5, r3, #18
 800011e:	0800      	lsrs	r0, r0, #32
 8000120:	049d      	lsls	r5, r3, #18
 8000122:	0800      	lsrs	r0, r0, #32
 8000124:	049d      	lsls	r5, r3, #18
 8000126:	0800      	lsrs	r0, r0, #32
 8000128:	049d      	lsls	r5, r3, #18
 800012a:	0800      	lsrs	r0, r0, #32
 800012c:	049d      	lsls	r5, r3, #18
 800012e:	0800      	lsrs	r0, r0, #32
 8000130:	049d      	lsls	r5, r3, #18
 8000132:	0800      	lsrs	r0, r0, #32
 8000134:	049d      	lsls	r5, r3, #18
 8000136:	0800      	lsrs	r0, r0, #32
 8000138:	049d      	lsls	r5, r3, #18
 800013a:	0800      	lsrs	r0, r0, #32
 800013c:	049d      	lsls	r5, r3, #18
 800013e:	0800      	lsrs	r0, r0, #32
 8000140:	049d      	lsls	r5, r3, #18
 8000142:	0800      	lsrs	r0, r0, #32
 8000144:	049d      	lsls	r5, r3, #18
 8000146:	0800      	lsrs	r0, r0, #32
 8000148:	049d      	lsls	r5, r3, #18
 800014a:	0800      	lsrs	r0, r0, #32
 800014c:	01b1      	lsls	r1, r6, #6
 800014e:	0800      	lsrs	r0, r0, #32

Disassembly of section .text:

08000150 <__do_global_dtors_aux>:
 8000150:	b510      	push	{r4, lr}
 8000152:	4c05      	ldr	r4, [pc, #20]	; (8000168 <__do_global_dtors_aux+0x18>)
 8000154:	7823      	ldrb	r3, [r4, #0]
 8000156:	b933      	cbnz	r3, 8000166 <__do_global_dtors_aux+0x16>
 8000158:	4b04      	ldr	r3, [pc, #16]	; (800016c <__do_global_dtors_aux+0x1c>)
 800015a:	b113      	cbz	r3, 8000162 <__do_global_dtors_aux+0x12>
 800015c:	4804      	ldr	r0, [pc, #16]	; (8000170 <__do_global_dtors_aux+0x20>)
 800015e:	f3af 8000 	nop.w
 8000162:	2301      	movs	r3, #1
 8000164:	7023      	strb	r3, [r4, #0]
 8000166:	bd10      	pop	{r4, pc}
 8000168:	0978      	lsrs	r0, r7, #5
 800016a:	2000      	movs	r0, #0
 800016c:	0000      	movs	r0, r0
 800016e:	0000      	movs	r0, r0
 8000170:	74dc      	strb	r4, [r3, #19]
 8000172:	0800      	lsrs	r0, r0, #32

08000174 <frame_dummy>:
 8000174:	b508      	push	{r3, lr}
 8000176:	4b03      	ldr	r3, [pc, #12]	; (8000184 <frame_dummy+0x10>)
 8000178:	b11b      	cbz	r3, 8000182 <frame_dummy+0xe>
 800017a:	4903      	ldr	r1, [pc, #12]	; (8000188 <frame_dummy+0x14>)
 800017c:	4803      	ldr	r0, [pc, #12]	; (800018c <frame_dummy+0x18>)
 800017e:	f3af 8000 	nop.w
 8000182:	bd08      	pop	{r3, pc}
 8000184:	0000      	movs	r0, r0
 8000186:	0000      	movs	r0, r0
 8000188:	097c      	lsrs	r4, r7, #5
 800018a:	2000      	movs	r0, #0
 800018c:	74dc      	strb	r4, [r3, #19]
 800018e:	0800      	lsrs	r0, r0, #32

08000190 <NMI_Handler>:
 8000190:	4770      	bx	lr
 8000192:	bf00      	nop

08000194 <HardFault_Handler>:
 8000194:	e7fe      	b.n	8000194 <HardFault_Handler>
 8000196:	bf00      	nop

08000198 <MemManage_Handler>:
 8000198:	e7fe      	b.n	8000198 <MemManage_Handler>
 800019a:	bf00      	nop

0800019c <BusFault_Handler>:
 800019c:	4770      	bx	lr
 800019e:	bf00      	nop

080001a0 <UsageFault_Handler>:
 80001a0:	4770      	bx	lr
 80001a2:	bf00      	nop

080001a4 <SVC_Handler>:
 80001a4:	4770      	bx	lr
 80001a6:	bf00      	nop

080001a8 <DebugMon_Handler>:
 80001a8:	4770      	bx	lr
 80001aa:	bf00      	nop

080001ac <PendSV_Handler>:
 80001ac:	4770      	bx	lr
 80001ae:	bf00      	nop

080001b0 <USBFS_IRQHandler>:
 80001b0:	4801      	ldr	r0, [pc, #4]	; (80001b8 <USBFS_IRQHandler+0x8>)
 80001b2:	4b02      	ldr	r3, [pc, #8]	; (80001bc <USBFS_IRQHandler+0xc>)
 80001b4:	4718      	bx	r3
 80001b6:	bf00      	nop
 80001b8:	0994      	lsrs	r4, r2, #6
 80001ba:	2000      	movs	r0, #0
 80001bc:	2321      	movs	r3, #33	; 0x21
 80001be:	0800      	lsrs	r0, r0, #32

080001c0 <USBFS_WKUP_IRQHandler>:
 80001c0:	4b19      	ldr	r3, [pc, #100]	; (8000228 <USBFS_WKUP_IRQHandler+0x68>)
 80001c2:	79db      	ldrb	r3, [r3, #7]
 80001c4:	b91b      	cbnz	r3, 80001ce <USBFS_WKUP_IRQHandler+0xe>
 80001c6:	4b19      	ldr	r3, [pc, #100]	; (800022c <USBFS_WKUP_IRQHandler+0x6c>)
 80001c8:	f44f 2080 	mov.w	r0, #262144	; 0x40000
 80001cc:	4718      	bx	r3
 80001ce:	b570      	push	{r4, r5, r6, lr}
 80001d0:	2010      	movs	r0, #16
 80001d2:	4d17      	ldr	r5, [pc, #92]	; (8000230 <USBFS_WKUP_IRQHandler+0x70>)
 80001d4:	4c17      	ldr	r4, [pc, #92]	; (8000234 <USBFS_WKUP_IRQHandler+0x74>)
 80001d6:	47a8      	blx	r5
 80001d8:	2011      	movs	r0, #17
 80001da:	47a0      	blx	r4
 80001dc:	2800      	cmp	r0, #0
 80001de:	d0fb      	beq.n	80001d8 <USBFS_WKUP_IRQHandler+0x18>
 80001e0:	201a      	movs	r0, #26
 80001e2:	47a8      	blx	r5
 80001e4:	201b      	movs	r0, #27
 80001e6:	47a0      	blx	r4
 80001e8:	2800      	cmp	r0, #0
 80001ea:	d0fb      	beq.n	80001e4 <USBFS_WKUP_IRQHandler+0x24>
 80001ec:	2018      	movs	r0, #24
 80001ee:	47a8      	blx	r5
 80001f0:	2019      	movs	r0, #25
 80001f2:	47a0      	blx	r4
 80001f4:	2800      	cmp	r0, #0
 80001f6:	d0fb      	beq.n	80001f0 <USBFS_WKUP_IRQHandler+0x30>
 80001f8:	4b0f      	ldr	r3, [pc, #60]	; (8000238 <USBFS_WKUP_IRQHandler+0x78>)
 80001fa:	4c10      	ldr	r4, [pc, #64]	; (800023c <USBFS_WKUP_IRQHandler+0x7c>)
 80001fc:	2002      	movs	r0, #2
 80001fe:	4798      	blx	r3
 8000200:	47a0      	blx	r4
 8000202:	2808      	cmp	r0, #8
 8000204:	d1fc      	bne.n	8000200 <USBFS_WKUP_IRQHandler+0x40>
 8000206:	4a0e      	ldr	r2, [pc, #56]	; (8000240 <USBFS_WKUP_IRQHandler+0x80>)
 8000208:	4b0e      	ldr	r3, [pc, #56]	; (8000244 <USBFS_WKUP_IRQHandler+0x84>)
 800020a:	6810      	ldr	r0, [r2, #0]
 800020c:	4798      	blx	r3
 800020e:	4b0e      	ldr	r3, [pc, #56]	; (8000248 <USBFS_WKUP_IRQHandler+0x88>)
 8000210:	f240 500c 	movw	r0, #1292	; 0x50c
 8000214:	4798      	blx	r3
 8000216:	4804      	ldr	r0, [pc, #16]	; (8000228 <USBFS_WKUP_IRQHandler+0x68>)
 8000218:	4b0c      	ldr	r3, [pc, #48]	; (800024c <USBFS_WKUP_IRQHandler+0x8c>)
 800021a:	4798      	blx	r3
 800021c:	e8bd 4070 	ldmia.w	sp!, {r4, r5, r6, lr}
 8000220:	4b02      	ldr	r3, [pc, #8]	; (800022c <USBFS_WKUP_IRQHandler+0x6c>)
 8000222:	f44f 2080 	mov.w	r0, #262144	; 0x40000
 8000226:	4718      	bx	r3
 8000228:	0994      	lsrs	r4, r2, #6
 800022a:	2000      	movs	r0, #0
 800022c:	06d5      	lsls	r5, r2, #27
 800022e:	0800      	lsrs	r0, r0, #32
 8000230:	0ec1      	lsrs	r1, r0, #27
 8000232:	0800      	lsrs	r0, r0, #32
 8000234:	1029      	asrs	r1, r5, #32
 8000236:	0800      	lsrs	r0, r0, #32
 8000238:	0e75      	lsrs	r5, r6, #25
 800023a:	0800      	lsrs	r0, r0, #32
 800023c:	0e89      	lsrs	r1, r1, #26
 800023e:	0800      	lsrs	r0, r0, #32
 8000240:	0d6c      	lsrs	r4, r5, #21
 8000242:	2000      	movs	r0, #0
 8000244:	0e99      	lsrs	r1, r3, #26
 8000246:	0800      	lsrs	r0, r0, #32
 8000248:	0e1d      	lsrs	r5, r3, #24
 800024a:	0800      	lsrs	r0, r0, #32
 800024c:	29cd      	cmp	r1, #205	; 0xcd
 800024e:	0800      	lsrs	r0, r0, #32

08000250 <TIMER2_IRQHandler>:
 8000250:	b510      	push	{r4, lr}
 8000252:	4807      	ldr	r0, [pc, #28]	; (8000270 <TIMER2_IRQHandler+0x20>)
 8000254:	4b07      	ldr	r3, [pc, #28]	; (8000274 <TIMER2_IRQHandler+0x24>)
 8000256:	2101      	movs	r1, #1
 8000258:	4798      	blx	r3
 800025a:	b900      	cbnz	r0, 800025e <TIMER2_IRQHandler+0xe>
 800025c:	bd10      	pop	{r4, pc}
 800025e:	4b06      	ldr	r3, [pc, #24]	; (8000278 <TIMER2_IRQHandler+0x28>)
 8000260:	4798      	blx	r3
 8000262:	e8bd 4010 	ldmia.w	sp!, {r4, lr}
 8000266:	4802      	ldr	r0, [pc, #8]	; (8000270 <TIMER2_IRQHandler+0x20>)
 8000268:	4b04      	ldr	r3, [pc, #16]	; (800027c <TIMER2_IRQHandler+0x2c>)
 800026a:	2101      	movs	r1, #1
 800026c:	4718      	bx	r3
 800026e:	bf00      	nop
 8000270:	0400      	lsls	r0, r0, #16
 8000272:	4000      	ands	r0, r0
 8000274:	13e9      	asrs	r1, r5, #15
 8000276:	0800      	lsrs	r0, r0, #32
 8000278:	3c95      	subs	r4, #149	; 0x95
 800027a:	0800      	lsrs	r0, r0, #32
 800027c:	13fd      	asrs	r5, r7, #15
 800027e:	0800      	lsrs	r0, r0, #32

08000280 <TIMER1_IRQHandler>:
 8000280:	b510      	push	{r4, lr}
 8000282:	4b08      	ldr	r3, [pc, #32]	; (80002a4 <TIMER1_IRQHandler+0x24>)
 8000284:	2101      	movs	r1, #1
 8000286:	f04f 4080 	mov.w	r0, #1073741824	; 0x40000000
 800028a:	4798      	blx	r3
 800028c:	b900      	cbnz	r0, 8000290 <TIMER1_IRQHandler+0x10>
 800028e:	bd10      	pop	{r4, pc}
 8000290:	4b05      	ldr	r3, [pc, #20]	; (80002a8 <TIMER1_IRQHandler+0x28>)
 8000292:	4798      	blx	r3
 8000294:	e8bd 4010 	ldmia.w	sp!, {r4, lr}
 8000298:	4b04      	ldr	r3, [pc, #16]	; (80002ac <TIMER1_IRQHandler+0x2c>)
 800029a:	2101      	movs	r1, #1
 800029c:	f04f 4080 	mov.w	r0, #1073741824	; 0x40000000
 80002a0:	4718      	bx	r3
 80002a2:	bf00      	nop
 80002a4:	13e9      	asrs	r1, r5, #15
 80002a6:	0800      	lsrs	r0, r0, #32
 80002a8:	3c69      	subs	r4, #105	; 0x69
 80002aa:	0800      	lsrs	r0, r0, #32
 80002ac:	13fd      	asrs	r5, r7, #15
 80002ae:	0800      	lsrs	r0, r0, #32

080002b0 <SPI0_IRQHandler>:
 80002b0:	4770      	bx	lr
 80002b2:	bf00      	nop

080002b4 <SPI2_IRQHandler>:
 80002b4:	b510      	push	{r4, lr}
 80002b6:	480d      	ldr	r0, [pc, #52]	; (80002ec <SPI2_IRQHandler+0x38>)
 80002b8:	4b0d      	ldr	r3, [pc, #52]	; (80002f0 <SPI2_IRQHandler+0x3c>)
 80002ba:	2101      	movs	r1, #1
 80002bc:	4798      	blx	r3
 80002be:	b980      	cbnz	r0, 80002e2 <SPI2_IRQHandler+0x2e>
 80002c0:	4c0c      	ldr	r4, [pc, #48]	; (80002f4 <SPI2_IRQHandler+0x40>)
 80002c2:	4601      	mov	r1, r0
 80002c4:	4809      	ldr	r0, [pc, #36]	; (80002ec <SPI2_IRQHandler+0x38>)
 80002c6:	47a0      	blx	r4
 80002c8:	4808      	ldr	r0, [pc, #32]	; (80002ec <SPI2_IRQHandler+0x38>)
 80002ca:	2101      	movs	r1, #1
 80002cc:	47a0      	blx	r4
 80002ce:	4b0a      	ldr	r3, [pc, #40]	; (80002f8 <SPI2_IRQHandler+0x44>)
 80002d0:	f44f 2200 	mov.w	r2, #524288	; 0x80000
 80002d4:	f8c3 2084 	str.w	r2, [r3, #132]	; 0x84
 80002d8:	f3bf 8f4f 	dsb	sy
 80002dc:	f3bf 8f6f 	isb	sy
 80002e0:	bd10      	pop	{r4, pc}
 80002e2:	e8bd 4010 	ldmia.w	sp!, {r4, lr}
 80002e6:	4b05      	ldr	r3, [pc, #20]	; (80002fc <SPI2_IRQHandler+0x48>)
 80002e8:	4718      	bx	r3
 80002ea:	bf00      	nop
 80002ec:	3c00      	subs	r4, #0
 80002ee:	4000      	ands	r0, r0
 80002f0:	1159      	asrs	r1, r3, #5
 80002f2:	0800      	lsrs	r0, r0, #32
 80002f4:	112d      	asrs	r5, r5, #4
 80002f6:	0800      	lsrs	r0, r0, #32
 80002f8:	e100      	b.n	80004fc <SystemInit+0x5c>
 80002fa:	e000      	b.n	80002fe <SPI2_IRQHandler+0x4a>
 80002fc:	5b45      	ldrh	r5, [r0, r5]
 80002fe:	0800      	lsrs	r0, r0, #32

08000300 <USART0_IRQHandler>:
 8000300:	4b00      	ldr	r3, [pc, #0]	; (8000304 <USART0_IRQHandler+0x4>)
 8000302:	4718      	bx	r3
 8000304:	55c9      	strb	r1, [r1, r7]
 8000306:	0800      	lsrs	r0, r0, #32

08000308 <EXTI5_9_IRQHandler>:
 8000308:	b510      	push	{r4, lr}
 800030a:	4b05      	ldr	r3, [pc, #20]	; (8000320 <EXTI5_9_IRQHandler+0x18>)
 800030c:	f44f 7000 	mov.w	r0, #512	; 0x200
 8000310:	4798      	blx	r3
 8000312:	b900      	cbnz	r0, 8000316 <EXTI5_9_IRQHandler+0xe>
 8000314:	bd10      	pop	{r4, pc}
 8000316:	e8bd 4010 	ldmia.w	sp!, {r4, lr}
 800031a:	4b02      	ldr	r3, [pc, #8]	; (8000324 <EXTI5_9_IRQHandler+0x1c>)
 800031c:	4718      	bx	r3
 800031e:	bf00      	nop
 8000320:	06c1      	lsls	r1, r0, #27
 8000322:	0800      	lsrs	r0, r0, #32
 8000324:	6859      	ldr	r1, [r3, #4]
 8000326:	0800      	lsrs	r0, r0, #32

08000328 <usbd_Write_into_escpos_buffer>:
 8000328:	4b00      	ldr	r3, [pc, #0]	; (800032c <usbd_Write_into_escpos_buffer+0x4>)
 800032a:	4718      	bx	r3
 800032c:	2c9d      	cmp	r4, #157	; 0x9d
 800032e:	0800      	lsrs	r0, r0, #32

08000330 <main>:
 8000330:	b508      	push	{r3, lr}
 8000332:	4b27      	ldr	r3, [pc, #156]	; (80003d0 <main+0xa0>)
 8000334:	4c27      	ldr	r4, [pc, #156]	; (80003d4 <main+0xa4>)
 8000336:	4798      	blx	r3
 8000338:	4b27      	ldr	r3, [pc, #156]	; (80003d8 <main+0xa8>)
 800033a:	4798      	blx	r3
 800033c:	4b27      	ldr	r3, [pc, #156]	; (80003dc <main+0xac>)
 800033e:	2002      	movs	r0, #2
 8000340:	4798      	blx	r3
 8000342:	4827      	ldr	r0, [pc, #156]	; (80003e0 <main+0xb0>)
 8000344:	47a0      	blx	r4
 8000346:	4827      	ldr	r0, [pc, #156]	; (80003e4 <main+0xb4>)
 8000348:	47a0      	blx	r4
 800034a:	4827      	ldr	r0, [pc, #156]	; (80003e8 <main+0xb8>)
 800034c:	47a0      	blx	r4
 800034e:	4827      	ldr	r0, [pc, #156]	; (80003ec <main+0xbc>)
 8000350:	47a0      	blx	r4
 8000352:	4b27      	ldr	r3, [pc, #156]	; (80003f0 <main+0xc0>)
 8000354:	4c27      	ldr	r4, [pc, #156]	; (80003f4 <main+0xc4>)
 8000356:	4798      	blx	r3
 8000358:	4827      	ldr	r0, [pc, #156]	; (80003f8 <main+0xc8>)
 800035a:	47a0      	blx	r4
 800035c:	4827      	ldr	r0, [pc, #156]	; (80003fc <main+0xcc>)
 800035e:	47a0      	blx	r4
 8000360:	4827      	ldr	r0, [pc, #156]	; (8000400 <main+0xd0>)
 8000362:	4b28      	ldr	r3, [pc, #160]	; (8000404 <main+0xd4>)
 8000364:	4c28      	ldr	r4, [pc, #160]	; (8000408 <main+0xd8>)
 8000366:	4798      	blx	r3
 8000368:	4828      	ldr	r0, [pc, #160]	; (800040c <main+0xdc>)
 800036a:	4b29      	ldr	r3, [pc, #164]	; (8000410 <main+0xe0>)
 800036c:	4798      	blx	r3
 800036e:	4b29      	ldr	r3, [pc, #164]	; (8000414 <main+0xe4>)
 8000370:	4798      	blx	r3
 8000372:	4b29      	ldr	r3, [pc, #164]	; (8000418 <main+0xe8>)
 8000374:	f44f 6080 	mov.w	r0, #1024	; 0x400
 8000378:	4798      	blx	r3
 800037a:	f240 6002 	movw	r0, #1538	; 0x602
 800037e:	47a0      	blx	r4
 8000380:	f240 6003 	movw	r0, #1539	; 0x603
 8000384:	47a0      	blx	r4
 8000386:	f240 6004 	movw	r0, #1540	; 0x604
 800038a:	47a0      	blx	r4
 800038c:	f240 6005 	movw	r0, #1541	; 0x605
 8000390:	47a0      	blx	r4
 8000392:	f240 600e 	movw	r0, #1550	; 0x60e
 8000396:	47a0      	blx	r4
 8000398:	f44f 60c0 	mov.w	r0, #1536	; 0x600
 800039c:	47a0      	blx	r4
 800039e:	4b1f      	ldr	r3, [pc, #124]	; (800041c <main+0xec>)
 80003a0:	4c1f      	ldr	r4, [pc, #124]	; (8000420 <main+0xf0>)
 80003a2:	4798      	blx	r3
 80003a4:	4b1f      	ldr	r3, [pc, #124]	; (8000424 <main+0xf4>)
 80003a6:	4798      	blx	r3
 80003a8:	4a1f      	ldr	r2, [pc, #124]	; (8000428 <main+0xf8>)
 80003aa:	4820      	ldr	r0, [pc, #128]	; (800042c <main+0xfc>)
 80003ac:	4b20      	ldr	r3, [pc, #128]	; (8000430 <main+0x100>)
 80003ae:	2101      	movs	r1, #1
 80003b0:	47a0      	blx	r4
 80003b2:	4b20      	ldr	r3, [pc, #128]	; (8000434 <main+0x104>)
 80003b4:	4c20      	ldr	r4, [pc, #128]	; (8000438 <main+0x108>)
 80003b6:	4798      	blx	r3
 80003b8:	4820      	ldr	r0, [pc, #128]	; (800043c <main+0x10c>)
 80003ba:	4b21      	ldr	r3, [pc, #132]	; (8000440 <main+0x110>)
 80003bc:	4798      	blx	r3
 80003be:	4b21      	ldr	r3, [pc, #132]	; (8000444 <main+0x114>)
 80003c0:	2078      	movs	r0, #120	; 0x78
 80003c2:	4798      	blx	r3
 80003c4:	4b20      	ldr	r3, [pc, #128]	; (8000448 <main+0x118>)
 80003c6:	f240 2071 	movw	r0, #625	; 0x271
 80003ca:	4798      	blx	r3
 80003cc:	47a0      	blx	r4
 80003ce:	e7fd      	b.n	80003cc <main+0x9c>
 80003d0:	16e1      	asrs	r1, r4, #27
 80003d2:	0800      	lsrs	r0, r0, #32
 80003d4:	06e1      	lsls	r1, r4, #27
 80003d6:	0800      	lsrs	r0, r0, #32
 80003d8:	1739      	asrs	r1, r7, #28
 80003da:	0800      	lsrs	r0, r0, #32
 80003dc:	0ead      	lsrs	r5, r5, #26
 80003de:	0800      	lsrs	r0, r0, #32
 80003e0:	0800      	lsrs	r0, r0, #32
 80003e2:	4001      	ands	r1, r0
 80003e4:	0c00      	lsrs	r0, r0, #16
 80003e6:	4001      	ands	r1, r0
 80003e8:	1000      	asrs	r0, r0, #32
 80003ea:	4001      	ands	r1, r0
 80003ec:	1400      	asrs	r0, r0, #16
 80003ee:	4001      	ands	r1, r0
 80003f0:	05c1      	lsls	r1, r0, #23
 80003f2:	0800      	lsrs	r0, r0, #32
 80003f4:	11c1      	asrs	r1, r0, #7
 80003f6:	0800      	lsrs	r0, r0, #32
 80003f8:	0400      	lsls	r0, r0, #16
 80003fa:	4000      	ands	r0, r0
 80003fc:	0800      	lsrs	r0, r0, #32
 80003fe:	4000      	ands	r0, r0
 8000400:	3c00      	subs	r4, #0
 8000402:	4000      	ands	r0, r0
 8000404:	1045      	asrs	r5, r0, #1
 8000406:	0800      	lsrs	r0, r0, #32
 8000408:	0e1d      	lsrs	r5, r3, #24
 800040a:	0800      	lsrs	r0, r0, #32
 800040c:	3800      	subs	r0, #0
 800040e:	4001      	ands	r1, r0
 8000410:	1405      	asrs	r5, r0, #16
 8000412:	0800      	lsrs	r0, r0, #32
 8000414:	0d39      	lsrs	r1, r7, #20
 8000416:	0800      	lsrs	r0, r0, #32
 8000418:	0c6d      	lsrs	r5, r5, #17
 800041a:	0800      	lsrs	r0, r0, #32
 800041c:	2c05      	cmp	r4, #5
 800041e:	0800      	lsrs	r0, r0, #32
 8000420:	1a99      	subs	r1, r3, r2
 8000422:	0800      	lsrs	r0, r0, #32
 8000424:	15b9      	asrs	r1, r7, #22
 8000426:	0800      	lsrs	r0, r0, #32
 8000428:	009c      	lsls	r4, r3, #2
 800042a:	2000      	movs	r0, #0
 800042c:	0994      	lsrs	r4, r2, #6
 800042e:	2000      	movs	r0, #0
 8000430:	006c      	lsls	r4, r5, #1
 8000432:	2000      	movs	r0, #0
 8000434:	1631      	asrs	r1, r6, #24
 8000436:	0800      	lsrs	r0, r0, #32
 8000438:	2cc1      	cmp	r4, #193	; 0xc1
 800043a:	0800      	lsrs	r0, r0, #32
 800043c:	0329      	lsls	r1, r5, #12
 800043e:	0800      	lsrs	r0, r0, #32
 8000440:	1915      	adds	r5, r2, r4
 8000442:	0800      	lsrs	r0, r0, #32
 8000444:	4485      	add	sp, r0
 8000446:	0800      	lsrs	r0, r0, #32
 8000448:	4465      	add	r5, ip
 800044a:	0800      	lsrs	r0, r0, #32

0800044c <systemAppSyncFunc>:
 800044c:	4b00      	ldr	r3, [pc, #0]	; (8000450 <systemAppSyncFunc+0x4>)
 800044e:	4718      	bx	r3
 8000450:	649d      	str	r5, [r3, #72]	; 0x48
 8000452:	0800      	lsrs	r0, r0, #32

08000454 <Reset_Handler>:
 8000454:	2100      	movs	r1, #0
 8000456:	e003      	b.n	8000460 <DataInit>

08000458 <CopyData>:
 8000458:	4b0b      	ldr	r3, [pc, #44]	; (8000488 <Zerobss+0x14>)
 800045a:	585b      	ldr	r3, [r3, r1]
 800045c:	5043      	str	r3, [r0, r1]
 800045e:	3104      	adds	r1, #4

08000460 <DataInit>:
 8000460:	480a      	ldr	r0, [pc, #40]	; (800048c <Zerobss+0x18>)
 8000462:	4b0b      	ldr	r3, [pc, #44]	; (8000490 <Zerobss+0x1c>)
 8000464:	1842      	adds	r2, r0, r1
 8000466:	429a      	cmp	r2, r3
 8000468:	d3f6      	bcc.n	8000458 <CopyData>
 800046a:	4a0a      	ldr	r2, [pc, #40]	; (8000494 <Zerobss+0x20>)
 800046c:	e002      	b.n	8000474 <Zerobss>

0800046e <FillZerobss>:
 800046e:	2300      	movs	r3, #0
 8000470:	f842 3b04 	str.w	r3, [r2], #4

08000474 <Zerobss>:
 8000474:	4b08      	ldr	r3, [pc, #32]	; (8000498 <Zerobss+0x24>)
 8000476:	429a      	cmp	r2, r3
 8000478:	d3f9      	bcc.n	800046e <FillZerobss>
 800047a:	f000 f811 	bl	80004a0 <SystemInit>
 800047e:	f006 fb05 	bl	8006a8c <__libc_init_array>
 8000482:	f7ff ff55 	bl	8000330 <main>
 8000486:	4770      	bx	lr
 8000488:	8b14      	ldrh	r4, [r2, #24]
 800048a:	0800      	lsrs	r0, r0, #32
 800048c:	0000      	movs	r0, r0
 800048e:	2000      	movs	r0, #0
 8000490:	0974      	lsrs	r4, r6, #5
 8000492:	2000      	movs	r0, #0
 8000494:	0978      	lsrs	r0, r7, #5
 8000496:	2000      	movs	r0, #0
 8000498:	52c8      	strh	r0, [r1, r3]
 800049a:	2000      	movs	r0, #0

0800049c <ADC0_1_IRQHandler>:
 800049c:	e7fe      	b.n	800049c <ADC0_1_IRQHandler>
	...

080004a0 <SystemInit>:
 80004a0:	4b44      	ldr	r3, [pc, #272]	; (80005b4 <SystemInit+0x114>)
 80004a2:	6819      	ldr	r1, [r3, #0]
 80004a4:	f041 0101 	orr.w	r1, r1, #1
 80004a8:	6019      	str	r1, [r3, #0]
 80004aa:	b082      	sub	sp, #8
 80004ac:	6859      	ldr	r1, [r3, #4]
 80004ae:	6059      	str	r1, [r3, #4]
 80004b0:	2000      	movs	r0, #0
 80004b2:	9001      	str	r0, [sp, #4]
 80004b4:	9b01      	ldr	r3, [sp, #4]
 80004b6:	f644 621f 	movw	r2, #19999	; 0x4e1f
 80004ba:	4293      	cmp	r3, r2
 80004bc:	d805      	bhi.n	80004ca <SystemInit+0x2a>
 80004be:	9b01      	ldr	r3, [sp, #4]
 80004c0:	3301      	adds	r3, #1
 80004c2:	9301      	str	r3, [sp, #4]
 80004c4:	9b01      	ldr	r3, [sp, #4]
 80004c6:	4293      	cmp	r3, r2
 80004c8:	d9f9      	bls.n	80004be <SystemInit+0x1e>
 80004ca:	493a      	ldr	r1, [pc, #232]	; (80005b4 <SystemInit+0x114>)
 80004cc:	2300      	movs	r3, #0
 80004ce:	604b      	str	r3, [r1, #4]
 80004d0:	62cb      	str	r3, [r1, #44]	; 0x2c
 80004d2:	680b      	ldr	r3, [r1, #0]
 80004d4:	f023 53a8 	bic.w	r3, r3, #352321536	; 0x15000000
 80004d8:	f44f 027f 	mov.w	r2, #16711680	; 0xff0000
 80004dc:	f423 2310 	bic.w	r3, r3, #589824	; 0x90000
 80004e0:	600b      	str	r3, [r1, #0]
 80004e2:	608a      	str	r2, [r1, #8]
 80004e4:	680a      	ldr	r2, [r1, #0]
 80004e6:	f422 2280 	bic.w	r2, r2, #262144	; 0x40000
 80004ea:	600a      	str	r2, [r1, #0]
 80004ec:	680a      	ldr	r2, [r1, #0]
 80004ee:	f442 3280 	orr.w	r2, r2, #65536	; 0x10000
 80004f2:	f64f 73ff 	movw	r3, #65535	; 0xffff
 80004f6:	600a      	str	r2, [r1, #0]
 80004f8:	e001      	b.n	80004fe <SystemInit+0x5e>
 80004fa:	3b01      	subs	r3, #1
 80004fc:	d002      	beq.n	8000504 <SystemInit+0x64>
 80004fe:	680a      	ldr	r2, [r1, #0]
 8000500:	0390      	lsls	r0, r2, #14
 8000502:	d5fa      	bpl.n	80004fa <SystemInit+0x5a>
 8000504:	4b2b      	ldr	r3, [pc, #172]	; (80005b4 <SystemInit+0x114>)
 8000506:	681a      	ldr	r2, [r3, #0]
 8000508:	0391      	lsls	r1, r2, #14
 800050a:	d551      	bpl.n	80005b0 <SystemInit+0x110>
 800050c:	69da      	ldr	r2, [r3, #28]
 800050e:	492a      	ldr	r1, [pc, #168]	; (80005b8 <SystemInit+0x118>)
 8000510:	482a      	ldr	r0, [pc, #168]	; (80005bc <SystemInit+0x11c>)
 8000512:	f042 5280 	orr.w	r2, r2, #268435456	; 0x10000000
 8000516:	61da      	str	r2, [r3, #28]
 8000518:	680a      	ldr	r2, [r1, #0]
 800051a:	f442 4240 	orr.w	r2, r2, #49152	; 0xc000
 800051e:	600a      	str	r2, [r1, #0]
 8000520:	685a      	ldr	r2, [r3, #4]
 8000522:	605a      	str	r2, [r3, #4]
 8000524:	685a      	ldr	r2, [r3, #4]
 8000526:	605a      	str	r2, [r3, #4]
 8000528:	685a      	ldr	r2, [r3, #4]
 800052a:	f442 6280 	orr.w	r2, r2, #1024	; 0x400
 800052e:	605a      	str	r2, [r3, #4]
 8000530:	6ada      	ldr	r2, [r3, #44]	; 0x2c
 8000532:	4002      	ands	r2, r0
 8000534:	62da      	str	r2, [r3, #44]	; 0x2c
 8000536:	6ada      	ldr	r2, [r3, #44]	; 0x2c
 8000538:	f042 1201 	orr.w	r2, r2, #65537	; 0x10001
 800053c:	f442 6200 	orr.w	r2, r2, #2048	; 0x800
 8000540:	62da      	str	r2, [r3, #44]	; 0x2c
 8000542:	685a      	ldr	r2, [r3, #4]
 8000544:	f022 42c0 	bic.w	r2, r2, #1610612736	; 0x60000000
 8000548:	f422 1270 	bic.w	r2, r2, #3932160	; 0x3c0000
 800054c:	605a      	str	r2, [r3, #4]
 800054e:	685a      	ldr	r2, [r3, #4]
 8000550:	f442 3280 	orr.w	r2, r2, #65536	; 0x10000
 8000554:	605a      	str	r2, [r3, #4]
 8000556:	681a      	ldr	r2, [r3, #0]
 8000558:	f042 6280 	orr.w	r2, r2, #67108864	; 0x4000000
 800055c:	601a      	str	r2, [r3, #0]
 800055e:	681a      	ldr	r2, [r3, #0]
 8000560:	0112      	lsls	r2, r2, #4
 8000562:	d5fc      	bpl.n	800055e <SystemInit+0xbe>
 8000564:	6819      	ldr	r1, [r3, #0]
 8000566:	4a13      	ldr	r2, [pc, #76]	; (80005b4 <SystemInit+0x114>)
 8000568:	f041 7180 	orr.w	r1, r1, #16777216	; 0x1000000
 800056c:	6019      	str	r1, [r3, #0]
 800056e:	6813      	ldr	r3, [r2, #0]
 8000570:	0198      	lsls	r0, r3, #6
 8000572:	d5fc      	bpl.n	800056e <SystemInit+0xce>
 8000574:	4a10      	ldr	r2, [pc, #64]	; (80005b8 <SystemInit+0x118>)
 8000576:	6813      	ldr	r3, [r2, #0]
 8000578:	f443 3380 	orr.w	r3, r3, #65536	; 0x10000
 800057c:	6013      	str	r3, [r2, #0]
 800057e:	6853      	ldr	r3, [r2, #4]
 8000580:	03d9      	lsls	r1, r3, #15
 8000582:	d5fc      	bpl.n	800057e <SystemInit+0xde>
 8000584:	6813      	ldr	r3, [r2, #0]
 8000586:	490c      	ldr	r1, [pc, #48]	; (80005b8 <SystemInit+0x118>)
 8000588:	f443 3300 	orr.w	r3, r3, #131072	; 0x20000
 800058c:	6013      	str	r3, [r2, #0]
 800058e:	684b      	ldr	r3, [r1, #4]
 8000590:	039a      	lsls	r2, r3, #14
 8000592:	d5fc      	bpl.n	800058e <SystemInit+0xee>
 8000594:	4a07      	ldr	r2, [pc, #28]	; (80005b4 <SystemInit+0x114>)
 8000596:	6853      	ldr	r3, [r2, #4]
 8000598:	f023 0303 	bic.w	r3, r3, #3
 800059c:	6053      	str	r3, [r2, #4]
 800059e:	6853      	ldr	r3, [r2, #4]
 80005a0:	f043 0302 	orr.w	r3, r3, #2
 80005a4:	6053      	str	r3, [r2, #4]
 80005a6:	6853      	ldr	r3, [r2, #4]
 80005a8:	071b      	lsls	r3, r3, #28
 80005aa:	d5fc      	bpl.n	80005a6 <SystemInit+0x106>
 80005ac:	b002      	add	sp, #8
 80005ae:	4770      	bx	lr
 80005b0:	e7fe      	b.n	80005b0 <SystemInit+0x110>
 80005b2:	bf00      	nop
 80005b4:	1000      	asrs	r0, r0, #32
 80005b6:	4002      	ands	r2, r0
 80005b8:	7000      	strb	r0, [r0, #0]
 80005ba:	4000      	ands	r0, r0
 80005bc:	f000 bffe 	b.w	80015bc <usb_rcu_config+0x4>

080005c0 <exti_deinit>:
 80005c0:	4b06      	ldr	r3, [pc, #24]	; (80005dc <exti_deinit+0x1c>)
 80005c2:	2200      	movs	r2, #0
 80005c4:	f8c3 2400 	str.w	r2, [r3, #1024]	; 0x400
 80005c8:	f8c3 2404 	str.w	r2, [r3, #1028]	; 0x404
 80005cc:	f8c3 2408 	str.w	r2, [r3, #1032]	; 0x408
 80005d0:	f8c3 240c 	str.w	r2, [r3, #1036]	; 0x40c
 80005d4:	f8c3 2410 	str.w	r2, [r3, #1040]	; 0x410
 80005d8:	4770      	bx	lr
 80005da:	bf00      	nop
 80005dc:	0000      	movs	r0, r0
 80005de:	4001      	ands	r1, r0

080005e0 <exti_init>:
 80005e0:	4b2c      	ldr	r3, [pc, #176]	; (8000694 <exti_init+0xb4>)
 80005e2:	b410      	push	{r4}
 80005e4:	f8d3 4400 	ldr.w	r4, [r3, #1024]	; 0x400
 80005e8:	ea24 0400 	bic.w	r4, r4, r0
 80005ec:	f8c3 4400 	str.w	r4, [r3, #1024]	; 0x400
 80005f0:	f8d3 4404 	ldr.w	r4, [r3, #1028]	; 0x404
 80005f4:	ea24 0400 	bic.w	r4, r4, r0
 80005f8:	f8c3 4404 	str.w	r4, [r3, #1028]	; 0x404
 80005fc:	f8d3 4408 	ldr.w	r4, [r3, #1032]	; 0x408
 8000600:	ea24 0400 	bic.w	r4, r4, r0
 8000604:	f8c3 4408 	str.w	r4, [r3, #1032]	; 0x408
 8000608:	f8d3 440c 	ldr.w	r4, [r3, #1036]	; 0x40c
 800060c:	ea24 0400 	bic.w	r4, r4, r0
 8000610:	f8c3 440c 	str.w	r4, [r3, #1036]	; 0x40c
 8000614:	43c4      	mvns	r4, r0
 8000616:	b169      	cbz	r1, 8000634 <exti_init+0x54>
 8000618:	2901      	cmp	r1, #1
 800061a:	d104      	bne.n	8000626 <exti_init+0x46>
 800061c:	f8d3 1404 	ldr.w	r1, [r3, #1028]	; 0x404
 8000620:	4301      	orrs	r1, r0
 8000622:	f8c3 1404 	str.w	r1, [r3, #1028]	; 0x404
 8000626:	2a01      	cmp	r2, #1
 8000628:	d00c      	beq.n	8000644 <exti_init+0x64>
 800062a:	2a02      	cmp	r2, #2
 800062c:	d024      	beq.n	8000678 <exti_init+0x98>
 800062e:	b1b2      	cbz	r2, 800065e <exti_init+0x7e>
 8000630:	bc10      	pop	{r4}
 8000632:	4770      	bx	lr
 8000634:	f8d3 1400 	ldr.w	r1, [r3, #1024]	; 0x400
 8000638:	2a01      	cmp	r2, #1
 800063a:	ea41 0100 	orr.w	r1, r1, r0
 800063e:	f8c3 1400 	str.w	r1, [r3, #1024]	; 0x400
 8000642:	d1f2      	bne.n	800062a <exti_init+0x4a>
 8000644:	4b13      	ldr	r3, [pc, #76]	; (8000694 <exti_init+0xb4>)
 8000646:	f8d3 2408 	ldr.w	r2, [r3, #1032]	; 0x408
 800064a:	4014      	ands	r4, r2
 800064c:	f8c3 4408 	str.w	r4, [r3, #1032]	; 0x408
 8000650:	f8d3 240c 	ldr.w	r2, [r3, #1036]	; 0x40c
 8000654:	bc10      	pop	{r4}
 8000656:	4310      	orrs	r0, r2
 8000658:	f8c3 040c 	str.w	r0, [r3, #1036]	; 0x40c
 800065c:	4770      	bx	lr
 800065e:	4b0d      	ldr	r3, [pc, #52]	; (8000694 <exti_init+0xb4>)
 8000660:	f8d3 2408 	ldr.w	r2, [r3, #1032]	; 0x408
 8000664:	4310      	orrs	r0, r2
 8000666:	f8c3 0408 	str.w	r0, [r3, #1032]	; 0x408
 800066a:	f8d3 240c 	ldr.w	r2, [r3, #1036]	; 0x40c
 800066e:	4014      	ands	r4, r2
 8000670:	f8c3 440c 	str.w	r4, [r3, #1036]	; 0x40c
 8000674:	bc10      	pop	{r4}
 8000676:	4770      	bx	lr
 8000678:	4b06      	ldr	r3, [pc, #24]	; (8000694 <exti_init+0xb4>)
 800067a:	bc10      	pop	{r4}
 800067c:	f8d3 2408 	ldr.w	r2, [r3, #1032]	; 0x408
 8000680:	4302      	orrs	r2, r0
 8000682:	f8c3 2408 	str.w	r2, [r3, #1032]	; 0x408
 8000686:	f8d3 240c 	ldr.w	r2, [r3, #1036]	; 0x40c
 800068a:	4310      	orrs	r0, r2
 800068c:	f8c3 040c 	str.w	r0, [r3, #1036]	; 0x40c
 8000690:	4770      	bx	lr
 8000692:	bf00      	nop
 8000694:	0000      	movs	r0, r0
 8000696:	4001      	ands	r1, r0

08000698 <exti_interrupt_enable>:
 8000698:	4a03      	ldr	r2, [pc, #12]	; (80006a8 <exti_interrupt_enable+0x10>)
 800069a:	f8d2 3400 	ldr.w	r3, [r2, #1024]	; 0x400
 800069e:	4303      	orrs	r3, r0
 80006a0:	f8c2 3400 	str.w	r3, [r2, #1024]	; 0x400
 80006a4:	4770      	bx	lr
 80006a6:	bf00      	nop
 80006a8:	0000      	movs	r0, r0
 80006aa:	4001      	ands	r1, r0

080006ac <exti_interrupt_disable>:
 80006ac:	4a03      	ldr	r2, [pc, #12]	; (80006bc <exti_interrupt_disable+0x10>)
 80006ae:	f8d2 3400 	ldr.w	r3, [r2, #1024]	; 0x400
 80006b2:	ea23 0300 	bic.w	r3, r3, r0
 80006b6:	f8c2 3400 	str.w	r3, [r2, #1024]	; 0x400
 80006ba:	4770      	bx	lr
 80006bc:	0000      	movs	r0, r0
 80006be:	4001      	ands	r1, r0

080006c0 <exti_interrupt_flag_get>:
 80006c0:	4b03      	ldr	r3, [pc, #12]	; (80006d0 <exti_interrupt_flag_get+0x10>)
 80006c2:	f8d3 3414 	ldr.w	r3, [r3, #1044]	; 0x414
 80006c6:	4218      	tst	r0, r3
 80006c8:	bf14      	ite	ne
 80006ca:	2001      	movne	r0, #1
 80006cc:	2000      	moveq	r0, #0
 80006ce:	4770      	bx	lr
 80006d0:	0000      	movs	r0, r0
 80006d2:	4001      	ands	r1, r0

080006d4 <exti_interrupt_flag_clear>:
 80006d4:	4b01      	ldr	r3, [pc, #4]	; (80006dc <exti_interrupt_flag_clear+0x8>)
 80006d6:	f8c3 0414 	str.w	r0, [r3, #1044]	; 0x414
 80006da:	4770      	bx	lr
 80006dc:	0000      	movs	r0, r0
 80006de:	4001      	ands	r1, r0

080006e0 <gpio_deinit>:
 80006e0:	4b31      	ldr	r3, [pc, #196]	; (80007a8 <gpio_deinit+0xc8>)
 80006e2:	4298      	cmp	r0, r3
 80006e4:	b510      	push	{r4, lr}
 80006e6:	d03f      	beq.n	8000768 <gpio_deinit+0x88>
 80006e8:	d811      	bhi.n	800070e <gpio_deinit+0x2e>
 80006ea:	f5a3 6300 	sub.w	r3, r3, #2048	; 0x800
 80006ee:	4298      	cmp	r0, r3
 80006f0:	d044      	beq.n	800077c <gpio_deinit+0x9c>
 80006f2:	f503 6380 	add.w	r3, r3, #1024	; 0x400
 80006f6:	4298      	cmp	r0, r3
 80006f8:	d11a      	bne.n	8000730 <gpio_deinit+0x50>
 80006fa:	4b2c      	ldr	r3, [pc, #176]	; (80007ac <gpio_deinit+0xcc>)
 80006fc:	f44f 7041 	mov.w	r0, #772	; 0x304
 8000700:	4798      	blx	r3
 8000702:	e8bd 4010 	ldmia.w	sp!, {r4, lr}
 8000706:	4b2a      	ldr	r3, [pc, #168]	; (80007b0 <gpio_deinit+0xd0>)
 8000708:	f44f 7041 	mov.w	r0, #772	; 0x304
 800070c:	4718      	bx	r3
 800070e:	4b29      	ldr	r3, [pc, #164]	; (80007b4 <gpio_deinit+0xd4>)
 8000710:	4298      	cmp	r0, r3
 8000712:	d03d      	beq.n	8000790 <gpio_deinit+0xb0>
 8000714:	f503 6380 	add.w	r3, r3, #1024	; 0x400
 8000718:	4298      	cmp	r0, r3
 800071a:	d117      	bne.n	800074c <gpio_deinit+0x6c>
 800071c:	4b23      	ldr	r3, [pc, #140]	; (80007ac <gpio_deinit+0xcc>)
 800071e:	f44f 7042 	mov.w	r0, #776	; 0x308
 8000722:	4798      	blx	r3
 8000724:	e8bd 4010 	ldmia.w	sp!, {r4, lr}
 8000728:	4b21      	ldr	r3, [pc, #132]	; (80007b0 <gpio_deinit+0xd0>)
 800072a:	f44f 7042 	mov.w	r0, #776	; 0x308
 800072e:	4718      	bx	r3
 8000730:	f5a3 6300 	sub.w	r3, r3, #2048	; 0x800
 8000734:	4298      	cmp	r0, r3
 8000736:	d135      	bne.n	80007a4 <gpio_deinit+0xc4>
 8000738:	4b1c      	ldr	r3, [pc, #112]	; (80007ac <gpio_deinit+0xcc>)
 800073a:	f240 3002 	movw	r0, #770	; 0x302
 800073e:	4798      	blx	r3
 8000740:	e8bd 4010 	ldmia.w	sp!, {r4, lr}
 8000744:	4b1a      	ldr	r3, [pc, #104]	; (80007b0 <gpio_deinit+0xd0>)
 8000746:	f240 3002 	movw	r0, #770	; 0x302
 800074a:	4718      	bx	r3
 800074c:	f5a3 6300 	sub.w	r3, r3, #2048	; 0x800
 8000750:	4298      	cmp	r0, r3
 8000752:	d127      	bne.n	80007a4 <gpio_deinit+0xc4>
 8000754:	4b15      	ldr	r3, [pc, #84]	; (80007ac <gpio_deinit+0xcc>)
 8000756:	f240 3006 	movw	r0, #774	; 0x306
 800075a:	4798      	blx	r3
 800075c:	e8bd 4010 	ldmia.w	sp!, {r4, lr}
 8000760:	4b13      	ldr	r3, [pc, #76]	; (80007b0 <gpio_deinit+0xd0>)
 8000762:	f240 3006 	movw	r0, #774	; 0x306
 8000766:	4718      	bx	r3
 8000768:	4b10      	ldr	r3, [pc, #64]	; (80007ac <gpio_deinit+0xcc>)
 800076a:	f240 3005 	movw	r0, #773	; 0x305
 800076e:	4798      	blx	r3
 8000770:	e8bd 4010 	ldmia.w	sp!, {r4, lr}
 8000774:	4b0e      	ldr	r3, [pc, #56]	; (80007b0 <gpio_deinit+0xd0>)
 8000776:	f240 3005 	movw	r0, #773	; 0x305
 800077a:	4718      	bx	r3
 800077c:	4b0b      	ldr	r3, [pc, #44]	; (80007ac <gpio_deinit+0xcc>)
 800077e:	f240 3003 	movw	r0, #771	; 0x303
 8000782:	4798      	blx	r3
 8000784:	e8bd 4010 	ldmia.w	sp!, {r4, lr}
 8000788:	4b09      	ldr	r3, [pc, #36]	; (80007b0 <gpio_deinit+0xd0>)
 800078a:	f240 3003 	movw	r0, #771	; 0x303
 800078e:	4718      	bx	r3
 8000790:	4b06      	ldr	r3, [pc, #24]	; (80007ac <gpio_deinit+0xcc>)
 8000792:	f240 3007 	movw	r0, #775	; 0x307
 8000796:	4798      	blx	r3
 8000798:	e8bd 4010 	ldmia.w	sp!, {r4, lr}
 800079c:	4b04      	ldr	r3, [pc, #16]	; (80007b0 <gpio_deinit+0xd0>)
 800079e:	f240 3007 	movw	r0, #775	; 0x307
 80007a2:	4718      	bx	r3
 80007a4:	bd10      	pop	{r4, pc}
 80007a6:	bf00      	nop
 80007a8:	1400      	asrs	r0, r0, #16
 80007aa:	4001      	ands	r1, r0
 80007ac:	0e39      	lsrs	r1, r7, #24
 80007ae:	0800      	lsrs	r0, r0, #32
 80007b0:	0e55      	lsrs	r5, r2, #25
 80007b2:	0800      	lsrs	r0, r0, #32
 80007b4:	1c00      	adds	r0, r0, #0
 80007b6:	4001      	ands	r1, r0

080007b8 <gpio_init>:
 80007b8:	f011 0f10 	tst.w	r1, #16
 80007bc:	f001 0c0f 	and.w	ip, r1, #15
 80007c0:	d004      	beq.n	80007cc <gpio_init+0x14>
 80007c2:	2a04      	cmp	r2, #4
 80007c4:	f000 81c6 	beq.w	8000b54 <gpio_init+0x39c>
 80007c8:	ea4c 0c02 	orr.w	ip, ip, r2
 80007cc:	2948      	cmp	r1, #72	; 0x48
 80007ce:	f000 8127 	beq.w	8000a20 <gpio_init+0x268>
 80007d2:	2928      	cmp	r1, #40	; 0x28
 80007d4:	f000 8082 	beq.w	80008dc <gpio_init+0x124>
 80007d8:	07da      	lsls	r2, r3, #31
 80007da:	d505      	bpl.n	80007e8 <gpio_init+0x30>
 80007dc:	6802      	ldr	r2, [r0, #0]
 80007de:	f022 020f 	bic.w	r2, r2, #15
 80007e2:	ea4c 0202 	orr.w	r2, ip, r2
 80007e6:	6002      	str	r2, [r0, #0]
 80007e8:	0799      	lsls	r1, r3, #30
 80007ea:	d505      	bpl.n	80007f8 <gpio_init+0x40>
 80007ec:	6802      	ldr	r2, [r0, #0]
 80007ee:	f022 02f0 	bic.w	r2, r2, #240	; 0xf0
 80007f2:	ea42 120c 	orr.w	r2, r2, ip, lsl #4
 80007f6:	6002      	str	r2, [r0, #0]
 80007f8:	075a      	lsls	r2, r3, #29
 80007fa:	d505      	bpl.n	8000808 <gpio_init+0x50>
 80007fc:	6802      	ldr	r2, [r0, #0]
 80007fe:	f422 6270 	bic.w	r2, r2, #3840	; 0xf00
 8000802:	ea42 220c 	orr.w	r2, r2, ip, lsl #8
 8000806:	6002      	str	r2, [r0, #0]
 8000808:	0719      	lsls	r1, r3, #28
 800080a:	d505      	bpl.n	8000818 <gpio_init+0x60>
 800080c:	6802      	ldr	r2, [r0, #0]
 800080e:	f422 4270 	bic.w	r2, r2, #61440	; 0xf000
 8000812:	ea42 320c 	orr.w	r2, r2, ip, lsl #12
 8000816:	6002      	str	r2, [r0, #0]
 8000818:	06da      	lsls	r2, r3, #27
 800081a:	d505      	bpl.n	8000828 <gpio_init+0x70>
 800081c:	6802      	ldr	r2, [r0, #0]
 800081e:	f422 2270 	bic.w	r2, r2, #983040	; 0xf0000
 8000822:	ea42 420c 	orr.w	r2, r2, ip, lsl #16
 8000826:	6002      	str	r2, [r0, #0]
 8000828:	0699      	lsls	r1, r3, #26
 800082a:	d505      	bpl.n	8000838 <gpio_init+0x80>
 800082c:	6802      	ldr	r2, [r0, #0]
 800082e:	f422 0270 	bic.w	r2, r2, #15728640	; 0xf00000
 8000832:	ea42 520c 	orr.w	r2, r2, ip, lsl #20
 8000836:	6002      	str	r2, [r0, #0]
 8000838:	065a      	lsls	r2, r3, #25
 800083a:	d505      	bpl.n	8000848 <gpio_init+0x90>
 800083c:	6802      	ldr	r2, [r0, #0]
 800083e:	f022 6270 	bic.w	r2, r2, #251658240	; 0xf000000
 8000842:	ea42 620c 	orr.w	r2, r2, ip, lsl #24
 8000846:	6002      	str	r2, [r0, #0]
 8000848:	0619      	lsls	r1, r3, #24
 800084a:	d505      	bpl.n	8000858 <gpio_init+0xa0>
 800084c:	6802      	ldr	r2, [r0, #0]
 800084e:	f022 4270 	bic.w	r2, r2, #4026531840	; 0xf0000000
 8000852:	ea42 720c 	orr.w	r2, r2, ip, lsl #28
 8000856:	6002      	str	r2, [r0, #0]
 8000858:	05da      	lsls	r2, r3, #23
 800085a:	d505      	bpl.n	8000868 <gpio_init+0xb0>
 800085c:	6842      	ldr	r2, [r0, #4]
 800085e:	f022 020f 	bic.w	r2, r2, #15
 8000862:	ea4c 0202 	orr.w	r2, ip, r2
 8000866:	6042      	str	r2, [r0, #4]
 8000868:	0599      	lsls	r1, r3, #22
 800086a:	d505      	bpl.n	8000878 <gpio_init+0xc0>
 800086c:	6842      	ldr	r2, [r0, #4]
 800086e:	f022 02f0 	bic.w	r2, r2, #240	; 0xf0
 8000872:	ea42 120c 	orr.w	r2, r2, ip, lsl #4
 8000876:	6042      	str	r2, [r0, #4]
 8000878:	055a      	lsls	r2, r3, #21
 800087a:	d505      	bpl.n	8000888 <gpio_init+0xd0>
 800087c:	6842      	ldr	r2, [r0, #4]
 800087e:	f422 6270 	bic.w	r2, r2, #3840	; 0xf00
 8000882:	ea42 220c 	orr.w	r2, r2, ip, lsl #8
 8000886:	6042      	str	r2, [r0, #4]
 8000888:	0519      	lsls	r1, r3, #20
 800088a:	d505      	bpl.n	8000898 <gpio_init+0xe0>
 800088c:	6842      	ldr	r2, [r0, #4]
 800088e:	f422 4270 	bic.w	r2, r2, #61440	; 0xf000
 8000892:	ea42 320c 	orr.w	r2, r2, ip, lsl #12
 8000896:	6042      	str	r2, [r0, #4]
 8000898:	04da      	lsls	r2, r3, #19
 800089a:	d505      	bpl.n	80008a8 <gpio_init+0xf0>
 800089c:	6842      	ldr	r2, [r0, #4]
 800089e:	f422 2270 	bic.w	r2, r2, #983040	; 0xf0000
 80008a2:	ea42 420c 	orr.w	r2, r2, ip, lsl #16
 80008a6:	6042      	str	r2, [r0, #4]
 80008a8:	0499      	lsls	r1, r3, #18
 80008aa:	d505      	bpl.n	80008b8 <gpio_init+0x100>
 80008ac:	6842      	ldr	r2, [r0, #4]
 80008ae:	f422 0270 	bic.w	r2, r2, #15728640	; 0xf00000
 80008b2:	ea42 520c 	orr.w	r2, r2, ip, lsl #20
 80008b6:	6042      	str	r2, [r0, #4]
 80008b8:	045a      	lsls	r2, r3, #17
 80008ba:	d505      	bpl.n	80008c8 <gpio_init+0x110>
 80008bc:	6842      	ldr	r2, [r0, #4]
 80008be:	f022 6270 	bic.w	r2, r2, #251658240	; 0xf000000
 80008c2:	ea42 620c 	orr.w	r2, r2, ip, lsl #24
 80008c6:	6042      	str	r2, [r0, #4]
 80008c8:	041b      	lsls	r3, r3, #16
 80008ca:	f140 8142 	bpl.w	8000b52 <gpio_init+0x39a>
 80008ce:	6843      	ldr	r3, [r0, #4]
 80008d0:	f023 4370 	bic.w	r3, r3, #4026531840	; 0xf0000000
 80008d4:	ea43 730c 	orr.w	r3, r3, ip, lsl #28
 80008d8:	6043      	str	r3, [r0, #4]
 80008da:	4770      	bx	lr
 80008dc:	07d9      	lsls	r1, r3, #31
 80008de:	d507      	bpl.n	80008f0 <gpio_init+0x138>
 80008e0:	6802      	ldr	r2, [r0, #0]
 80008e2:	f022 020f 	bic.w	r2, r2, #15
 80008e6:	2101      	movs	r1, #1
 80008e8:	ea4c 0202 	orr.w	r2, ip, r2
 80008ec:	6141      	str	r1, [r0, #20]
 80008ee:	6002      	str	r2, [r0, #0]
 80008f0:	f013 0102 	ands.w	r1, r3, #2
 80008f4:	d006      	beq.n	8000904 <gpio_init+0x14c>
 80008f6:	6802      	ldr	r2, [r0, #0]
 80008f8:	6141      	str	r1, [r0, #20]
 80008fa:	f022 02f0 	bic.w	r2, r2, #240	; 0xf0
 80008fe:	ea42 120c 	orr.w	r2, r2, ip, lsl #4
 8000902:	6002      	str	r2, [r0, #0]
 8000904:	f013 0104 	ands.w	r1, r3, #4
 8000908:	d006      	beq.n	8000918 <gpio_init+0x160>
 800090a:	6802      	ldr	r2, [r0, #0]
 800090c:	6141      	str	r1, [r0, #20]
 800090e:	f422 6270 	bic.w	r2, r2, #3840	; 0xf00
 8000912:	ea42 220c 	orr.w	r2, r2, ip, lsl #8
 8000916:	6002      	str	r2, [r0, #0]
 8000918:	f013 0108 	ands.w	r1, r3, #8
 800091c:	d006      	beq.n	800092c <gpio_init+0x174>
 800091e:	6802      	ldr	r2, [r0, #0]
 8000920:	6141      	str	r1, [r0, #20]
 8000922:	f422 4270 	bic.w	r2, r2, #61440	; 0xf000
 8000926:	ea42 320c 	orr.w	r2, r2, ip, lsl #12
 800092a:	6002      	str	r2, [r0, #0]
 800092c:	f013 0110 	ands.w	r1, r3, #16
 8000930:	d006      	beq.n	8000940 <gpio_init+0x188>
 8000932:	6802      	ldr	r2, [r0, #0]
 8000934:	6141      	str	r1, [r0, #20]
 8000936:	f422 2270 	bic.w	r2, r2, #983040	; 0xf0000
 800093a:	ea42 420c 	orr.w	r2, r2, ip, lsl #16
 800093e:	6002      	str	r2, [r0, #0]
 8000940:	f013 0120 	ands.w	r1, r3, #32
 8000944:	d006      	beq.n	8000954 <gpio_init+0x19c>
 8000946:	6802      	ldr	r2, [r0, #0]
 8000948:	6141      	str	r1, [r0, #20]
 800094a:	f422 0270 	bic.w	r2, r2, #15728640	; 0xf00000
 800094e:	ea42 520c 	orr.w	r2, r2, ip, lsl #20
 8000952:	6002      	str	r2, [r0, #0]
 8000954:	f013 0140 	ands.w	r1, r3, #64	; 0x40
 8000958:	d006      	beq.n	8000968 <gpio_init+0x1b0>
 800095a:	6802      	ldr	r2, [r0, #0]
 800095c:	6141      	str	r1, [r0, #20]
 800095e:	f022 6270 	bic.w	r2, r2, #251658240	; 0xf000000
 8000962:	ea42 620c 	orr.w	r2, r2, ip, lsl #24
 8000966:	6002      	str	r2, [r0, #0]
 8000968:	f013 0180 	ands.w	r1, r3, #128	; 0x80
 800096c:	d006      	beq.n	800097c <gpio_init+0x1c4>
 800096e:	6802      	ldr	r2, [r0, #0]
 8000970:	6141      	str	r1, [r0, #20]
 8000972:	f022 4270 	bic.w	r2, r2, #4026531840	; 0xf0000000
 8000976:	ea42 720c 	orr.w	r2, r2, ip, lsl #28
 800097a:	6002      	str	r2, [r0, #0]
 800097c:	f413 7180 	ands.w	r1, r3, #256	; 0x100
 8000980:	d006      	beq.n	8000990 <gpio_init+0x1d8>
 8000982:	6842      	ldr	r2, [r0, #4]
 8000984:	6141      	str	r1, [r0, #20]
 8000986:	f022 020f 	bic.w	r2, r2, #15
 800098a:	ea4c 0202 	orr.w	r2, ip, r2
 800098e:	6042      	str	r2, [r0, #4]
 8000990:	f413 7100 	ands.w	r1, r3, #512	; 0x200
 8000994:	d006      	beq.n	80009a4 <gpio_init+0x1ec>
 8000996:	6842      	ldr	r2, [r0, #4]
 8000998:	6141      	str	r1, [r0, #20]
 800099a:	f022 02f0 	bic.w	r2, r2, #240	; 0xf0
 800099e:	ea42 120c 	orr.w	r2, r2, ip, lsl #4
 80009a2:	6042      	str	r2, [r0, #4]
 80009a4:	f413 6180 	ands.w	r1, r3, #1024	; 0x400
 80009a8:	d006      	beq.n	80009b8 <gpio_init+0x200>
 80009aa:	6842      	ldr	r2, [r0, #4]
 80009ac:	6141      	str	r1, [r0, #20]
 80009ae:	f422 6270 	bic.w	r2, r2, #3840	; 0xf00
 80009b2:	ea42 220c 	orr.w	r2, r2, ip, lsl #8
 80009b6:	6042      	str	r2, [r0, #4]
 80009b8:	f413 6100 	ands.w	r1, r3, #2048	; 0x800
 80009bc:	d006      	beq.n	80009cc <gpio_init+0x214>
 80009be:	6842      	ldr	r2, [r0, #4]
 80009c0:	6141      	str	r1, [r0, #20]
 80009c2:	f422 4270 	bic.w	r2, r2, #61440	; 0xf000
 80009c6:	ea42 320c 	orr.w	r2, r2, ip, lsl #12
 80009ca:	6042      	str	r2, [r0, #4]
 80009cc:	f413 5180 	ands.w	r1, r3, #4096	; 0x1000
 80009d0:	d006      	beq.n	80009e0 <gpio_init+0x228>
 80009d2:	6842      	ldr	r2, [r0, #4]
 80009d4:	6141      	str	r1, [r0, #20]
 80009d6:	f422 2270 	bic.w	r2, r2, #983040	; 0xf0000
 80009da:	ea42 420c 	orr.w	r2, r2, ip, lsl #16
 80009de:	6042      	str	r2, [r0, #4]
 80009e0:	f413 5100 	ands.w	r1, r3, #8192	; 0x2000
 80009e4:	d006      	beq.n	80009f4 <gpio_init+0x23c>
 80009e6:	6842      	ldr	r2, [r0, #4]
 80009e8:	6141      	str	r1, [r0, #20]
 80009ea:	f422 0270 	bic.w	r2, r2, #15728640	; 0xf00000
 80009ee:	ea42 520c 	orr.w	r2, r2, ip, lsl #20
 80009f2:	6042      	str	r2, [r0, #4]
 80009f4:	f413 4180 	ands.w	r1, r3, #16384	; 0x4000
 80009f8:	d006      	beq.n	8000a08 <gpio_init+0x250>
 80009fa:	6842      	ldr	r2, [r0, #4]
 80009fc:	6141      	str	r1, [r0, #20]
 80009fe:	f022 6270 	bic.w	r2, r2, #251658240	; 0xf000000
 8000a02:	ea42 620c 	orr.w	r2, r2, ip, lsl #24
 8000a06:	6042      	str	r2, [r0, #4]
 8000a08:	f413 4300 	ands.w	r3, r3, #32768	; 0x8000
 8000a0c:	f000 80a1 	beq.w	8000b52 <gpio_init+0x39a>
 8000a10:	6842      	ldr	r2, [r0, #4]
 8000a12:	6143      	str	r3, [r0, #20]
 8000a14:	f022 4370 	bic.w	r3, r2, #4026531840	; 0xf0000000
 8000a18:	ea43 730c 	orr.w	r3, r3, ip, lsl #28
 8000a1c:	6043      	str	r3, [r0, #4]
 8000a1e:	4770      	bx	lr
 8000a20:	07da      	lsls	r2, r3, #31
 8000a22:	d507      	bpl.n	8000a34 <gpio_init+0x27c>
 8000a24:	6802      	ldr	r2, [r0, #0]
 8000a26:	f022 020f 	bic.w	r2, r2, #15
 8000a2a:	2101      	movs	r1, #1
 8000a2c:	ea4c 0202 	orr.w	r2, ip, r2
 8000a30:	6101      	str	r1, [r0, #16]
 8000a32:	6002      	str	r2, [r0, #0]
 8000a34:	f013 0102 	ands.w	r1, r3, #2
 8000a38:	d006      	beq.n	8000a48 <gpio_init+0x290>
 8000a3a:	6802      	ldr	r2, [r0, #0]
 8000a3c:	6101      	str	r1, [r0, #16]
 8000a3e:	f022 02f0 	bic.w	r2, r2, #240	; 0xf0
 8000a42:	ea42 120c 	orr.w	r2, r2, ip, lsl #4
 8000a46:	6002      	str	r2, [r0, #0]
 8000a48:	f013 0104 	ands.w	r1, r3, #4
 8000a4c:	d006      	beq.n	8000a5c <gpio_init+0x2a4>
 8000a4e:	6802      	ldr	r2, [r0, #0]
 8000a50:	6101      	str	r1, [r0, #16]
 8000a52:	f422 6270 	bic.w	r2, r2, #3840	; 0xf00
 8000a56:	ea42 220c 	orr.w	r2, r2, ip, lsl #8
 8000a5a:	6002      	str	r2, [r0, #0]
 8000a5c:	f013 0108 	ands.w	r1, r3, #8
 8000a60:	d006      	beq.n	8000a70 <gpio_init+0x2b8>
 8000a62:	6802      	ldr	r2, [r0, #0]
 8000a64:	6101      	str	r1, [r0, #16]
 8000a66:	f422 4270 	bic.w	r2, r2, #61440	; 0xf000
 8000a6a:	ea42 320c 	orr.w	r2, r2, ip, lsl #12
 8000a6e:	6002      	str	r2, [r0, #0]
 8000a70:	f013 0110 	ands.w	r1, r3, #16
 8000a74:	d006      	beq.n	8000a84 <gpio_init+0x2cc>
 8000a76:	6802      	ldr	r2, [r0, #0]
 8000a78:	6101      	str	r1, [r0, #16]
 8000a7a:	f422 2270 	bic.w	r2, r2, #983040	; 0xf0000
 8000a7e:	ea42 420c 	orr.w	r2, r2, ip, lsl #16
 8000a82:	6002      	str	r2, [r0, #0]
 8000a84:	f013 0120 	ands.w	r1, r3, #32
 8000a88:	d006      	beq.n	8000a98 <gpio_init+0x2e0>
 8000a8a:	6802      	ldr	r2, [r0, #0]
 8000a8c:	6101      	str	r1, [r0, #16]
 8000a8e:	f422 0270 	bic.w	r2, r2, #15728640	; 0xf00000
 8000a92:	ea42 520c 	orr.w	r2, r2, ip, lsl #20
 8000a96:	6002      	str	r2, [r0, #0]
 8000a98:	f013 0140 	ands.w	r1, r3, #64	; 0x40
 8000a9c:	d006      	beq.n	8000aac <gpio_init+0x2f4>
 8000a9e:	6802      	ldr	r2, [r0, #0]
 8000aa0:	6101      	str	r1, [r0, #16]
 8000aa2:	f022 6270 	bic.w	r2, r2, #251658240	; 0xf000000
 8000aa6:	ea42 620c 	orr.w	r2, r2, ip, lsl #24
 8000aaa:	6002      	str	r2, [r0, #0]
 8000aac:	f013 0180 	ands.w	r1, r3, #128	; 0x80
 8000ab0:	d006      	beq.n	8000ac0 <gpio_init+0x308>
 8000ab2:	6802      	ldr	r2, [r0, #0]
 8000ab4:	6101      	str	r1, [r0, #16]
 8000ab6:	f022 4270 	bic.w	r2, r2, #4026531840	; 0xf0000000
 8000aba:	ea42 720c 	orr.w	r2, r2, ip, lsl #28
 8000abe:	6002      	str	r2, [r0, #0]
 8000ac0:	f413 7180 	ands.w	r1, r3, #256	; 0x100
 8000ac4:	d006      	beq.n	8000ad4 <gpio_init+0x31c>
 8000ac6:	6842      	ldr	r2, [r0, #4]
 8000ac8:	6101      	str	r1, [r0, #16]
 8000aca:	f022 020f 	bic.w	r2, r2, #15
 8000ace:	ea4c 0202 	orr.w	r2, ip, r2
 8000ad2:	6042      	str	r2, [r0, #4]
 8000ad4:	f413 7100 	ands.w	r1, r3, #512	; 0x200
 8000ad8:	d006      	beq.n	8000ae8 <gpio_init+0x330>
 8000ada:	6842      	ldr	r2, [r0, #4]
 8000adc:	6101      	str	r1, [r0, #16]
 8000ade:	f022 02f0 	bic.w	r2, r2, #240	; 0xf0
 8000ae2:	ea42 120c 	orr.w	r2, r2, ip, lsl #4
 8000ae6:	6042      	str	r2, [r0, #4]
 8000ae8:	f413 6180 	ands.w	r1, r3, #1024	; 0x400
 8000aec:	d006      	beq.n	8000afc <gpio_init+0x344>
 8000aee:	6842      	ldr	r2, [r0, #4]
 8000af0:	6101      	str	r1, [r0, #16]
 8000af2:	f422 6270 	bic.w	r2, r2, #3840	; 0xf00
 8000af6:	ea42 220c 	orr.w	r2, r2, ip, lsl #8
 8000afa:	6042      	str	r2, [r0, #4]
 8000afc:	f413 6100 	ands.w	r1, r3, #2048	; 0x800
 8000b00:	d006      	beq.n	8000b10 <gpio_init+0x358>
 8000b02:	6842      	ldr	r2, [r0, #4]
 8000b04:	6101      	str	r1, [r0, #16]
 8000b06:	f422 4270 	bic.w	r2, r2, #61440	; 0xf000
 8000b0a:	ea42 320c 	orr.w	r2, r2, ip, lsl #12
 8000b0e:	6042      	str	r2, [r0, #4]
 8000b10:	f413 5180 	ands.w	r1, r3, #4096	; 0x1000
 8000b14:	d006      	beq.n	8000b24 <gpio_init+0x36c>
 8000b16:	6842      	ldr	r2, [r0, #4]
 8000b18:	6101      	str	r1, [r0, #16]
 8000b1a:	f422 2270 	bic.w	r2, r2, #983040	; 0xf0000
 8000b1e:	ea42 420c 	orr.w	r2, r2, ip, lsl #16
 8000b22:	6042      	str	r2, [r0, #4]
 8000b24:	f413 5100 	ands.w	r1, r3, #8192	; 0x2000
 8000b28:	d006      	beq.n	8000b38 <gpio_init+0x380>
 8000b2a:	6842      	ldr	r2, [r0, #4]
 8000b2c:	6101      	str	r1, [r0, #16]
 8000b2e:	f422 0270 	bic.w	r2, r2, #15728640	; 0xf00000
 8000b32:	ea42 520c 	orr.w	r2, r2, ip, lsl #20
 8000b36:	6042      	str	r2, [r0, #4]
 8000b38:	f413 4180 	ands.w	r1, r3, #16384	; 0x4000
 8000b3c:	d006      	beq.n	8000b4c <gpio_init+0x394>
 8000b3e:	6842      	ldr	r2, [r0, #4]
 8000b40:	6101      	str	r1, [r0, #16]
 8000b42:	f022 6270 	bic.w	r2, r2, #251658240	; 0xf000000
 8000b46:	ea42 620c 	orr.w	r2, r2, ip, lsl #24
 8000b4a:	6042      	str	r2, [r0, #4]
 8000b4c:	f413 4300 	ands.w	r3, r3, #32768	; 0x8000
 8000b50:	d106      	bne.n	8000b60 <gpio_init+0x3a8>
 8000b52:	4770      	bx	lr
 8000b54:	6bc2      	ldr	r2, [r0, #60]	; 0x3c
 8000b56:	431a      	orrs	r2, r3
 8000b58:	f04c 0c03 	orr.w	ip, ip, #3
 8000b5c:	63c2      	str	r2, [r0, #60]	; 0x3c
 8000b5e:	e635      	b.n	80007cc <gpio_init+0x14>
 8000b60:	6842      	ldr	r2, [r0, #4]
 8000b62:	6103      	str	r3, [r0, #16]
 8000b64:	f022 4370 	bic.w	r3, r2, #4026531840	; 0xf0000000
 8000b68:	ea43 730c 	orr.w	r3, r3, ip, lsl #28
 8000b6c:	6043      	str	r3, [r0, #4]
 8000b6e:	4770      	bx	lr

08000b70 <gpio_bit_set>:
 8000b70:	6101      	str	r1, [r0, #16]
 8000b72:	4770      	bx	lr

08000b74 <gpio_bit_reset>:
 8000b74:	6141      	str	r1, [r0, #20]
 8000b76:	4770      	bx	lr

08000b78 <gpio_bit_write>:
 8000b78:	b10a      	cbz	r2, 8000b7e <gpio_bit_write+0x6>
 8000b7a:	6101      	str	r1, [r0, #16]
 8000b7c:	4770      	bx	lr
 8000b7e:	6141      	str	r1, [r0, #20]
 8000b80:	4770      	bx	lr
 8000b82:	bf00      	nop

08000b84 <gpio_input_bit_get>:
 8000b84:	6883      	ldr	r3, [r0, #8]
 8000b86:	420b      	tst	r3, r1
 8000b88:	bf14      	ite	ne
 8000b8a:	2001      	movne	r0, #1
 8000b8c:	2000      	moveq	r0, #0
 8000b8e:	4770      	bx	lr

08000b90 <gpio_pin_remap_config>:
 8000b90:	2800      	cmp	r0, #0
 8000b92:	4b1a      	ldr	r3, [pc, #104]	; (8000bfc <gpio_pin_remap_config+0x6c>)
 8000b94:	f400 1240 	and.w	r2, r0, #3145728	; 0x300000
 8000b98:	bfb4      	ite	lt
 8000b9a:	69db      	ldrlt	r3, [r3, #28]
 8000b9c:	685b      	ldrge	r3, [r3, #4]
 8000b9e:	f5b2 1f40 	cmp.w	r2, #3145728	; 0x300000
 8000ba2:	b410      	push	{r4}
 8000ba4:	fa1f fc80 	uxth.w	ip, r0
 8000ba8:	d01f      	beq.n	8000bea <gpio_pin_remap_config+0x5a>
 8000baa:	02c2      	lsls	r2, r0, #11
 8000bac:	d514      	bpl.n	8000bd8 <gpio_pin_remap_config+0x48>
 8000bae:	f3c0 4403 	ubfx	r4, r0, #16, #4
 8000bb2:	2203      	movs	r2, #3
 8000bb4:	40a2      	lsls	r2, r4
 8000bb6:	ea23 0302 	bic.w	r3, r3, r2
 8000bba:	f043 63e0 	orr.w	r3, r3, #117440512	; 0x7000000
 8000bbe:	b121      	cbz	r1, 8000bca <gpio_pin_remap_config+0x3a>
 8000bc0:	0d42      	lsrs	r2, r0, #21
 8000bc2:	0112      	lsls	r2, r2, #4
 8000bc4:	fa0c f202 	lsl.w	r2, ip, r2
 8000bc8:	4313      	orrs	r3, r2
 8000bca:	4a0c      	ldr	r2, [pc, #48]	; (8000bfc <gpio_pin_remap_config+0x6c>)
 8000bcc:	bc10      	pop	{r4}
 8000bce:	2800      	cmp	r0, #0
 8000bd0:	bfb4      	ite	lt
 8000bd2:	61d3      	strlt	r3, [r2, #28]
 8000bd4:	6053      	strge	r3, [r2, #4]
 8000bd6:	4770      	bx	lr
 8000bd8:	0d42      	lsrs	r2, r0, #21
 8000bda:	0112      	lsls	r2, r2, #4
 8000bdc:	fa0c f202 	lsl.w	r2, ip, r2
 8000be0:	ea23 0302 	bic.w	r3, r3, r2
 8000be4:	f043 63e0 	orr.w	r3, r3, #117440512	; 0x7000000
 8000be8:	e7e9      	b.n	8000bbe <gpio_pin_remap_config+0x2e>
 8000bea:	4c04      	ldr	r4, [pc, #16]	; (8000bfc <gpio_pin_remap_config+0x6c>)
 8000bec:	6862      	ldr	r2, [r4, #4]
 8000bee:	f022 62e0 	bic.w	r2, r2, #117440512	; 0x7000000
 8000bf2:	f023 63e0 	bic.w	r3, r3, #117440512	; 0x7000000
 8000bf6:	6062      	str	r2, [r4, #4]
 8000bf8:	e7e1      	b.n	8000bbe <gpio_pin_remap_config+0x2e>
 8000bfa:	bf00      	nop
 8000bfc:	0000      	movs	r0, r0
 8000bfe:	4001      	ands	r1, r0

08000c00 <gpio_exti_source_select>:
 8000c00:	f001 0303 	and.w	r3, r1, #3
 8000c04:	009b      	lsls	r3, r3, #2
 8000c06:	220f      	movs	r2, #15
 8000c08:	2903      	cmp	r1, #3
 8000c0a:	fa02 fc03 	lsl.w	ip, r2, r3
 8000c0e:	d809      	bhi.n	8000c24 <gpio_exti_source_select+0x24>
 8000c10:	4a15      	ldr	r2, [pc, #84]	; (8000c68 <gpio_exti_source_select+0x68>)
 8000c12:	4098      	lsls	r0, r3
 8000c14:	6893      	ldr	r3, [r2, #8]
 8000c16:	ea23 030c 	bic.w	r3, r3, ip
 8000c1a:	6093      	str	r3, [r2, #8]
 8000c1c:	6893      	ldr	r3, [r2, #8]
 8000c1e:	4318      	orrs	r0, r3
 8000c20:	6090      	str	r0, [r2, #8]
 8000c22:	4770      	bx	lr
 8000c24:	2907      	cmp	r1, #7
 8000c26:	d809      	bhi.n	8000c3c <gpio_exti_source_select+0x3c>
 8000c28:	490f      	ldr	r1, [pc, #60]	; (8000c68 <gpio_exti_source_select+0x68>)
 8000c2a:	4098      	lsls	r0, r3
 8000c2c:	68cb      	ldr	r3, [r1, #12]
 8000c2e:	ea23 030c 	bic.w	r3, r3, ip
 8000c32:	60cb      	str	r3, [r1, #12]
 8000c34:	68cb      	ldr	r3, [r1, #12]
 8000c36:	4318      	orrs	r0, r3
 8000c38:	60c8      	str	r0, [r1, #12]
 8000c3a:	4770      	bx	lr
 8000c3c:	290b      	cmp	r1, #11
 8000c3e:	fa00 f003 	lsl.w	r0, r0, r3
 8000c42:	4909      	ldr	r1, [pc, #36]	; (8000c68 <gpio_exti_source_select+0x68>)
 8000c44:	d807      	bhi.n	8000c56 <gpio_exti_source_select+0x56>
 8000c46:	690b      	ldr	r3, [r1, #16]
 8000c48:	ea23 030c 	bic.w	r3, r3, ip
 8000c4c:	610b      	str	r3, [r1, #16]
 8000c4e:	690b      	ldr	r3, [r1, #16]
 8000c50:	4318      	orrs	r0, r3
 8000c52:	6108      	str	r0, [r1, #16]
 8000c54:	4770      	bx	lr
 8000c56:	694b      	ldr	r3, [r1, #20]
 8000c58:	ea23 030c 	bic.w	r3, r3, ip
 8000c5c:	614b      	str	r3, [r1, #20]
 8000c5e:	694b      	ldr	r3, [r1, #20]
 8000c60:	4318      	orrs	r0, r3
 8000c62:	6148      	str	r0, [r1, #20]
 8000c64:	4770      	bx	lr
 8000c66:	bf00      	nop
 8000c68:	0000      	movs	r0, r0
 8000c6a:	4001      	ands	r1, r0

08000c6c <nvic_priority_group_set>:
 8000c6c:	4b03      	ldr	r3, [pc, #12]	; (8000c7c <nvic_priority_group_set+0x10>)
 8000c6e:	f040 60bf 	orr.w	r0, r0, #100139008	; 0x5f80000
 8000c72:	f440 3000 	orr.w	r0, r0, #131072	; 0x20000
 8000c76:	60d8      	str	r0, [r3, #12]
 8000c78:	4770      	bx	lr
 8000c7a:	bf00      	nop
 8000c7c:	ed00 e000 	stc	0, cr14, [r0, #-0]

08000c80 <nvic_irq_enable>:
 8000c80:	4b23      	ldr	r3, [pc, #140]	; (8000d10 <nvic_irq_enable+0x90>)
 8000c82:	b410      	push	{r4}
 8000c84:	68dc      	ldr	r4, [r3, #12]
 8000c86:	f404 64e0 	and.w	r4, r4, #1792	; 0x700
 8000c8a:	f5b4 6fe0 	cmp.w	r4, #1792	; 0x700
 8000c8e:	d033      	beq.n	8000cf8 <nvic_irq_enable+0x78>
 8000c90:	68dc      	ldr	r4, [r3, #12]
 8000c92:	f404 64e0 	and.w	r4, r4, #1792	; 0x700
 8000c96:	f5b4 6fc0 	cmp.w	r4, #1536	; 0x600
 8000c9a:	d017      	beq.n	8000ccc <nvic_irq_enable+0x4c>
 8000c9c:	68dc      	ldr	r4, [r3, #12]
 8000c9e:	f404 64e0 	and.w	r4, r4, #1792	; 0x700
 8000ca2:	f5b4 6fa0 	cmp.w	r4, #1280	; 0x500
 8000ca6:	d00d      	beq.n	8000cc4 <nvic_irq_enable+0x44>
 8000ca8:	68dc      	ldr	r4, [r3, #12]
 8000caa:	f404 64e0 	and.w	r4, r4, #1792	; 0x700
 8000cae:	f5b4 6f80 	cmp.w	r4, #1024	; 0x400
 8000cb2:	d025      	beq.n	8000d00 <nvic_irq_enable+0x80>
 8000cb4:	68dc      	ldr	r4, [r3, #12]
 8000cb6:	f404 64e0 	and.w	r4, r4, #1792	; 0x700
 8000cba:	f5b4 7f40 	cmp.w	r4, #768	; 0x300
 8000cbe:	d023      	beq.n	8000d08 <nvic_irq_enable+0x88>
 8000cc0:	4c14      	ldr	r4, [pc, #80]	; (8000d14 <nvic_irq_enable+0x94>)
 8000cc2:	60dc      	str	r4, [r3, #12]
 8000cc4:	f002 0203 	and.w	r2, r2, #3
 8000cc8:	2302      	movs	r3, #2
 8000cca:	e002      	b.n	8000cd2 <nvic_irq_enable+0x52>
 8000ccc:	f002 0207 	and.w	r2, r2, #7
 8000cd0:	2303      	movs	r3, #3
 8000cd2:	4c11      	ldr	r4, [pc, #68]	; (8000d18 <nvic_irq_enable+0x98>)
 8000cd4:	fa01 f303 	lsl.w	r3, r1, r3
 8000cd8:	4313      	orrs	r3, r2
 8000cda:	1821      	adds	r1, r4, r0
 8000cdc:	011b      	lsls	r3, r3, #4
 8000cde:	b2db      	uxtb	r3, r3
 8000ce0:	f881 3300 	strb.w	r3, [r1, #768]	; 0x300
 8000ce4:	0942      	lsrs	r2, r0, #5
 8000ce6:	2301      	movs	r3, #1
 8000ce8:	f000 001f 	and.w	r0, r0, #31
 8000cec:	fa03 f000 	lsl.w	r0, r3, r0
 8000cf0:	f844 0022 	str.w	r0, [r4, r2, lsl #2]
 8000cf4:	bc10      	pop	{r4}
 8000cf6:	4770      	bx	lr
 8000cf8:	f002 020f 	and.w	r2, r2, #15
 8000cfc:	2304      	movs	r3, #4
 8000cfe:	e7e8      	b.n	8000cd2 <nvic_irq_enable+0x52>
 8000d00:	f002 0201 	and.w	r2, r2, #1
 8000d04:	2301      	movs	r3, #1
 8000d06:	e7e4      	b.n	8000cd2 <nvic_irq_enable+0x52>
 8000d08:	2200      	movs	r2, #0
 8000d0a:	4613      	mov	r3, r2
 8000d0c:	e7e1      	b.n	8000cd2 <nvic_irq_enable+0x52>
 8000d0e:	bf00      	nop
 8000d10:	ed00 e000 	stc	0, cr14, [r0, #-0]
 8000d14:	0500      	lsls	r0, r0, #20
 8000d16:	05fa      	lsls	r2, r7, #23
 8000d18:	e100      	b.n	8000f1c <rcu_clock_freq_get+0x40>
 8000d1a:	e000      	b.n	8000d1e <nvic_irq_disable+0x2>

08000d1c <nvic_irq_disable>:
 8000d1c:	0943      	lsrs	r3, r0, #5
 8000d1e:	4905      	ldr	r1, [pc, #20]	; (8000d34 <nvic_irq_disable+0x18>)
 8000d20:	f000 001f 	and.w	r0, r0, #31
 8000d24:	2201      	movs	r2, #1
 8000d26:	3320      	adds	r3, #32
 8000d28:	fa02 f000 	lsl.w	r0, r2, r0
 8000d2c:	f841 0023 	str.w	r0, [r1, r3, lsl #2]
 8000d30:	4770      	bx	lr
 8000d32:	bf00      	nop
 8000d34:	e100      	b.n	8000f38 <rcu_clock_freq_get+0x5c>
 8000d36:	e000      	b.n	8000d3a <pmu_deinit+0x2>

08000d38 <pmu_deinit>:
 8000d38:	b510      	push	{r4, lr}
 8000d3a:	4b05      	ldr	r3, [pc, #20]	; (8000d50 <pmu_deinit+0x18>)
 8000d3c:	f240 401c 	movw	r0, #1052	; 0x41c
 8000d40:	4798      	blx	r3
 8000d42:	e8bd 4010 	ldmia.w	sp!, {r4, lr}
 8000d46:	4b03      	ldr	r3, [pc, #12]	; (8000d54 <pmu_deinit+0x1c>)
 8000d48:	f240 401c 	movw	r0, #1052	; 0x41c
 8000d4c:	4718      	bx	r3
 8000d4e:	bf00      	nop
 8000d50:	0e39      	lsrs	r1, r7, #24
 8000d52:	0800      	lsrs	r0, r0, #32
 8000d54:	0e55      	lsrs	r5, r2, #25
 8000d56:	0800      	lsrs	r0, r0, #32

08000d58 <pmu_to_deepsleepmode>:
 8000d58:	4b2a      	ldr	r3, [pc, #168]	; (8000e04 <pmu_to_deepsleepmode+0xac>)
 8000d5a:	b430      	push	{r4, r5}
 8000d5c:	681d      	ldr	r5, [r3, #0]
 8000d5e:	4c2a      	ldr	r4, [pc, #168]	; (8000e08 <pmu_to_deepsleepmode+0xb0>)
 8000d60:	402c      	ands	r4, r5
 8000d62:	601c      	str	r4, [r3, #0]
 8000d64:	681c      	ldr	r4, [r3, #0]
 8000d66:	f5b1 2f40 	cmp.w	r1, #786432	; 0xc0000
 8000d6a:	ea44 0400 	orr.w	r4, r4, r0
 8000d6e:	601c      	str	r4, [r3, #0]
 8000d70:	d03b      	beq.n	8000dea <pmu_to_deepsleepmode+0x92>
 8000d72:	4c26      	ldr	r4, [pc, #152]	; (8000e0c <pmu_to_deepsleepmode+0xb4>)
 8000d74:	4926      	ldr	r1, [pc, #152]	; (8000e10 <pmu_to_deepsleepmode+0xb8>)
 8000d76:	6920      	ldr	r0, [r4, #16]
 8000d78:	f04f 23e0 	mov.w	r3, #3758153728	; 0xe000e000
 8000d7c:	f040 0004 	orr.w	r0, r0, #4
 8000d80:	6120      	str	r0, [r4, #16]
 8000d82:	6918      	ldr	r0, [r3, #16]
 8000d84:	6008      	str	r0, [r1, #0]
 8000d86:	f8d3 4100 	ldr.w	r4, [r3, #256]	; 0x100
 8000d8a:	f8d3 5104 	ldr.w	r5, [r3, #260]	; 0x104
 8000d8e:	4821      	ldr	r0, [pc, #132]	; (8000e14 <pmu_to_deepsleepmode+0xbc>)
 8000d90:	e9c1 4501 	strd	r4, r5, [r1, #4]
 8000d94:	f8d3 4108 	ldr.w	r4, [r3, #264]	; 0x108
 8000d98:	60cc      	str	r4, [r1, #12]
 8000d9a:	691c      	ldr	r4, [r3, #16]
 8000d9c:	4020      	ands	r0, r4
 8000d9e:	4c1e      	ldr	r4, [pc, #120]	; (8000e18 <pmu_to_deepsleepmode+0xc0>)
 8000da0:	6118      	str	r0, [r3, #16]
 8000da2:	f8c3 4180 	str.w	r4, [r3, #384]	; 0x180
 8000da6:	f04f 30ff 	mov.w	r0, #4294967295
 8000daa:	f46f 64e0 	mvn.w	r4, #1792	; 0x700
 8000dae:	f8c3 4184 	str.w	r4, [r3, #388]	; 0x184
 8000db2:	f8c3 0188 	str.w	r0, [r3, #392]	; 0x188
 8000db6:	b9a2      	cbnz	r2, 8000de2 <pmu_to_deepsleepmode+0x8a>
 8000db8:	bf30      	wfi
 8000dba:	f04f 23e0 	mov.w	r3, #3758153728	; 0xe000e000
 8000dbe:	6808      	ldr	r0, [r1, #0]
 8000dc0:	684c      	ldr	r4, [r1, #4]
 8000dc2:	6118      	str	r0, [r3, #16]
 8000dc4:	e9d1 0102 	ldrd	r0, r1, [r1, #8]
 8000dc8:	4a10      	ldr	r2, [pc, #64]	; (8000e0c <pmu_to_deepsleepmode+0xb4>)
 8000dca:	f8c3 4100 	str.w	r4, [r3, #256]	; 0x100
 8000dce:	f8c3 0104 	str.w	r0, [r3, #260]	; 0x104
 8000dd2:	f8c3 1108 	str.w	r1, [r3, #264]	; 0x108
 8000dd6:	6913      	ldr	r3, [r2, #16]
 8000dd8:	f023 0304 	bic.w	r3, r3, #4
 8000ddc:	bc30      	pop	{r4, r5}
 8000dde:	6113      	str	r3, [r2, #16]
 8000de0:	4770      	bx	lr
 8000de2:	bf40      	sev
 8000de4:	bf20      	wfe
 8000de6:	bf20      	wfe
 8000de8:	e7e7      	b.n	8000dba <pmu_to_deepsleepmode+0x62>
 8000dea:	6819      	ldr	r1, [r3, #0]
 8000dec:	f441 2140 	orr.w	r1, r1, #786432	; 0xc0000
 8000df0:	b918      	cbnz	r0, 8000dfa <pmu_to_deepsleepmode+0xa2>
 8000df2:	f441 6100 	orr.w	r1, r1, #2048	; 0x800
 8000df6:	6019      	str	r1, [r3, #0]
 8000df8:	e7bb      	b.n	8000d72 <pmu_to_deepsleepmode+0x1a>
 8000dfa:	f441 6180 	orr.w	r1, r1, #1024	; 0x400
 8000dfe:	6019      	str	r1, [r3, #0]
 8000e00:	e7b7      	b.n	8000d72 <pmu_to_deepsleepmode+0x1a>
 8000e02:	bf00      	nop
 8000e04:	7000      	strb	r0, [r0, #0]
 8000e06:	4000      	ands	r0, r0
 8000e08:	f3fc fff3 	bl	83fddf2 <_sidata+0x3f52de>
 8000e0c:	ed00 e000 	stc	0, cr14, [r0, #-0]
 8000e10:	0d5c      	lsrs	r4, r3, #21
 8000e12:	2000      	movs	r0, #0
 8000e14:	0004      	movs	r4, r0
 8000e16:	0001      	movs	r1, r0
 8000e18:	f83d ff7f 	pldw	[sp, #127]!

08000e1c <rcu_periph_clock_enable>:
 8000e1c:	0983      	lsrs	r3, r0, #6
 8000e1e:	f103 4380 	add.w	r3, r3, #1073741824	; 0x40000000
 8000e22:	f503 3304 	add.w	r3, r3, #135168	; 0x21000
 8000e26:	f000 001f 	and.w	r0, r0, #31
 8000e2a:	6819      	ldr	r1, [r3, #0]
 8000e2c:	2201      	movs	r2, #1
 8000e2e:	fa02 f000 	lsl.w	r0, r2, r0
 8000e32:	4308      	orrs	r0, r1
 8000e34:	6018      	str	r0, [r3, #0]
 8000e36:	4770      	bx	lr

08000e38 <rcu_periph_reset_enable>:
 8000e38:	0983      	lsrs	r3, r0, #6
 8000e3a:	f103 4380 	add.w	r3, r3, #1073741824	; 0x40000000
 8000e3e:	f503 3304 	add.w	r3, r3, #135168	; 0x21000
 8000e42:	f000 001f 	and.w	r0, r0, #31
 8000e46:	6819      	ldr	r1, [r3, #0]
 8000e48:	2201      	movs	r2, #1
 8000e4a:	fa02 f000 	lsl.w	r0, r2, r0
 8000e4e:	4308      	orrs	r0, r1
 8000e50:	6018      	str	r0, [r3, #0]
 8000e52:	4770      	bx	lr

08000e54 <rcu_periph_reset_disable>:
 8000e54:	0983      	lsrs	r3, r0, #6
 8000e56:	f103 4380 	add.w	r3, r3, #1073741824	; 0x40000000
 8000e5a:	f503 3304 	add.w	r3, r3, #135168	; 0x21000
 8000e5e:	f000 001f 	and.w	r0, r0, #31
 8000e62:	681a      	ldr	r2, [r3, #0]
 8000e64:	2101      	movs	r1, #1
 8000e66:	fa01 f000 	lsl.w	r0, r1, r0
 8000e6a:	ea22 0000 	bic.w	r0, r2, r0
 8000e6e:	6018      	str	r0, [r3, #0]
 8000e70:	4770      	bx	lr
 8000e72:	bf00      	nop

08000e74 <rcu_system_clock_source_config>:
 8000e74:	4a03      	ldr	r2, [pc, #12]	; (8000e84 <rcu_system_clock_source_config+0x10>)
 8000e76:	6853      	ldr	r3, [r2, #4]
 8000e78:	f023 0303 	bic.w	r3, r3, #3
 8000e7c:	4303      	orrs	r3, r0
 8000e7e:	6053      	str	r3, [r2, #4]
 8000e80:	4770      	bx	lr
 8000e82:	bf00      	nop
 8000e84:	1000      	asrs	r0, r0, #32
 8000e86:	4002      	ands	r2, r0

08000e88 <rcu_system_clock_source_get>:
 8000e88:	4b02      	ldr	r3, [pc, #8]	; (8000e94 <rcu_system_clock_source_get+0xc>)
 8000e8a:	6858      	ldr	r0, [r3, #4]
 8000e8c:	f000 000c 	and.w	r0, r0, #12
 8000e90:	4770      	bx	lr
 8000e92:	bf00      	nop
 8000e94:	1000      	asrs	r0, r0, #32
 8000e96:	4002      	ands	r2, r0

08000e98 <rcu_usb_clock_config>:
 8000e98:	4a03      	ldr	r2, [pc, #12]	; (8000ea8 <rcu_usb_clock_config+0x10>)
 8000e9a:	6853      	ldr	r3, [r2, #4]
 8000e9c:	f423 0340 	bic.w	r3, r3, #12582912	; 0xc00000
 8000ea0:	4303      	orrs	r3, r0
 8000ea2:	6053      	str	r3, [r2, #4]
 8000ea4:	4770      	bx	lr
 8000ea6:	bf00      	nop
 8000ea8:	1000      	asrs	r0, r0, #32
 8000eaa:	4002      	ands	r2, r0

08000eac <rcu_rtc_clock_config>:
 8000eac:	4a03      	ldr	r2, [pc, #12]	; (8000ebc <rcu_rtc_clock_config+0x10>)
 8000eae:	6a13      	ldr	r3, [r2, #32]
 8000eb0:	f423 7340 	bic.w	r3, r3, #768	; 0x300
 8000eb4:	4303      	orrs	r3, r0
 8000eb6:	6213      	str	r3, [r2, #32]
 8000eb8:	4770      	bx	lr
 8000eba:	bf00      	nop
 8000ebc:	1000      	asrs	r0, r0, #32
 8000ebe:	4002      	ands	r2, r0

08000ec0 <rcu_osci_on>:
 8000ec0:	0983      	lsrs	r3, r0, #6
 8000ec2:	f103 4380 	add.w	r3, r3, #1073741824	; 0x40000000
 8000ec6:	f503 3304 	add.w	r3, r3, #135168	; 0x21000
 8000eca:	f000 001f 	and.w	r0, r0, #31
 8000ece:	6819      	ldr	r1, [r3, #0]
 8000ed0:	2201      	movs	r2, #1
 8000ed2:	fa02 f000 	lsl.w	r0, r2, r0
 8000ed6:	4308      	orrs	r0, r1
 8000ed8:	6018      	str	r0, [r3, #0]
 8000eda:	4770      	bx	lr

08000edc <rcu_clock_freq_get>:
 8000edc:	b510      	push	{r4, lr}
 8000ede:	4c4c      	ldr	r4, [pc, #304]	; (8001010 <rcu_clock_freq_get+0x134>)
 8000ee0:	4684      	mov	ip, r0
 8000ee2:	e894 000f 	ldmia.w	r4, {r0, r1, r2, r3}
 8000ee6:	b088      	sub	sp, #32
 8000ee8:	f10d 0e20 	add.w	lr, sp, #32
 8000eec:	3410      	adds	r4, #16
 8000eee:	e90e 000f 	stmdb	lr, {r0, r1, r2, r3}
 8000ef2:	e894 0003 	ldmia.w	r4, {r0, r1}
 8000ef6:	466b      	mov	r3, sp
 8000ef8:	e883 0003 	stmia.w	r3, {r0, r1}
 8000efc:	ab02      	add	r3, sp, #8
 8000efe:	e883 0003 	stmia.w	r3, {r0, r1}
 8000f02:	4a44      	ldr	r2, [pc, #272]	; (8001014 <rcu_clock_freq_get+0x138>)
 8000f04:	6853      	ldr	r3, [r2, #4]
 8000f06:	f3c3 0381 	ubfx	r3, r3, #2, #2
 8000f0a:	2b01      	cmp	r3, #1
 8000f0c:	d040      	beq.n	8000f90 <rcu_clock_freq_get+0xb4>
 8000f0e:	2b02      	cmp	r3, #2
 8000f10:	d115      	bne.n	8000f3e <rcu_clock_freq_get+0x62>
 8000f12:	6853      	ldr	r3, [r2, #4]
 8000f14:	03d9      	lsls	r1, r3, #15
 8000f16:	d43d      	bmi.n	8000f94 <rcu_clock_freq_get+0xb8>
 8000f18:	483f      	ldr	r0, [pc, #252]	; (8001018 <rcu_clock_freq_get+0x13c>)
 8000f1a:	4a3e      	ldr	r2, [pc, #248]	; (8001014 <rcu_clock_freq_get+0x138>)
 8000f1c:	6853      	ldr	r3, [r2, #4]
 8000f1e:	6851      	ldr	r1, [r2, #4]
 8000f20:	6852      	ldr	r2, [r2, #4]
 8000f22:	008c      	lsls	r4, r1, #2
 8000f24:	f3c3 4383 	ubfx	r3, r3, #18, #4
 8000f28:	d556      	bpl.n	8000fd8 <rcu_clock_freq_get+0xfc>
 8000f2a:	0051      	lsls	r1, r2, #1
 8000f2c:	d56a      	bpl.n	8001004 <rcu_clock_freq_get+0x128>
 8000f2e:	f043 0330 	orr.w	r3, r3, #48	; 0x30
 8000f32:	2b3f      	cmp	r3, #63	; 0x3f
 8000f34:	bf08      	it	eq
 8000f36:	ebc0 1080 	rsbeq	r0, r0, r0, lsl #6
 8000f3a:	d001      	beq.n	8000f40 <rcu_clock_freq_get+0x64>
 8000f3c:	e050      	b.n	8000fe0 <rcu_clock_freq_get+0x104>
 8000f3e:	4837      	ldr	r0, [pc, #220]	; (800101c <rcu_clock_freq_get+0x140>)
 8000f40:	4b34      	ldr	r3, [pc, #208]	; (8001014 <rcu_clock_freq_get+0x138>)
 8000f42:	6859      	ldr	r1, [r3, #4]
 8000f44:	685a      	ldr	r2, [r3, #4]
 8000f46:	685b      	ldr	r3, [r3, #4]
 8000f48:	ac08      	add	r4, sp, #32
 8000f4a:	f3c1 1103 	ubfx	r1, r1, #4, #4
 8000f4e:	4421      	add	r1, r4
 8000f50:	f3c2 2202 	ubfx	r2, r2, #8, #3
 8000f54:	f3c3 23c2 	ubfx	r3, r3, #11, #3
 8000f58:	f811 1c10 	ldrb.w	r1, [r1, #-16]
 8000f5c:	4422      	add	r2, r4
 8000f5e:	4423      	add	r3, r4
 8000f60:	f812 2c20 	ldrb.w	r2, [r2, #-32]
 8000f64:	f813 3c18 	ldrb.w	r3, [r3, #-24]
 8000f68:	fa20 f101 	lsr.w	r1, r0, r1
 8000f6c:	f1bc 0f03 	cmp.w	ip, #3
 8000f70:	d84b      	bhi.n	800100a <rcu_clock_freq_get+0x12e>
 8000f72:	e8df f00c 	tbb	[pc, ip]
 8000f76:	0a04      	lsrs	r4, r0, #8
 8000f78:	0206      	lsls	r6, r0, #8
 8000f7a:	fa21 f003 	lsr.w	r0, r1, r3
 8000f7e:	b008      	add	sp, #32
 8000f80:	bd10      	pop	{r4, pc}
 8000f82:	fa21 f002 	lsr.w	r0, r1, r2
 8000f86:	b008      	add	sp, #32
 8000f88:	bd10      	pop	{r4, pc}
 8000f8a:	4608      	mov	r0, r1
 8000f8c:	b008      	add	sp, #32
 8000f8e:	bd10      	pop	{r4, pc}
 8000f90:	4823      	ldr	r0, [pc, #140]	; (8001020 <rcu_clock_freq_get+0x144>)
 8000f92:	e7d5      	b.n	8000f40 <rcu_clock_freq_get+0x64>
 8000f94:	6ad3      	ldr	r3, [r2, #44]	; 0x2c
 8000f96:	4923      	ldr	r1, [pc, #140]	; (8001024 <rcu_clock_freq_get+0x148>)
 8000f98:	4821      	ldr	r0, [pc, #132]	; (8001020 <rcu_clock_freq_get+0x144>)
 8000f9a:	f013 4f80 	tst.w	r3, #1073741824	; 0x40000000
 8000f9e:	6ad3      	ldr	r3, [r2, #44]	; 0x2c
 8000fa0:	bf18      	it	ne
 8000fa2:	4608      	movne	r0, r1
 8000fa4:	03db      	lsls	r3, r3, #15
 8000fa6:	d50f      	bpl.n	8000fc8 <rcu_clock_freq_get+0xec>
 8000fa8:	6ad1      	ldr	r1, [r2, #44]	; 0x2c
 8000faa:	6ad3      	ldr	r3, [r2, #44]	; 0x2c
 8000fac:	f3c3 2303 	ubfx	r3, r3, #8, #4
 8000fb0:	2b0f      	cmp	r3, #15
 8000fb2:	f3c1 1203 	ubfx	r2, r1, #4, #4
 8000fb6:	f103 0302 	add.w	r3, r3, #2
 8000fba:	bf08      	it	eq
 8000fbc:	2314      	moveq	r3, #20
 8000fbe:	3201      	adds	r2, #1
 8000fc0:	fbb0 f0f2 	udiv	r0, r0, r2
 8000fc4:	fb03 f000 	mul.w	r0, r3, r0
 8000fc8:	4b12      	ldr	r3, [pc, #72]	; (8001014 <rcu_clock_freq_get+0x138>)
 8000fca:	6adb      	ldr	r3, [r3, #44]	; 0x2c
 8000fcc:	f003 030f 	and.w	r3, r3, #15
 8000fd0:	3301      	adds	r3, #1
 8000fd2:	fbb0 f0f3 	udiv	r0, r0, r3
 8000fd6:	e7a0      	b.n	8000f1a <rcu_clock_freq_get+0x3e>
 8000fd8:	0052      	lsls	r2, r2, #1
 8000fda:	d504      	bpl.n	8000fe6 <rcu_clock_freq_get+0x10a>
 8000fdc:	f043 0320 	orr.w	r3, r3, #32
 8000fe0:	fb03 0000 	mla	r0, r3, r0, r0
 8000fe4:	e7ac      	b.n	8000f40 <rcu_clock_freq_get+0x64>
 8000fe6:	2b0f      	cmp	r3, #15
 8000fe8:	d0fa      	beq.n	8000fe0 <rcu_clock_freq_get+0x104>
 8000fea:	2b0d      	cmp	r3, #13
 8000fec:	f103 0202 	add.w	r2, r3, #2
 8000ff0:	d105      	bne.n	8000ffe <rcu_clock_freq_get+0x122>
 8000ff2:	eb00 0340 	add.w	r3, r0, r0, lsl #1
 8000ff6:	0840      	lsrs	r0, r0, #1
 8000ff8:	eb00 0043 	add.w	r0, r0, r3, lsl #1
 8000ffc:	e7a0      	b.n	8000f40 <rcu_clock_freq_get+0x64>
 8000ffe:	fb02 f000 	mul.w	r0, r2, r0
 8001002:	e79d      	b.n	8000f40 <rcu_clock_freq_get+0x64>
 8001004:	f043 0310 	orr.w	r3, r3, #16
 8001008:	e7ea      	b.n	8000fe0 <rcu_clock_freq_get+0x104>
 800100a:	2000      	movs	r0, #0
 800100c:	e7b7      	b.n	8000f7e <rcu_clock_freq_get+0xa2>
 800100e:	bf00      	nop
 8001010:	74f4      	strb	r4, [r6, #19]
 8001012:	0800      	lsrs	r0, r0, #32
 8001014:	1000      	asrs	r0, r0, #32
 8001016:	4002      	ands	r2, r0
 8001018:	0900      	lsrs	r0, r0, #4
 800101a:	003d      	movs	r5, r7
 800101c:	1200      	asrs	r0, r0, #8
 800101e:	007a      	lsls	r2, r7, #1
 8001020:	1b00      	subs	r0, r0, r4
 8001022:	00b7      	lsls	r7, r6, #2
 8001024:	6c00      	ldr	r0, [r0, #64]	; 0x40
 8001026:	02dc      	lsls	r4, r3, #11

08001028 <rcu_flag_get>:
 8001028:	0983      	lsrs	r3, r0, #6
 800102a:	f103 4380 	add.w	r3, r3, #1073741824	; 0x40000000
 800102e:	f503 3304 	add.w	r3, r3, #135168	; 0x21000
 8001032:	f000 001f 	and.w	r0, r0, #31
 8001036:	681b      	ldr	r3, [r3, #0]
 8001038:	fa23 f000 	lsr.w	r0, r3, r0
 800103c:	f000 0001 	and.w	r0, r0, #1
 8001040:	4770      	bx	lr
 8001042:	bf00      	nop

08001044 <spi_i2s_deinit>:
 8001044:	4b15      	ldr	r3, [pc, #84]	; (800109c <spi_i2s_deinit+0x58>)
 8001046:	4298      	cmp	r0, r3
 8001048:	b510      	push	{r4, lr}
 800104a:	d008      	beq.n	800105e <spi_i2s_deinit+0x1a>
 800104c:	f503 4374 	add.w	r3, r3, #62464	; 0xf400
 8001050:	4298      	cmp	r0, r3
 8001052:	d018      	beq.n	8001086 <spi_i2s_deinit+0x42>
 8001054:	f5a3 4378 	sub.w	r3, r3, #63488	; 0xf800
 8001058:	4298      	cmp	r0, r3
 800105a:	d00a      	beq.n	8001072 <spi_i2s_deinit+0x2e>
 800105c:	bd10      	pop	{r4, pc}
 800105e:	4b10      	ldr	r3, [pc, #64]	; (80010a0 <spi_i2s_deinit+0x5c>)
 8001060:	f240 400f 	movw	r0, #1039	; 0x40f
 8001064:	4798      	blx	r3
 8001066:	e8bd 4010 	ldmia.w	sp!, {r4, lr}
 800106a:	4b0e      	ldr	r3, [pc, #56]	; (80010a4 <spi_i2s_deinit+0x60>)
 800106c:	f240 400f 	movw	r0, #1039	; 0x40f
 8001070:	4718      	bx	r3
 8001072:	4b0b      	ldr	r3, [pc, #44]	; (80010a0 <spi_i2s_deinit+0x5c>)
 8001074:	f240 400e 	movw	r0, #1038	; 0x40e
 8001078:	4798      	blx	r3
 800107a:	e8bd 4010 	ldmia.w	sp!, {r4, lr}
 800107e:	4b09      	ldr	r3, [pc, #36]	; (80010a4 <spi_i2s_deinit+0x60>)
 8001080:	f240 400e 	movw	r0, #1038	; 0x40e
 8001084:	4718      	bx	r3
 8001086:	4b06      	ldr	r3, [pc, #24]	; (80010a0 <spi_i2s_deinit+0x5c>)
 8001088:	f44f 7043 	mov.w	r0, #780	; 0x30c
 800108c:	4798      	blx	r3
 800108e:	e8bd 4010 	ldmia.w	sp!, {r4, lr}
 8001092:	4b04      	ldr	r3, [pc, #16]	; (80010a4 <spi_i2s_deinit+0x60>)
 8001094:	f44f 7043 	mov.w	r0, #780	; 0x30c
 8001098:	4718      	bx	r3
 800109a:	bf00      	nop
 800109c:	3c00      	subs	r4, #0
 800109e:	4000      	ands	r0, r0
 80010a0:	0e39      	lsrs	r1, r7, #24
 80010a2:	0800      	lsrs	r0, r0, #32
 80010a4:	0e55      	lsrs	r5, r2, #25
 80010a6:	0800      	lsrs	r0, r0, #32

080010a8 <spi_init>:
 80010a8:	b410      	push	{r4}
 80010aa:	e9d1 3400 	ldrd	r3, r4, [r1]
 80010ae:	688a      	ldr	r2, [r1, #8]
 80010b0:	4323      	orrs	r3, r4
 80010b2:	4313      	orrs	r3, r2
 80010b4:	e9d1 2403 	ldrd	r2, r4, [r1, #12]
 80010b8:	4313      	orrs	r3, r2
 80010ba:	4323      	orrs	r3, r4
 80010bc:	e9d1 4105 	ldrd	r4, r1, [r1, #20]
 80010c0:	6802      	ldr	r2, [r0, #0]
 80010c2:	4323      	orrs	r3, r4
 80010c4:	f402 5241 	and.w	r2, r2, #12352	; 0x3040
 80010c8:	430b      	orrs	r3, r1
 80010ca:	4313      	orrs	r3, r2
 80010cc:	6003      	str	r3, [r0, #0]
 80010ce:	69c3      	ldr	r3, [r0, #28]
 80010d0:	bc10      	pop	{r4}
 80010d2:	f423 6300 	bic.w	r3, r3, #2048	; 0x800
 80010d6:	61c3      	str	r3, [r0, #28]
 80010d8:	4770      	bx	lr
 80010da:	bf00      	nop

080010dc <spi_enable>:
 80010dc:	6803      	ldr	r3, [r0, #0]
 80010de:	f043 0340 	orr.w	r3, r3, #64	; 0x40
 80010e2:	6003      	str	r3, [r0, #0]
 80010e4:	4770      	bx	lr
 80010e6:	bf00      	nop

080010e8 <spi_disable>:
 80010e8:	6803      	ldr	r3, [r0, #0]
 80010ea:	f023 0340 	bic.w	r3, r3, #64	; 0x40
 80010ee:	6003      	str	r3, [r0, #0]
 80010f0:	4770      	bx	lr
 80010f2:	bf00      	nop

080010f4 <spi_i2s_data_transmit>:
 80010f4:	60c1      	str	r1, [r0, #12]
 80010f6:	4770      	bx	lr

080010f8 <spi_i2s_data_receive>:
 80010f8:	68c0      	ldr	r0, [r0, #12]
 80010fa:	b280      	uxth	r0, r0
 80010fc:	4770      	bx	lr
 80010fe:	bf00      	nop

08001100 <spi_i2s_interrupt_enable>:
 8001100:	2901      	cmp	r1, #1
 8001102:	d003      	beq.n	800110c <spi_i2s_interrupt_enable+0xc>
 8001104:	2902      	cmp	r1, #2
 8001106:	d00b      	beq.n	8001120 <spi_i2s_interrupt_enable+0x20>
 8001108:	b129      	cbz	r1, 8001116 <spi_i2s_interrupt_enable+0x16>
 800110a:	4770      	bx	lr
 800110c:	6843      	ldr	r3, [r0, #4]
 800110e:	f043 0340 	orr.w	r3, r3, #64	; 0x40
 8001112:	6043      	str	r3, [r0, #4]
 8001114:	4770      	bx	lr
 8001116:	6843      	ldr	r3, [r0, #4]
 8001118:	f043 0380 	orr.w	r3, r3, #128	; 0x80
 800111c:	6043      	str	r3, [r0, #4]
 800111e:	4770      	bx	lr
 8001120:	6843      	ldr	r3, [r0, #4]
 8001122:	f043 0320 	orr.w	r3, r3, #32
 8001126:	6043      	str	r3, [r0, #4]
 8001128:	4770      	bx	lr
 800112a:	bf00      	nop

0800112c <spi_i2s_interrupt_disable>:
 800112c:	2901      	cmp	r1, #1
 800112e:	d003      	beq.n	8001138 <spi_i2s_interrupt_disable+0xc>
 8001130:	2902      	cmp	r1, #2
 8001132:	d00b      	beq.n	800114c <spi_i2s_interrupt_disable+0x20>
 8001134:	b129      	cbz	r1, 8001142 <spi_i2s_interrupt_disable+0x16>
 8001136:	4770      	bx	lr
 8001138:	6843      	ldr	r3, [r0, #4]
 800113a:	f023 0340 	bic.w	r3, r3, #64	; 0x40
 800113e:	6043      	str	r3, [r0, #4]
 8001140:	4770      	bx	lr
 8001142:	6843      	ldr	r3, [r0, #4]
 8001144:	f023 0380 	bic.w	r3, r3, #128	; 0x80
 8001148:	6043      	str	r3, [r0, #4]
 800114a:	4770      	bx	lr
 800114c:	6843      	ldr	r3, [r0, #4]
 800114e:	f023 0320 	bic.w	r3, r3, #32
 8001152:	6043      	str	r3, [r0, #4]
 8001154:	4770      	bx	lr
 8001156:	bf00      	nop

08001158 <spi_i2s_interrupt_flag_get>:
 8001158:	6883      	ldr	r3, [r0, #8]
 800115a:	6840      	ldr	r0, [r0, #4]
 800115c:	2906      	cmp	r1, #6
 800115e:	d809      	bhi.n	8001174 <spi_i2s_interrupt_flag_get+0x1c>
 8001160:	e8df f001 	tbb	[pc, r1]
 8001164:	1404      	asrs	r4, r0, #16
 8001166:	1e19      	subs	r1, r3, #0
 8001168:	2823      	cmp	r0, #35	; 0x23
 800116a:	000f      	movs	r7, r1
 800116c:	f003 0302 	and.w	r3, r3, #2
 8001170:	f000 0080 	and.w	r0, r0, #128	; 0x80
 8001174:	b11b      	cbz	r3, 800117e <spi_i2s_interrupt_flag_get+0x26>
 8001176:	3800      	subs	r0, #0
 8001178:	bf18      	it	ne
 800117a:	2001      	movne	r0, #1
 800117c:	4770      	bx	lr
 800117e:	4618      	mov	r0, r3
 8001180:	4770      	bx	lr
 8001182:	f403 7380 	and.w	r3, r3, #256	; 0x100
 8001186:	f000 0020 	and.w	r0, r0, #32
 800118a:	e7f3      	b.n	8001174 <spi_i2s_interrupt_flag_get+0x1c>
 800118c:	f003 0301 	and.w	r3, r3, #1
 8001190:	f000 0040 	and.w	r0, r0, #64	; 0x40
 8001194:	e7ee      	b.n	8001174 <spi_i2s_interrupt_flag_get+0x1c>
 8001196:	f003 0340 	and.w	r3, r3, #64	; 0x40
 800119a:	f000 0020 	and.w	r0, r0, #32
 800119e:	e7e9      	b.n	8001174 <spi_i2s_interrupt_flag_get+0x1c>
 80011a0:	f003 0320 	and.w	r3, r3, #32
 80011a4:	f000 0020 	and.w	r0, r0, #32
 80011a8:	e7e4      	b.n	8001174 <spi_i2s_interrupt_flag_get+0x1c>
 80011aa:	f003 0310 	and.w	r3, r3, #16
 80011ae:	f000 0020 	and.w	r0, r0, #32
 80011b2:	e7df      	b.n	8001174 <spi_i2s_interrupt_flag_get+0x1c>
 80011b4:	f003 0308 	and.w	r3, r3, #8
 80011b8:	f000 0020 	and.w	r0, r0, #32
 80011bc:	e7da      	b.n	8001174 <spi_i2s_interrupt_flag_get+0x1c>
 80011be:	bf00      	nop

080011c0 <timer_deinit>:
 80011c0:	4b63      	ldr	r3, [pc, #396]	; (8001350 <timer_deinit+0x190>)
 80011c2:	4298      	cmp	r0, r3
 80011c4:	b510      	push	{r4, lr}
 80011c6:	d07c      	beq.n	80012c2 <timer_deinit+0x102>
 80011c8:	d817      	bhi.n	80011fa <timer_deinit+0x3a>
 80011ca:	f5a3 5380 	sub.w	r3, r3, #4096	; 0x1000
 80011ce:	4298      	cmp	r0, r3
 80011d0:	f000 8081 	beq.w	80012d6 <timer_deinit+0x116>
 80011d4:	d936      	bls.n	8001244 <timer_deinit+0x84>
 80011d6:	4b5f      	ldr	r3, [pc, #380]	; (8001354 <timer_deinit+0x194>)
 80011d8:	4298      	cmp	r0, r3
 80011da:	f000 8086 	beq.w	80012ea <timer_deinit+0x12a>
 80011de:	f503 6380 	add.w	r3, r3, #1024	; 0x400
 80011e2:	4298      	cmp	r0, r3
 80011e4:	d120      	bne.n	8001228 <timer_deinit+0x68>
 80011e6:	4b5c      	ldr	r3, [pc, #368]	; (8001358 <timer_deinit+0x198>)
 80011e8:	f240 4006 	movw	r0, #1030	; 0x406
 80011ec:	4798      	blx	r3
 80011ee:	e8bd 4010 	ldmia.w	sp!, {r4, lr}
 80011f2:	4b5a      	ldr	r3, [pc, #360]	; (800135c <timer_deinit+0x19c>)
 80011f4:	f240 4006 	movw	r0, #1030	; 0x406
 80011f8:	4718      	bx	r3
 80011fa:	4b59      	ldr	r3, [pc, #356]	; (8001360 <timer_deinit+0x1a0>)
 80011fc:	4298      	cmp	r0, r3
 80011fe:	d07e      	beq.n	80012fe <timer_deinit+0x13e>
 8001200:	d932      	bls.n	8001268 <timer_deinit+0xa8>
 8001202:	4b58      	ldr	r3, [pc, #352]	; (8001364 <timer_deinit+0x1a4>)
 8001204:	4298      	cmp	r0, r3
 8001206:	f000 8084 	beq.w	8001312 <timer_deinit+0x152>
 800120a:	f503 6380 	add.w	r3, r3, #1024	; 0x400
 800120e:	4298      	cmp	r0, r3
 8001210:	f040 8089 	bne.w	8001326 <timer_deinit+0x166>
 8001214:	4b50      	ldr	r3, [pc, #320]	; (8001358 <timer_deinit+0x198>)
 8001216:	f240 3015 	movw	r0, #789	; 0x315
 800121a:	4798      	blx	r3
 800121c:	e8bd 4010 	ldmia.w	sp!, {r4, lr}
 8001220:	4b4e      	ldr	r3, [pc, #312]	; (800135c <timer_deinit+0x19c>)
 8001222:	f240 3015 	movw	r0, #789	; 0x315
 8001226:	4718      	bx	r3
 8001228:	f5a3 6300 	sub.w	r3, r3, #2048	; 0x800
 800122c:	4298      	cmp	r0, r3
 800122e:	d17a      	bne.n	8001326 <timer_deinit+0x166>
 8001230:	4b49      	ldr	r3, [pc, #292]	; (8001358 <timer_deinit+0x198>)
 8001232:	f240 4004 	movw	r0, #1028	; 0x404
 8001236:	4798      	blx	r3
 8001238:	e8bd 4010 	ldmia.w	sp!, {r4, lr}
 800123c:	4b47      	ldr	r3, [pc, #284]	; (800135c <timer_deinit+0x19c>)
 800123e:	f240 4004 	movw	r0, #1028	; 0x404
 8001242:	4718      	bx	r3
 8001244:	f5a3 6300 	sub.w	r3, r3, #2048	; 0x800
 8001248:	4298      	cmp	r0, r3
 800124a:	d06d      	beq.n	8001328 <timer_deinit+0x168>
 800124c:	f503 6380 	add.w	r3, r3, #1024	; 0x400
 8001250:	4298      	cmp	r0, r3
 8001252:	d11b      	bne.n	800128c <timer_deinit+0xcc>
 8001254:	4b40      	ldr	r3, [pc, #256]	; (8001358 <timer_deinit+0x198>)
 8001256:	f240 4002 	movw	r0, #1026	; 0x402
 800125a:	4798      	blx	r3
 800125c:	e8bd 4010 	ldmia.w	sp!, {r4, lr}
 8001260:	4b3e      	ldr	r3, [pc, #248]	; (800135c <timer_deinit+0x19c>)
 8001262:	f240 4002 	movw	r0, #1026	; 0x402
 8001266:	4718      	bx	r3
 8001268:	f5a3 5300 	sub.w	r3, r3, #8192	; 0x2000
 800126c:	4298      	cmp	r0, r3
 800126e:	d065      	beq.n	800133c <timer_deinit+0x17c>
 8001270:	f503 6300 	add.w	r3, r3, #2048	; 0x800
 8001274:	4298      	cmp	r0, r3
 8001276:	d116      	bne.n	80012a6 <timer_deinit+0xe6>
 8001278:	4b37      	ldr	r3, [pc, #220]	; (8001358 <timer_deinit+0x198>)
 800127a:	f240 300d 	movw	r0, #781	; 0x30d
 800127e:	4798      	blx	r3
 8001280:	e8bd 4010 	ldmia.w	sp!, {r4, lr}
 8001284:	4b35      	ldr	r3, [pc, #212]	; (800135c <timer_deinit+0x19c>)
 8001286:	f240 300d 	movw	r0, #781	; 0x30d
 800128a:	4718      	bx	r3
 800128c:	f1b0 4f80 	cmp.w	r0, #1073741824	; 0x40000000
 8001290:	d149      	bne.n	8001326 <timer_deinit+0x166>
 8001292:	4b31      	ldr	r3, [pc, #196]	; (8001358 <timer_deinit+0x198>)
 8001294:	f44f 6080 	mov.w	r0, #1024	; 0x400
 8001298:	4798      	blx	r3
 800129a:	e8bd 4010 	ldmia.w	sp!, {r4, lr}
 800129e:	4b2f      	ldr	r3, [pc, #188]	; (800135c <timer_deinit+0x19c>)
 80012a0:	f44f 6080 	mov.w	r0, #1024	; 0x400
 80012a4:	4718      	bx	r3
 80012a6:	f5a3 338a 	sub.w	r3, r3, #70656	; 0x11400
 80012aa:	4298      	cmp	r0, r3
 80012ac:	d13b      	bne.n	8001326 <timer_deinit+0x166>
 80012ae:	4b2a      	ldr	r3, [pc, #168]	; (8001358 <timer_deinit+0x198>)
 80012b0:	f44f 6081 	mov.w	r0, #1032	; 0x408
 80012b4:	4798      	blx	r3
 80012b6:	e8bd 4010 	ldmia.w	sp!, {r4, lr}
 80012ba:	4b28      	ldr	r3, [pc, #160]	; (800135c <timer_deinit+0x19c>)
 80012bc:	f44f 6081 	mov.w	r0, #1032	; 0x408
 80012c0:	4718      	bx	r3
 80012c2:	4b25      	ldr	r3, [pc, #148]	; (8001358 <timer_deinit+0x198>)
 80012c4:	f240 4007 	movw	r0, #1031	; 0x407
 80012c8:	4798      	blx	r3
 80012ca:	e8bd 4010 	ldmia.w	sp!, {r4, lr}
 80012ce:	4b23      	ldr	r3, [pc, #140]	; (800135c <timer_deinit+0x19c>)
 80012d0:	f240 4007 	movw	r0, #1031	; 0x407
 80012d4:	4718      	bx	r3
 80012d6:	4b20      	ldr	r3, [pc, #128]	; (8001358 <timer_deinit+0x198>)
 80012d8:	f240 4003 	movw	r0, #1027	; 0x403
 80012dc:	4798      	blx	r3
 80012de:	e8bd 4010 	ldmia.w	sp!, {r4, lr}
 80012e2:	4b1e      	ldr	r3, [pc, #120]	; (800135c <timer_deinit+0x19c>)
 80012e4:	f240 4003 	movw	r0, #1027	; 0x403
 80012e8:	4718      	bx	r3
 80012ea:	4b1b      	ldr	r3, [pc, #108]	; (8001358 <timer_deinit+0x198>)
 80012ec:	f240 4005 	movw	r0, #1029	; 0x405
 80012f0:	4798      	blx	r3
 80012f2:	e8bd 4010 	ldmia.w	sp!, {r4, lr}
 80012f6:	4b19      	ldr	r3, [pc, #100]	; (800135c <timer_deinit+0x19c>)
 80012f8:	f240 4005 	movw	r0, #1029	; 0x405
 80012fc:	4718      	bx	r3
 80012fe:	4b16      	ldr	r3, [pc, #88]	; (8001358 <timer_deinit+0x198>)
 8001300:	f240 3013 	movw	r0, #787	; 0x313
 8001304:	4798      	blx	r3
 8001306:	e8bd 4010 	ldmia.w	sp!, {r4, lr}
 800130a:	4b14      	ldr	r3, [pc, #80]	; (800135c <timer_deinit+0x19c>)
 800130c:	f240 3013 	movw	r0, #787	; 0x313
 8001310:	4718      	bx	r3
 8001312:	4b11      	ldr	r3, [pc, #68]	; (8001358 <timer_deinit+0x198>)
 8001314:	f44f 7045 	mov.w	r0, #788	; 0x314
 8001318:	4798      	blx	r3
 800131a:	e8bd 4010 	ldmia.w	sp!, {r4, lr}
 800131e:	4b0f      	ldr	r3, [pc, #60]	; (800135c <timer_deinit+0x19c>)
 8001320:	f44f 7045 	mov.w	r0, #788	; 0x314
 8001324:	4718      	bx	r3
 8001326:	bd10      	pop	{r4, pc}
 8001328:	4b0b      	ldr	r3, [pc, #44]	; (8001358 <timer_deinit+0x198>)
 800132a:	f240 4001 	movw	r0, #1025	; 0x401
 800132e:	4798      	blx	r3
 8001330:	e8bd 4010 	ldmia.w	sp!, {r4, lr}
 8001334:	4b09      	ldr	r3, [pc, #36]	; (800135c <timer_deinit+0x19c>)
 8001336:	f240 4001 	movw	r0, #1025	; 0x401
 800133a:	4718      	bx	r3
 800133c:	4b06      	ldr	r3, [pc, #24]	; (8001358 <timer_deinit+0x198>)
 800133e:	f240 300b 	movw	r0, #779	; 0x30b
 8001342:	4798      	blx	r3
 8001344:	e8bd 4010 	ldmia.w	sp!, {r4, lr}
 8001348:	4b04      	ldr	r3, [pc, #16]	; (800135c <timer_deinit+0x19c>)
 800134a:	f240 300b 	movw	r0, #779	; 0x30b
 800134e:	4718      	bx	r3
 8001350:	1c00      	adds	r0, r0, #0
 8001352:	4000      	ands	r0, r0
 8001354:	1400      	asrs	r0, r0, #16
 8001356:	4000      	ands	r0, r0
 8001358:	0e39      	lsrs	r1, r7, #24
 800135a:	0800      	lsrs	r0, r0, #32
 800135c:	0e55      	lsrs	r5, r2, #25
 800135e:	0800      	lsrs	r0, r0, #32
 8001360:	4c00      	ldr	r4, [pc, #0]	; (8001364 <timer_deinit+0x1a4>)
 8001362:	4001      	ands	r1, r0
 8001364:	5000      	str	r0, [r0, r0]
 8001366:	4001      	ands	r1, r0

08001368 <timer_init>:
 8001368:	4b1c      	ldr	r3, [pc, #112]	; (80013dc <timer_init+0x74>)
 800136a:	880a      	ldrh	r2, [r1, #0]
 800136c:	4298      	cmp	r0, r3
 800136e:	b410      	push	{r4}
 8001370:	6282      	str	r2, [r0, #40]	; 0x28
 8001372:	d007      	beq.n	8001384 <timer_init+0x1c>
 8001374:	f420 6340 	bic.w	r3, r0, #3072	; 0xc00
 8001378:	f1b3 4f80 	cmp.w	r3, #1073741824	; 0x40000000
 800137c:	d002      	beq.n	8001384 <timer_init+0x1c>
 800137e:	4b18      	ldr	r3, [pc, #96]	; (80013e0 <timer_init+0x78>)
 8001380:	4298      	cmp	r0, r3
 8001382:	d10b      	bne.n	800139c <timer_init+0x34>
 8001384:	6803      	ldr	r3, [r0, #0]
 8001386:	884a      	ldrh	r2, [r1, #2]
 8001388:	f023 0370 	bic.w	r3, r3, #112	; 0x70
 800138c:	6003      	str	r3, [r0, #0]
 800138e:	6804      	ldr	r4, [r0, #0]
 8001390:	888b      	ldrh	r3, [r1, #4]
 8001392:	4322      	orrs	r2, r4
 8001394:	6002      	str	r2, [r0, #0]
 8001396:	6802      	ldr	r2, [r0, #0]
 8001398:	4313      	orrs	r3, r2
 800139a:	6003      	str	r3, [r0, #0]
 800139c:	4b11      	ldr	r3, [pc, #68]	; (80013e4 <timer_init+0x7c>)
 800139e:	688a      	ldr	r2, [r1, #8]
 80013a0:	62c2      	str	r2, [r0, #44]	; 0x2c
 80013a2:	4298      	cmp	r0, r3
 80013a4:	d010      	beq.n	80013c8 <timer_init+0x60>
 80013a6:	f503 6380 	add.w	r3, r3, #1024	; 0x400
 80013aa:	4298      	cmp	r0, r3
 80013ac:	d00c      	beq.n	80013c8 <timer_init+0x60>
 80013ae:	6802      	ldr	r2, [r0, #0]
 80013b0:	88cb      	ldrh	r3, [r1, #6]
 80013b2:	f422 7240 	bic.w	r2, r2, #768	; 0x300
 80013b6:	6002      	str	r2, [r0, #0]
 80013b8:	6804      	ldr	r4, [r0, #0]
 80013ba:	4a08      	ldr	r2, [pc, #32]	; (80013dc <timer_init+0x74>)
 80013bc:	4323      	orrs	r3, r4
 80013be:	4290      	cmp	r0, r2
 80013c0:	6003      	str	r3, [r0, #0]
 80013c2:	d107      	bne.n	80013d4 <timer_init+0x6c>
 80013c4:	7b0b      	ldrb	r3, [r1, #12]
 80013c6:	6303      	str	r3, [r0, #48]	; 0x30
 80013c8:	6943      	ldr	r3, [r0, #20]
 80013ca:	bc10      	pop	{r4}
 80013cc:	f043 0301 	orr.w	r3, r3, #1
 80013d0:	6143      	str	r3, [r0, #20]
 80013d2:	4770      	bx	lr
 80013d4:	4b02      	ldr	r3, [pc, #8]	; (80013e0 <timer_init+0x78>)
 80013d6:	4298      	cmp	r0, r3
 80013d8:	d0f4      	beq.n	80013c4 <timer_init+0x5c>
 80013da:	e7f5      	b.n	80013c8 <timer_init+0x60>
 80013dc:	2c00      	cmp	r4, #0
 80013de:	4001      	ands	r1, r0
 80013e0:	3400      	adds	r4, #0
 80013e2:	4001      	ands	r1, r0
 80013e4:	1000      	asrs	r0, r0, #32
 80013e6:	4000      	ands	r0, r0

080013e8 <timer_interrupt_flag_get>:
 80013e8:	68c3      	ldr	r3, [r0, #12]
 80013ea:	6900      	ldr	r0, [r0, #16]
 80013ec:	4008      	ands	r0, r1
 80013ee:	d003      	beq.n	80013f8 <timer_interrupt_flag_get+0x10>
 80013f0:	420b      	tst	r3, r1
 80013f2:	bf14      	ite	ne
 80013f4:	2001      	movne	r0, #1
 80013f6:	2000      	moveq	r0, #0
 80013f8:	4770      	bx	lr
 80013fa:	bf00      	nop

080013fc <timer_interrupt_flag_clear>:
 80013fc:	43c9      	mvns	r1, r1
 80013fe:	6101      	str	r1, [r0, #16]
 8001400:	4770      	bx	lr
 8001402:	bf00      	nop

08001404 <usart_deinit>:
 8001404:	4b23      	ldr	r3, [pc, #140]	; (8001494 <usart_deinit+0x90>)
 8001406:	4298      	cmp	r0, r3
 8001408:	b510      	push	{r4, lr}
 800140a:	d023      	beq.n	8001454 <usart_deinit+0x50>
 800140c:	d910      	bls.n	8001430 <usart_deinit+0x2c>
 800140e:	4b22      	ldr	r3, [pc, #136]	; (8001498 <usart_deinit+0x94>)
 8001410:	4298      	cmp	r0, r3
 8001412:	d029      	beq.n	8001468 <usart_deinit+0x64>
 8001414:	f503 4368 	add.w	r3, r3, #59392	; 0xe800
 8001418:	4298      	cmp	r0, r3
 800141a:	d12f      	bne.n	800147c <usart_deinit+0x78>
 800141c:	4b1f      	ldr	r3, [pc, #124]	; (800149c <usart_deinit+0x98>)
 800141e:	f240 300e 	movw	r0, #782	; 0x30e
 8001422:	4798      	blx	r3
 8001424:	e8bd 4010 	ldmia.w	sp!, {r4, lr}
 8001428:	4b1d      	ldr	r3, [pc, #116]	; (80014a0 <usart_deinit+0x9c>)
 800142a:	f240 300e 	movw	r0, #782	; 0x30e
 800142e:	4718      	bx	r3
 8001430:	f5a3 6300 	sub.w	r3, r3, #2048	; 0x800
 8001434:	4298      	cmp	r0, r3
 8001436:	d022      	beq.n	800147e <usart_deinit+0x7a>
 8001438:	f503 6380 	add.w	r3, r3, #1024	; 0x400
 800143c:	4298      	cmp	r0, r3
 800143e:	d11d      	bne.n	800147c <usart_deinit+0x78>
 8001440:	4b16      	ldr	r3, [pc, #88]	; (800149c <usart_deinit+0x98>)
 8001442:	f240 4012 	movw	r0, #1042	; 0x412
 8001446:	4798      	blx	r3
 8001448:	e8bd 4010 	ldmia.w	sp!, {r4, lr}
 800144c:	4b14      	ldr	r3, [pc, #80]	; (80014a0 <usart_deinit+0x9c>)
 800144e:	f240 4012 	movw	r0, #1042	; 0x412
 8001452:	4718      	bx	r3
 8001454:	4b11      	ldr	r3, [pc, #68]	; (800149c <usart_deinit+0x98>)
 8001456:	f240 4013 	movw	r0, #1043	; 0x413
 800145a:	4798      	blx	r3
 800145c:	e8bd 4010 	ldmia.w	sp!, {r4, lr}
 8001460:	4b0f      	ldr	r3, [pc, #60]	; (80014a0 <usart_deinit+0x9c>)
 8001462:	f240 4013 	movw	r0, #1043	; 0x413
 8001466:	4718      	bx	r3
 8001468:	4b0c      	ldr	r3, [pc, #48]	; (800149c <usart_deinit+0x98>)
 800146a:	f240 4014 	movw	r0, #1044	; 0x414
 800146e:	4798      	blx	r3
 8001470:	e8bd 4010 	ldmia.w	sp!, {r4, lr}
 8001474:	4b0a      	ldr	r3, [pc, #40]	; (80014a0 <usart_deinit+0x9c>)
 8001476:	f240 4014 	movw	r0, #1044	; 0x414
 800147a:	4718      	bx	r3
 800147c:	bd10      	pop	{r4, pc}
 800147e:	4b07      	ldr	r3, [pc, #28]	; (800149c <usart_deinit+0x98>)
 8001480:	f240 4011 	movw	r0, #1041	; 0x411
 8001484:	4798      	blx	r3
 8001486:	e8bd 4010 	ldmia.w	sp!, {r4, lr}
 800148a:	4b05      	ldr	r3, [pc, #20]	; (80014a0 <usart_deinit+0x9c>)
 800148c:	f240 4011 	movw	r0, #1041	; 0x411
 8001490:	4718      	bx	r3
 8001492:	bf00      	nop
 8001494:	4c00      	ldr	r4, [pc, #0]	; (8001498 <usart_deinit+0x94>)
 8001496:	4000      	ands	r0, r0
 8001498:	5000      	str	r0, [r0, r0]
 800149a:	4000      	ands	r0, r0
 800149c:	0e39      	lsrs	r1, r7, #24
 800149e:	0800      	lsrs	r0, r0, #32
 80014a0:	0e55      	lsrs	r5, r2, #25
 80014a2:	0800      	lsrs	r0, r0, #32

080014a4 <usart_baudrate_set>:
 80014a4:	b538      	push	{r3, r4, r5, lr}
 80014a6:	4b12      	ldr	r3, [pc, #72]	; (80014f0 <usart_baudrate_set+0x4c>)
 80014a8:	4298      	cmp	r0, r3
 80014aa:	4604      	mov	r4, r0
 80014ac:	460d      	mov	r5, r1
 80014ae:	d019      	beq.n	80014e4 <usart_baudrate_set+0x40>
 80014b0:	d910      	bls.n	80014d4 <usart_baudrate_set+0x30>
 80014b2:	4b10      	ldr	r3, [pc, #64]	; (80014f4 <usart_baudrate_set+0x50>)
 80014b4:	4298      	cmp	r0, r3
 80014b6:	d015      	beq.n	80014e4 <usart_baudrate_set+0x40>
 80014b8:	f503 4368 	add.w	r3, r3, #59392	; 0xe800
 80014bc:	4298      	cmp	r0, r3
 80014be:	d115      	bne.n	80014ec <usart_baudrate_set+0x48>
 80014c0:	4b0d      	ldr	r3, [pc, #52]	; (80014f8 <usart_baudrate_set+0x54>)
 80014c2:	2003      	movs	r0, #3
 80014c4:	4798      	blx	r3
 80014c6:	eb00 0355 	add.w	r3, r0, r5, lsr #1
 80014ca:	fbb3 f1f5 	udiv	r1, r3, r5
 80014ce:	b289      	uxth	r1, r1
 80014d0:	60a1      	str	r1, [r4, #8]
 80014d2:	bd38      	pop	{r3, r4, r5, pc}
 80014d4:	f5a3 6300 	sub.w	r3, r3, #2048	; 0x800
 80014d8:	4298      	cmp	r0, r3
 80014da:	d003      	beq.n	80014e4 <usart_baudrate_set+0x40>
 80014dc:	f503 6380 	add.w	r3, r3, #1024	; 0x400
 80014e0:	4298      	cmp	r0, r3
 80014e2:	d103      	bne.n	80014ec <usart_baudrate_set+0x48>
 80014e4:	4b04      	ldr	r3, [pc, #16]	; (80014f8 <usart_baudrate_set+0x54>)
 80014e6:	2002      	movs	r0, #2
 80014e8:	4798      	blx	r3
 80014ea:	e7ec      	b.n	80014c6 <usart_baudrate_set+0x22>
 80014ec:	2000      	movs	r0, #0
 80014ee:	e7ea      	b.n	80014c6 <usart_baudrate_set+0x22>
 80014f0:	4c00      	ldr	r4, [pc, #0]	; (80014f4 <usart_baudrate_set+0x50>)
 80014f2:	4000      	ands	r0, r0
 80014f4:	5000      	str	r0, [r0, r0]
 80014f6:	4000      	ands	r0, r0
 80014f8:	0edd      	lsrs	r5, r3, #27
 80014fa:	0800      	lsrs	r0, r0, #32

080014fc <usart_enable>:
 80014fc:	68c3      	ldr	r3, [r0, #12]
 80014fe:	f443 5300 	orr.w	r3, r3, #8192	; 0x2000
 8001502:	60c3      	str	r3, [r0, #12]
 8001504:	4770      	bx	lr
 8001506:	bf00      	nop

08001508 <usart_transmit_config>:
 8001508:	68c3      	ldr	r3, [r0, #12]
 800150a:	f023 0308 	bic.w	r3, r3, #8
 800150e:	60c3      	str	r3, [r0, #12]
 8001510:	68c3      	ldr	r3, [r0, #12]
 8001512:	f001 0108 	and.w	r1, r1, #8
 8001516:	4319      	orrs	r1, r3
 8001518:	60c1      	str	r1, [r0, #12]
 800151a:	4770      	bx	lr

0800151c <usart_receive_config>:
 800151c:	68c3      	ldr	r3, [r0, #12]
 800151e:	f023 0304 	bic.w	r3, r3, #4
 8001522:	60c3      	str	r3, [r0, #12]
 8001524:	68c3      	ldr	r3, [r0, #12]
 8001526:	f001 0104 	and.w	r1, r1, #4
 800152a:	4319      	orrs	r1, r3
 800152c:	60c1      	str	r1, [r0, #12]
 800152e:	4770      	bx	lr

08001530 <usart_data_receive>:
 8001530:	6840      	ldr	r0, [r0, #4]
 8001532:	f3c0 0008 	ubfx	r0, r0, #0, #9
 8001536:	4770      	bx	lr

08001538 <usart_hardware_flow_rts_config>:
 8001538:	6943      	ldr	r3, [r0, #20]
 800153a:	f423 7380 	bic.w	r3, r3, #256	; 0x100
 800153e:	6143      	str	r3, [r0, #20]
 8001540:	6943      	ldr	r3, [r0, #20]
 8001542:	f401 7180 	and.w	r1, r1, #256	; 0x100
 8001546:	4319      	orrs	r1, r3
 8001548:	6141      	str	r1, [r0, #20]
 800154a:	4770      	bx	lr

0800154c <usart_hardware_flow_cts_config>:
 800154c:	6943      	ldr	r3, [r0, #20]
 800154e:	f423 7300 	bic.w	r3, r3, #512	; 0x200
 8001552:	6143      	str	r3, [r0, #20]
 8001554:	6943      	ldr	r3, [r0, #20]
 8001556:	f401 7100 	and.w	r1, r1, #512	; 0x200
 800155a:	4319      	orrs	r1, r3
 800155c:	6141      	str	r1, [r0, #20]
 800155e:	4770      	bx	lr

08001560 <usart_interrupt_enable>:
 8001560:	098a      	lsrs	r2, r1, #6
 8001562:	b410      	push	{r4}
 8001564:	f001 011f 	and.w	r1, r1, #31
 8001568:	5814      	ldr	r4, [r2, r0]
 800156a:	2301      	movs	r3, #1
 800156c:	fa03 f101 	lsl.w	r1, r3, r1
 8001570:	4321      	orrs	r1, r4
 8001572:	5011      	str	r1, [r2, r0]
 8001574:	bc10      	pop	{r4}
 8001576:	4770      	bx	lr

08001578 <usart_interrupt_flag_get>:
 8001578:	f3c1 1389 	ubfx	r3, r1, #6, #10
 800157c:	0d8a      	lsrs	r2, r1, #22
 800157e:	b430      	push	{r4, r5}
 8001580:	581d      	ldr	r5, [r3, r0]
 8001582:	5814      	ldr	r4, [r2, r0]
 8001584:	f3c1 4304 	ubfx	r3, r1, #16, #5
 8001588:	2201      	movs	r2, #1
 800158a:	fa02 f003 	lsl.w	r0, r2, r3
 800158e:	4020      	ands	r0, r4
 8001590:	d007      	beq.n	80015a2 <usart_interrupt_flag_get+0x2a>
 8001592:	f001 011f 	and.w	r1, r1, #31
 8001596:	fa02 f101 	lsl.w	r1, r2, r1
 800159a:	4229      	tst	r1, r5
 800159c:	bf14      	ite	ne
 800159e:	4610      	movne	r0, r2
 80015a0:	2000      	moveq	r0, #0
 80015a2:	bc30      	pop	{r4, r5}
 80015a4:	4770      	bx	lr
 80015a6:	bf00      	nop

080015a8 <usart_interrupt_flag_clear>:
 80015a8:	f3c1 4204 	ubfx	r2, r1, #16, #5
 80015ac:	2301      	movs	r3, #1
 80015ae:	0d89      	lsrs	r1, r1, #22
 80015b0:	4093      	lsls	r3, r2
 80015b2:	43db      	mvns	r3, r3
 80015b4:	500b      	str	r3, [r1, r0]
 80015b6:	4770      	bx	lr

080015b8 <usb_rcu_config>:
 80015b8:	4b15      	ldr	r3, [pc, #84]	; (8001610 <usb_rcu_config+0x58>)
 80015ba:	b510      	push	{r4, lr}
 80015bc:	2000      	movs	r0, #0
 80015be:	4798      	blx	r3
 80015c0:	4b14      	ldr	r3, [pc, #80]	; (8001614 <usb_rcu_config+0x5c>)
 80015c2:	4298      	cmp	r0, r3
 80015c4:	d019      	beq.n	80015fa <usb_rcu_config+0x42>
 80015c6:	4b14      	ldr	r3, [pc, #80]	; (8001618 <usb_rcu_config+0x60>)
 80015c8:	4298      	cmp	r0, r3
 80015ca:	d012      	beq.n	80015f2 <usb_rcu_config+0x3a>
 80015cc:	4b13      	ldr	r3, [pc, #76]	; (800161c <usb_rcu_config+0x64>)
 80015ce:	4298      	cmp	r0, r3
 80015d0:	d018      	beq.n	8001604 <usb_rcu_config+0x4c>
 80015d2:	4b13      	ldr	r3, [pc, #76]	; (8001620 <usb_rcu_config+0x68>)
 80015d4:	4298      	cmp	r0, r3
 80015d6:	4b13      	ldr	r3, [pc, #76]	; (8001624 <usb_rcu_config+0x6c>)
 80015d8:	bf0a      	itet	eq
 80015da:	f44f 0000 	moveq.w	r0, #8388608	; 0x800000
 80015de:	6818      	ldrne	r0, [r3, #0]
 80015e0:	6018      	streq	r0, [r3, #0]
 80015e2:	4b11      	ldr	r3, [pc, #68]	; (8001628 <usb_rcu_config+0x70>)
 80015e4:	4798      	blx	r3
 80015e6:	e8bd 4010 	ldmia.w	sp!, {r4, lr}
 80015ea:	4b10      	ldr	r3, [pc, #64]	; (800162c <usb_rcu_config+0x74>)
 80015ec:	f240 500c 	movw	r0, #1292	; 0x50c
 80015f0:	4718      	bx	r3
 80015f2:	4b0c      	ldr	r3, [pc, #48]	; (8001624 <usb_rcu_config+0x6c>)
 80015f4:	2000      	movs	r0, #0
 80015f6:	6018      	str	r0, [r3, #0]
 80015f8:	e7f3      	b.n	80015e2 <usb_rcu_config+0x2a>
 80015fa:	4b0a      	ldr	r3, [pc, #40]	; (8001624 <usb_rcu_config+0x6c>)
 80015fc:	f44f 0080 	mov.w	r0, #4194304	; 0x400000
 8001600:	6018      	str	r0, [r3, #0]
 8001602:	e7ee      	b.n	80015e2 <usb_rcu_config+0x2a>
 8001604:	4b07      	ldr	r3, [pc, #28]	; (8001624 <usb_rcu_config+0x6c>)
 8001606:	f44f 0040 	mov.w	r0, #12582912	; 0xc00000
 800160a:	6018      	str	r0, [r3, #0]
 800160c:	e7e9      	b.n	80015e2 <usb_rcu_config+0x2a>
 800160e:	bf00      	nop
 8001610:	0edd      	lsrs	r5, r3, #27
 8001612:	0800      	lsrs	r0, r0, #32
 8001614:	6c00      	ldr	r0, [r0, #64]	; 0x40
 8001616:	02dc      	lsls	r4, r3, #11
 8001618:	a200      	add	r2, pc, #0	; (adr r2, 800161c <usb_rcu_config+0x64>)
 800161a:	044a      	lsls	r2, r1, #17
 800161c:	d800      	bhi.n	8001620 <usb_rcu_config+0x68>
 800161e:	05b8      	lsls	r0, r7, #22
 8001620:	0e00      	lsrs	r0, r0, #24
 8001622:	0727      	lsls	r7, r4, #28
 8001624:	0d6c      	lsrs	r4, r5, #21
 8001626:	2000      	movs	r0, #0
 8001628:	0e99      	lsrs	r1, r3, #26
 800162a:	0800      	lsrs	r0, r0, #32
 800162c:	0e1d      	lsrs	r5, r3, #24
 800162e:	0800      	lsrs	r0, r0, #32

08001630 <usb_intr_config>:
 8001630:	4b02      	ldr	r3, [pc, #8]	; (800163c <usb_intr_config+0xc>)
 8001632:	2220      	movs	r2, #32
 8001634:	f883 2343 	strb.w	r2, [r3, #835]	; 0x343
 8001638:	4770      	bx	lr
 800163a:	bf00      	nop
 800163c:	e100      	b.n	8001840 <printer_in>
 800163e:	e000      	b.n	8001642 <SysTick_Handler+0x2>

08001640 <SysTick_Handler>:
 8001640:	b510      	push	{r4, lr}
 8001642:	4c15      	ldr	r4, [pc, #84]	; (8001698 <SysTick_Handler+0x58>)
 8001644:	6823      	ldr	r3, [r4, #0]
 8001646:	3301      	adds	r3, #1
 8001648:	6023      	str	r3, [r4, #0]
 800164a:	6863      	ldr	r3, [r4, #4]
 800164c:	6063      	str	r3, [r4, #4]
 800164e:	6863      	ldr	r3, [r4, #4]
 8001650:	2b7c      	cmp	r3, #124	; 0x7c
 8001652:	d905      	bls.n	8001660 <SysTick_Handler+0x20>
 8001654:	6863      	ldr	r3, [r4, #4]
 8001656:	3b7d      	subs	r3, #125	; 0x7d
 8001658:	6063      	str	r3, [r4, #4]
 800165a:	6823      	ldr	r3, [r4, #0]
 800165c:	3301      	adds	r3, #1
 800165e:	6023      	str	r3, [r4, #0]
 8001660:	68a3      	ldr	r3, [r4, #8]
 8001662:	f5b3 7ff9 	cmp.w	r3, #498	; 0x1f2
 8001666:	d808      	bhi.n	800167a <SysTick_Handler+0x3a>
 8001668:	68a3      	ldr	r3, [r4, #8]
 800166a:	3301      	adds	r3, #1
 800166c:	60a3      	str	r3, [r4, #8]
 800166e:	4b0b      	ldr	r3, [pc, #44]	; (800169c <SysTick_Handler+0x5c>)
 8001670:	4798      	blx	r3
 8001672:	69a3      	ldr	r3, [r4, #24]
 8001674:	3301      	adds	r3, #1
 8001676:	61a3      	str	r3, [r4, #24]
 8001678:	bd10      	pop	{r4, pc}
 800167a:	2300      	movs	r3, #0
 800167c:	60a3      	str	r3, [r4, #8]
 800167e:	68e3      	ldr	r3, [r4, #12]
 8001680:	2201      	movs	r2, #1
 8001682:	4053      	eors	r3, r2
 8001684:	60e3      	str	r3, [r4, #12]
 8001686:	6122      	str	r2, [r4, #16]
 8001688:	68e3      	ldr	r3, [r4, #12]
 800168a:	2b00      	cmp	r3, #0
 800168c:	d1ef      	bne.n	800166e <SysTick_Handler+0x2e>
 800168e:	6963      	ldr	r3, [r4, #20]
 8001690:	4413      	add	r3, r2
 8001692:	6163      	str	r3, [r4, #20]
 8001694:	e7eb      	b.n	800166e <SysTick_Handler+0x2e>
 8001696:	bf00      	nop
 8001698:	0d74      	lsrs	r4, r6, #21
 800169a:	2000      	movs	r0, #0
 800169c:	044d      	lsls	r5, r1, #17
 800169e:	0800      	lsrs	r0, r0, #32

080016a0 <sysSetPeriodUS>:
 80016a0:	4b0a      	ldr	r3, [pc, #40]	; (80016cc <sysSetPeriodUS+0x2c>)
 80016a2:	f04f 22e0 	mov.w	r2, #3758153728	; 0xe000e000
 80016a6:	b410      	push	{r4}
 80016a8:	699c      	ldr	r4, [r3, #24]
 80016aa:	6993      	ldr	r3, [r2, #24]
 80016ac:	6952      	ldr	r2, [r2, #20]
 80016ae:	f44f 7c7a 	mov.w	ip, #1000	; 0x3e8
 80016b2:	3201      	adds	r2, #1
 80016b4:	fb0c 1104 	mla	r1, ip, r4, r1
 80016b8:	1ad3      	subs	r3, r2, r3
 80016ba:	fb0c f303 	mul.w	r3, ip, r3
 80016be:	fbb3 f3f2 	udiv	r3, r3, r2
 80016c2:	440b      	add	r3, r1
 80016c4:	bc10      	pop	{r4}
 80016c6:	6003      	str	r3, [r0, #0]
 80016c8:	4770      	bx	lr
 80016ca:	bf00      	nop
 80016cc:	0d74      	lsrs	r4, r6, #21
 80016ce:	2000      	movs	r0, #0

080016d0 <sysSetPeriodMS>:
 80016d0:	4b02      	ldr	r3, [pc, #8]	; (80016dc <sysSetPeriodMS+0xc>)
 80016d2:	681b      	ldr	r3, [r3, #0]
 80016d4:	4419      	add	r1, r3
 80016d6:	6001      	str	r1, [r0, #0]
 80016d8:	4770      	bx	lr
 80016da:	bf00      	nop
 80016dc:	0d74      	lsrs	r4, r6, #21
 80016de:	2000      	movs	r0, #0

080016e0 <SysInit>:
 80016e0:	4b11      	ldr	r3, [pc, #68]	; (8001728 <SysInit+0x48>)
 80016e2:	4912      	ldr	r1, [pc, #72]	; (800172c <SysInit+0x4c>)
 80016e4:	681b      	ldr	r3, [r3, #0]
 80016e6:	4a12      	ldr	r2, [pc, #72]	; (8001730 <SysInit+0x50>)
 80016e8:	fba1 1303 	umull	r1, r3, r1, r3
 80016ec:	099b      	lsrs	r3, r3, #6
 80016ee:	3b01      	subs	r3, #1
 80016f0:	2100      	movs	r1, #0
 80016f2:	2001      	movs	r0, #1
 80016f4:	f1b3 7f80 	cmp.w	r3, #16777216	; 0x1000000
 80016f8:	6191      	str	r1, [r2, #24]
 80016fa:	6011      	str	r1, [r2, #0]
 80016fc:	60d1      	str	r1, [r2, #12]
 80016fe:	6110      	str	r0, [r2, #16]
 8001700:	6151      	str	r1, [r2, #20]
 8001702:	6051      	str	r1, [r2, #4]
 8001704:	6091      	str	r1, [r2, #8]
 8001706:	d20a      	bcs.n	800171e <SysInit+0x3e>
 8001708:	f04f 22e0 	mov.w	r2, #3758153728	; 0xe000e000
 800170c:	4809      	ldr	r0, [pc, #36]	; (8001734 <SysInit+0x54>)
 800170e:	6153      	str	r3, [r2, #20]
 8001710:	f04f 0cf0 	mov.w	ip, #240	; 0xf0
 8001714:	2307      	movs	r3, #7
 8001716:	f880 c023 	strb.w	ip, [r0, #35]	; 0x23
 800171a:	6191      	str	r1, [r2, #24]
 800171c:	6113      	str	r3, [r2, #16]
 800171e:	4b05      	ldr	r3, [pc, #20]	; (8001734 <SysInit+0x54>)
 8001720:	2200      	movs	r2, #0
 8001722:	f883 2023 	strb.w	r2, [r3, #35]	; 0x23
 8001726:	4770      	bx	lr
 8001728:	0000      	movs	r0, r0
 800172a:	2000      	movs	r0, #0
 800172c:	4dd3      	ldr	r5, [pc, #844]	; (8001a7c <usbd_connect+0xc>)
 800172e:	1062      	asrs	r2, r4, #1
 8001730:	0d74      	lsrs	r4, r6, #21
 8001732:	2000      	movs	r0, #0
 8001734:	ed00 e000 	stc	0, cr14, [r0, #-0]

08001738 <SysTickStart>:
 8001738:	4b02      	ldr	r3, [pc, #8]	; (8001744 <SysTickStart+0xc>)
 800173a:	2200      	movs	r2, #0
 800173c:	f883 2023 	strb.w	r2, [r3, #35]	; 0x23
 8001740:	4770      	bx	lr
 8001742:	bf00      	nop
 8001744:	ed00 e000 	stc	0, cr14, [r0, #-0]

08001748 <sysIsTimeoutMs>:
 8001748:	6800      	ldr	r0, [r0, #0]
 800174a:	2800      	cmp	r0, #0
 800174c:	db0b      	blt.n	8001766 <sysIsTimeoutMs+0x1e>
 800174e:	4b07      	ldr	r3, [pc, #28]	; (800176c <sysIsTimeoutMs+0x24>)
 8001750:	681b      	ldr	r3, [r3, #0]
 8001752:	ea90 0f03 	teq	r0, r3
 8001756:	d404      	bmi.n	8001762 <sysIsTimeoutMs+0x1a>
 8001758:	4298      	cmp	r0, r3
 800175a:	bf8c      	ite	hi
 800175c:	2000      	movhi	r0, #0
 800175e:	2001      	movls	r0, #1
 8001760:	4770      	bx	lr
 8001762:	2000      	movs	r0, #0
 8001764:	4770      	bx	lr
 8001766:	2001      	movs	r0, #1
 8001768:	4770      	bx	lr
 800176a:	bf00      	nop
 800176c:	0d74      	lsrs	r4, r6, #21
 800176e:	2000      	movs	r0, #0

08001770 <sysIsTimeoutUs>:
 8001770:	6803      	ldr	r3, [r0, #0]
 8001772:	2b00      	cmp	r3, #0
 8001774:	db1c      	blt.n	80017b0 <sysIsTimeoutUs+0x40>
 8001776:	490f      	ldr	r1, [pc, #60]	; (80017b4 <sysIsTimeoutUs+0x44>)
 8001778:	f04f 22e0 	mov.w	r2, #3758153728	; 0xe000e000
 800177c:	b410      	push	{r4}
 800177e:	698c      	ldr	r4, [r1, #24]
 8001780:	6990      	ldr	r0, [r2, #24]
 8001782:	6952      	ldr	r2, [r2, #20]
 8001784:	3201      	adds	r2, #1
 8001786:	f44f 717a 	mov.w	r1, #1000	; 0x3e8
 800178a:	1a10      	subs	r0, r2, r0
 800178c:	fb01 f000 	mul.w	r0, r1, r0
 8001790:	fbb0 f0f2 	udiv	r0, r0, r2
 8001794:	fb01 0004 	mla	r0, r1, r4, r0
 8001798:	ea93 0f00 	teq	r3, r0
 800179c:	d405      	bmi.n	80017aa <sysIsTimeoutUs+0x3a>
 800179e:	4283      	cmp	r3, r0
 80017a0:	bf8c      	ite	hi
 80017a2:	2000      	movhi	r0, #0
 80017a4:	2001      	movls	r0, #1
 80017a6:	bc10      	pop	{r4}
 80017a8:	4770      	bx	lr
 80017aa:	2000      	movs	r0, #0
 80017ac:	bc10      	pop	{r4}
 80017ae:	4770      	bx	lr
 80017b0:	2001      	movs	r0, #1
 80017b2:	4770      	bx	lr
 80017b4:	0d74      	lsrs	r4, r6, #21
 80017b6:	2000      	movs	r0, #0

080017b8 <systemMacros>:
 80017b8:	4b08      	ldr	r3, [pc, #32]	; (80017dc <systemMacros+0x24>)
 80017ba:	f04f 22e0 	mov.w	r2, #3758153728	; 0xe000e000
 80017be:	6998      	ldr	r0, [r3, #24]
 80017c0:	6993      	ldr	r3, [r2, #24]
 80017c2:	6952      	ldr	r2, [r2, #20]
 80017c4:	3201      	adds	r2, #1
 80017c6:	f44f 717a 	mov.w	r1, #1000	; 0x3e8
 80017ca:	1ad3      	subs	r3, r2, r3
 80017cc:	fb01 f303 	mul.w	r3, r1, r3
 80017d0:	fbb3 f3f2 	udiv	r3, r3, r2
 80017d4:	fb01 3000 	mla	r0, r1, r0, r3
 80017d8:	4770      	bx	lr
 80017da:	bf00      	nop
 80017dc:	0d74      	lsrs	r4, r6, #21
 80017de:	2000      	movs	r0, #0

080017e0 <__delay_ms>:
 80017e0:	4a03      	ldr	r2, [pc, #12]	; (80017f0 <__delay_ms+0x10>)
 80017e2:	6813      	ldr	r3, [r2, #0]
 80017e4:	4418      	add	r0, r3
 80017e6:	6813      	ldr	r3, [r2, #0]
 80017e8:	4298      	cmp	r0, r3
 80017ea:	d8fc      	bhi.n	80017e6 <__delay_ms+0x6>
 80017ec:	4770      	bx	lr
 80017ee:	bf00      	nop
 80017f0:	0d74      	lsrs	r4, r6, #21
 80017f2:	2000      	movs	r0, #0

080017f4 <__delay_us>:
 80017f4:	b530      	push	{r4, r5, lr}
 80017f6:	f04f 2ce0 	mov.w	ip, #3758153728	; 0xe000e000
 80017fa:	4c10      	ldr	r4, [pc, #64]	; (800183c <__delay_us+0x48>)
 80017fc:	69a5      	ldr	r5, [r4, #24]
 80017fe:	f8dc 3018 	ldr.w	r3, [ip, #24]
 8001802:	f8dc 2014 	ldr.w	r2, [ip, #20]
 8001806:	f44f 717a 	mov.w	r1, #1000	; 0x3e8
 800180a:	3201      	adds	r2, #1
 800180c:	1ad3      	subs	r3, r2, r3
 800180e:	fb01 0005 	mla	r0, r1, r5, r0
 8001812:	fb01 fe03 	mul.w	lr, r1, r3
 8001816:	fbbe fef2 	udiv	lr, lr, r2
 800181a:	4486      	add	lr, r0
 800181c:	69a0      	ldr	r0, [r4, #24]
 800181e:	f8dc 3018 	ldr.w	r3, [ip, #24]
 8001822:	f8dc 2014 	ldr.w	r2, [ip, #20]
 8001826:	3201      	adds	r2, #1
 8001828:	1ad3      	subs	r3, r2, r3
 800182a:	fb01 f303 	mul.w	r3, r1, r3
 800182e:	fbb3 f3f2 	udiv	r3, r3, r2
 8001832:	fb01 3300 	mla	r3, r1, r0, r3
 8001836:	459e      	cmp	lr, r3
 8001838:	d8f0      	bhi.n	800181c <__delay_us+0x28>
 800183a:	bd30      	pop	{r4, r5, pc}
 800183c:	0d74      	lsrs	r4, r6, #21
 800183e:	2000      	movs	r0, #0

08001840 <printer_in>:
 8001840:	2000      	movs	r0, #0
 8001842:	4770      	bx	lr

08001844 <printer_out>:
 8001844:	b510      	push	{r4, lr}
 8001846:	4604      	mov	r4, r0
 8001848:	4808      	ldr	r0, [pc, #32]	; (800186c <printer_out+0x28>)
 800184a:	6803      	ldr	r3, [r0, #0]
 800184c:	b133      	cbz	r3, 800185c <printer_out+0x18>
 800184e:	2218      	movs	r2, #24
 8001850:	fb02 4101 	mla	r1, r2, r1, r4
 8001854:	3004      	adds	r0, #4
 8001856:	f891 1248 	ldrb.w	r1, [r1, #584]	; 0x248
 800185a:	4798      	blx	r3
 800185c:	4a04      	ldr	r2, [pc, #16]	; (8001870 <printer_out+0x2c>)
 800185e:	2340      	movs	r3, #64	; 0x40
 8001860:	2102      	movs	r1, #2
 8001862:	4620      	mov	r0, r4
 8001864:	4c03      	ldr	r4, [pc, #12]	; (8001874 <printer_out+0x30>)
 8001866:	47a0      	blx	r4
 8001868:	2000      	movs	r0, #0
 800186a:	bd10      	pop	{r4, pc}
 800186c:	0d90      	lsrs	r0, r2, #22
 800186e:	2000      	movs	r0, #0
 8001870:	0d94      	lsrs	r4, r2, #22
 8001872:	2000      	movs	r0, #0
 8001874:	19c1      	adds	r1, r0, r7
 8001876:	0800      	lsrs	r0, r0, #32

08001878 <printer_deinit>:
 8001878:	b538      	push	{r3, r4, r5, lr}
 800187a:	2182      	movs	r1, #130	; 0x82
 800187c:	4d03      	ldr	r5, [pc, #12]	; (800188c <printer_deinit+0x14>)
 800187e:	4604      	mov	r4, r0
 8001880:	47a8      	blx	r5
 8001882:	2102      	movs	r1, #2
 8001884:	4620      	mov	r0, r4
 8001886:	47a8      	blx	r5
 8001888:	2000      	movs	r0, #0
 800188a:	bd38      	pop	{r3, r4, r5, pc}
 800188c:	1991      	adds	r1, r2, r6
 800188e:	0800      	lsrs	r0, r0, #32

08001890 <printer_init>:
 8001890:	b570      	push	{r4, r5, r6, lr}
 8001892:	4e09      	ldr	r6, [pc, #36]	; (80018b8 <printer_init+0x28>)
 8001894:	4d09      	ldr	r5, [pc, #36]	; (80018bc <printer_init+0x2c>)
 8001896:	4604      	mov	r4, r0
 8001898:	f106 0112 	add.w	r1, r6, #18
 800189c:	47a8      	blx	r5
 800189e:	f106 0119 	add.w	r1, r6, #25
 80018a2:	4620      	mov	r0, r4
 80018a4:	47a8      	blx	r5
 80018a6:	4a06      	ldr	r2, [pc, #24]	; (80018c0 <printer_init+0x30>)
 80018a8:	2340      	movs	r3, #64	; 0x40
 80018aa:	2102      	movs	r1, #2
 80018ac:	4620      	mov	r0, r4
 80018ae:	4c05      	ldr	r4, [pc, #20]	; (80018c4 <printer_init+0x34>)
 80018b0:	47a0      	blx	r4
 80018b2:	2000      	movs	r0, #0
 80018b4:	bd70      	pop	{r4, r5, r6, pc}
 80018b6:	bf00      	nop
 80018b8:	750c      	strb	r4, [r1, #20]
 80018ba:	0800      	lsrs	r0, r0, #32
 80018bc:	1921      	adds	r1, r4, r4
 80018be:	0800      	lsrs	r0, r0, #32
 80018c0:	0d94      	lsrs	r4, r2, #22
 80018c2:	2000      	movs	r0, #0
 80018c4:	19c1      	adds	r1, r0, r7
 80018c6:	0800      	lsrs	r0, r0, #32

080018c8 <printer_req>:
 80018c8:	b510      	push	{r4, lr}
 80018ca:	7849      	ldrb	r1, [r1, #1]
 80018cc:	2901      	cmp	r1, #1
 80018ce:	d00a      	beq.n	80018e6 <printer_req+0x1e>
 80018d0:	2902      	cmp	r1, #2
 80018d2:	d00f      	beq.n	80018f4 <printer_req+0x2c>
 80018d4:	b999      	cbnz	r1, 80018fe <printer_req+0x36>
 80018d6:	4a0b      	ldr	r2, [pc, #44]	; (8001904 <printer_req+0x3c>)
 80018d8:	f8c0 20d8 	str.w	r2, [r0, #216]	; 0xd8
 80018dc:	2267      	movs	r2, #103	; 0x67
 80018de:	f8c0 20e4 	str.w	r2, [r0, #228]	; 0xe4
 80018e2:	4608      	mov	r0, r1
 80018e4:	bd10      	pop	{r4, pc}
 80018e6:	4a08      	ldr	r2, [pc, #32]	; (8001908 <printer_req+0x40>)
 80018e8:	f8c0 20d8 	str.w	r2, [r0, #216]	; 0xd8
 80018ec:	f8c0 10e4 	str.w	r1, [r0, #228]	; 0xe4
 80018f0:	2100      	movs	r1, #0
 80018f2:	e7f6      	b.n	80018e2 <printer_req+0x1a>
 80018f4:	4a05      	ldr	r2, [pc, #20]	; (800190c <printer_req+0x44>)
 80018f6:	4c06      	ldr	r4, [pc, #24]	; (8001910 <printer_req+0x48>)
 80018f8:	2340      	movs	r3, #64	; 0x40
 80018fa:	47a0      	blx	r4
 80018fc:	e7f8      	b.n	80018f0 <printer_req+0x28>
 80018fe:	2102      	movs	r1, #2
 8001900:	e7ef      	b.n	80018e2 <printer_req+0x1a>
 8001902:	bf00      	nop
 8001904:	0004      	movs	r4, r0
 8001906:	2000      	movs	r0, #0
 8001908:	006b      	lsls	r3, r5, #1
 800190a:	2000      	movs	r0, #0
 800190c:	0d94      	lsrs	r4, r2, #22
 800190e:	2000      	movs	r0, #0
 8001910:	19c1      	adds	r1, r0, r7
 8001912:	0800      	lsrs	r0, r0, #32

08001914 <usbdRegisterToreadData>:
 8001914:	4b01      	ldr	r3, [pc, #4]	; (800191c <usbdRegisterToreadData+0x8>)
 8001916:	6018      	str	r0, [r3, #0]
 8001918:	4770      	bx	lr
 800191a:	bf00      	nop
 800191c:	0d90      	lsrs	r0, r2, #22
 800191e:	2000      	movs	r0, #0

08001920 <usbd_ep_setup>:
 8001920:	b570      	push	{r4, r5, r6, lr}
 8001922:	f991 3002 	ldrsb.w	r3, [r1, #2]
 8001926:	788d      	ldrb	r5, [r1, #2]
 8001928:	888e      	ldrh	r6, [r1, #4]
 800192a:	2b00      	cmp	r3, #0
 800192c:	460a      	mov	r2, r1
 800192e:	f04f 0318 	mov.w	r3, #24
 8001932:	da1c      	bge.n	800196e <usbd_ep_setup+0x4e>
 8001934:	f005 047f 	and.w	r4, r5, #127	; 0x7f
 8001938:	fb03 0104 	mla	r1, r3, r4, r0
 800193c:	fb03 0304 	mla	r3, r3, r4, r0
 8001940:	31d0      	adds	r1, #208	; 0xd0
 8001942:	f893 40d0 	ldrb.w	r4, [r3, #208]	; 0xd0
 8001946:	f044 0480 	orr.w	r4, r4, #128	; 0x80
 800194a:	f883 40d0 	strb.w	r4, [r3, #208]	; 0xd0
 800194e:	780b      	ldrb	r3, [r1, #0]
 8001950:	808e      	strh	r6, [r1, #4]
 8001952:	f365 0303 	bfi	r3, r5, #0, #4
 8001956:	700b      	strb	r3, [r1, #0]
 8001958:	78d3      	ldrb	r3, [r2, #3]
 800195a:	4a0b      	ldr	r2, [pc, #44]	; (8001988 <usbd_ep_setup+0x68>)
 800195c:	f003 0303 	and.w	r3, r3, #3
 8001960:	f852 3023 	ldr.w	r3, [r2, r3, lsl #2]
 8001964:	704b      	strb	r3, [r1, #1]
 8001966:	4b09      	ldr	r3, [pc, #36]	; (800198c <usbd_ep_setup+0x6c>)
 8001968:	4798      	blx	r3
 800196a:	2000      	movs	r0, #0
 800196c:	bd70      	pop	{r4, r5, r6, pc}
 800196e:	fb03 0105 	mla	r1, r3, r5, r0
 8001972:	fb03 0305 	mla	r3, r3, r5, r0
 8001976:	f501 710e 	add.w	r1, r1, #568	; 0x238
 800197a:	f893 4238 	ldrb.w	r4, [r3, #568]	; 0x238
 800197e:	f36f 14c7 	bfc	r4, #7, #1
 8001982:	f883 4238 	strb.w	r4, [r3, #568]	; 0x238
 8001986:	e7e2      	b.n	800194e <usbd_ep_setup+0x2e>
 8001988:	7658      	strb	r0, [r3, #25]
 800198a:	0800      	lsrs	r0, r0, #32
 800198c:	276d      	movs	r7, #109	; 0x6d
 800198e:	0800      	lsrs	r0, r0, #32

08001990 <usbd_ep_clear>:
 8001990:	b508      	push	{r3, lr}
 8001992:	f011 0f80 	tst.w	r1, #128	; 0x80
 8001996:	bf18      	it	ne
 8001998:	f001 017f 	andne.w	r1, r1, #127	; 0x7f
 800199c:	f04f 0318 	mov.w	r3, #24
 80019a0:	bf16      	itet	ne
 80019a2:	fb03 0101 	mlane	r1, r3, r1, r0
 80019a6:	fb03 0101 	mlaeq	r1, r3, r1, r0
 80019aa:	31d0      	addne	r1, #208	; 0xd0
 80019ac:	4b03      	ldr	r3, [pc, #12]	; (80019bc <usbd_ep_clear+0x2c>)
 80019ae:	bf08      	it	eq
 80019b0:	f501 710e 	addeq.w	r1, r1, #568	; 0x238
 80019b4:	4798      	blx	r3
 80019b6:	2000      	movs	r0, #0
 80019b8:	bd08      	pop	{r3, pc}
 80019ba:	bf00      	nop
 80019bc:	27e9      	movs	r7, #233	; 0xe9
 80019be:	0800      	lsrs	r0, r0, #32

080019c0 <usbd_ep_recev>:
 80019c0:	b5f8      	push	{r3, r4, r5, r6, r7, lr}
 80019c2:	f001 017f 	and.w	r1, r1, #127	; 0x7f
 80019c6:	2718      	movs	r7, #24
 80019c8:	fb07 0501 	mla	r5, r7, r1, r0
 80019cc:	2600      	movs	r6, #0
 80019ce:	e9c5 2390 	strd	r2, r3, [r5, #576]	; 0x240
 80019d2:	f8c5 6248 	str.w	r6, [r5, #584]	; 0x248
 80019d6:	4b03      	ldr	r3, [pc, #12]	; (80019e4 <usbd_ep_recev+0x24>)
 80019d8:	f505 710e 	add.w	r1, r5, #568	; 0x238
 80019dc:	4798      	blx	r3
 80019de:	4630      	mov	r0, r6
 80019e0:	bdf8      	pop	{r3, r4, r5, r6, r7, pc}
 80019e2:	bf00      	nop
 80019e4:	28e9      	cmp	r0, #233	; 0xe9
 80019e6:	0800      	lsrs	r0, r0, #32

080019e8 <usbd_ep_send>:
 80019e8:	b5f8      	push	{r3, r4, r5, r6, r7, lr}
 80019ea:	f001 017f 	and.w	r1, r1, #127	; 0x7f
 80019ee:	2718      	movs	r7, #24
 80019f0:	fb07 0501 	mla	r5, r7, r1, r0
 80019f4:	2600      	movs	r6, #0
 80019f6:	4629      	mov	r1, r5
 80019f8:	e9c5 2336 	strd	r2, r3, [r5, #216]	; 0xd8
 80019fc:	f8c5 60e0 	str.w	r6, [r5, #224]	; 0xe0
 8001a00:	4b02      	ldr	r3, [pc, #8]	; (8001a0c <usbd_ep_send+0x24>)
 8001a02:	31d0      	adds	r1, #208	; 0xd0
 8001a04:	4798      	blx	r3
 8001a06:	4630      	mov	r0, r6
 8001a08:	bdf8      	pop	{r3, r4, r5, r6, r7, pc}
 8001a0a:	bf00      	nop
 8001a0c:	2829      	cmp	r0, #41	; 0x29
 8001a0e:	0800      	lsrs	r0, r0, #32

08001a10 <usbd_ep_stall>:
 8001a10:	f011 0f80 	tst.w	r1, #128	; 0x80
 8001a14:	bf18      	it	ne
 8001a16:	f001 017f 	andne.w	r1, r1, #127	; 0x7f
 8001a1a:	b508      	push	{r3, lr}
 8001a1c:	f04f 0318 	mov.w	r3, #24
 8001a20:	bf15      	itete	ne
 8001a22:	fb03 0101 	mlane	r1, r3, r1, r0
 8001a26:	fb03 0101 	mlaeq	r1, r3, r1, r0
 8001a2a:	31d0      	addne	r1, #208	; 0xd0
 8001a2c:	f501 710e 	addeq.w	r1, r1, #568	; 0x238
 8001a30:	2301      	movs	r3, #1
 8001a32:	708b      	strb	r3, [r1, #2]
 8001a34:	4b01      	ldr	r3, [pc, #4]	; (8001a3c <usbd_ep_stall+0x2c>)
 8001a36:	4798      	blx	r3
 8001a38:	2000      	movs	r0, #0
 8001a3a:	bd08      	pop	{r3, pc}
 8001a3c:	293f      	cmp	r1, #63	; 0x3f
 8001a3e:	0800      	lsrs	r0, r0, #32

08001a40 <usbd_ep_stall_clear>:
 8001a40:	f011 0f80 	tst.w	r1, #128	; 0x80
 8001a44:	bf18      	it	ne
 8001a46:	f001 017f 	andne.w	r1, r1, #127	; 0x7f
 8001a4a:	b510      	push	{r4, lr}
 8001a4c:	f04f 0318 	mov.w	r3, #24
 8001a50:	bf15      	itete	ne
 8001a52:	fb03 0101 	mlane	r1, r3, r1, r0
 8001a56:	fb03 0101 	mlaeq	r1, r3, r1, r0
 8001a5a:	31d0      	addne	r1, #208	; 0xd0
 8001a5c:	f501 710e 	addeq.w	r1, r1, #568	; 0x238
 8001a60:	2400      	movs	r4, #0
 8001a62:	4b02      	ldr	r3, [pc, #8]	; (8001a6c <usbd_ep_stall_clear+0x2c>)
 8001a64:	708c      	strb	r4, [r1, #2]
 8001a66:	4798      	blx	r3
 8001a68:	4620      	mov	r0, r4
 8001a6a:	bd10      	pop	{r4, pc}
 8001a6c:	2971      	cmp	r1, #113	; 0x71
 8001a6e:	0800      	lsrs	r0, r0, #32

08001a70 <usbd_connect>:
 8001a70:	6942      	ldr	r2, [r0, #20]
 8001a72:	6853      	ldr	r3, [r2, #4]
 8001a74:	f023 0302 	bic.w	r3, r3, #2
 8001a78:	6053      	str	r3, [r2, #4]
 8001a7a:	2003      	movs	r0, #3
 8001a7c:	4b00      	ldr	r3, [pc, #0]	; (8001a80 <usbd_connect+0x10>)
 8001a7e:	4718      	bx	r3
 8001a80:	17e1      	asrs	r1, r4, #31
 8001a82:	0800      	lsrs	r0, r0, #32

08001a84 <usbd_disconnect>:
 8001a84:	6942      	ldr	r2, [r0, #20]
 8001a86:	6853      	ldr	r3, [r2, #4]
 8001a88:	f043 0302 	orr.w	r3, r3, #2
 8001a8c:	6053      	str	r3, [r2, #4]
 8001a8e:	2003      	movs	r0, #3
 8001a90:	4b00      	ldr	r3, [pc, #0]	; (8001a94 <usbd_disconnect+0x10>)
 8001a92:	4718      	bx	r3
 8001a94:	17e1      	asrs	r1, r4, #31
 8001a96:	0800      	lsrs	r0, r0, #32

08001a98 <usbd_init>:
 8001a98:	b573      	push	{r0, r1, r4, r5, r6, lr}
 8001a9a:	e9c0 23ec 	strd	r2, r3, [r0, #944]	; 0x3b0
 8001a9e:	68d3      	ldr	r3, [r2, #12]
 8001aa0:	4604      	mov	r4, r0
 8001aa2:	460e      	mov	r6, r1
 8001aa4:	f104 0510 	add.w	r5, r4, #16
 8001aa8:	68d8      	ldr	r0, [r3, #12]
 8001aaa:	4b14      	ldr	r3, [pc, #80]	; (8001afc <usbd_init+0x64>)
 8001aac:	4798      	blx	r3
 8001aae:	4632      	mov	r2, r6
 8001ab0:	4629      	mov	r1, r5
 8001ab2:	4b13      	ldr	r3, [pc, #76]	; (8001b00 <usbd_init+0x68>)
 8001ab4:	4e13      	ldr	r6, [pc, #76]	; (8001b04 <usbd_init+0x6c>)
 8001ab6:	4620      	mov	r0, r4
 8001ab8:	4798      	blx	r3
 8001aba:	6922      	ldr	r2, [r4, #16]
 8001abc:	6893      	ldr	r3, [r2, #8]
 8001abe:	f023 0301 	bic.w	r3, r3, #1
 8001ac2:	6093      	str	r3, [r2, #8]
 8001ac4:	e894 000f 	ldmia.w	r4, {r0, r1, r2, r3}
 8001ac8:	9500      	str	r5, [sp, #0]
 8001aca:	47b0      	blx	r6
 8001acc:	4620      	mov	r0, r4
 8001ace:	4b0e      	ldr	r3, [pc, #56]	; (8001b08 <usbd_init+0x70>)
 8001ad0:	4798      	blx	r3
 8001ad2:	2100      	movs	r1, #0
 8001ad4:	4628      	mov	r0, r5
 8001ad6:	4b0d      	ldr	r3, [pc, #52]	; (8001b0c <usbd_init+0x74>)
 8001ad8:	4798      	blx	r3
 8001ada:	4b0d      	ldr	r3, [pc, #52]	; (8001b10 <usbd_init+0x78>)
 8001adc:	4620      	mov	r0, r4
 8001ade:	4798      	blx	r3
 8001ae0:	6922      	ldr	r2, [r4, #16]
 8001ae2:	6893      	ldr	r3, [r2, #8]
 8001ae4:	f043 0301 	orr.w	r3, r3, #1
 8001ae8:	6093      	str	r3, [r2, #8]
 8001aea:	4620      	mov	r0, r4
 8001aec:	4b09      	ldr	r3, [pc, #36]	; (8001b14 <usbd_init+0x7c>)
 8001aee:	4798      	blx	r3
 8001af0:	2301      	movs	r3, #1
 8001af2:	f884 30ce 	strb.w	r3, [r4, #206]	; 0xce
 8001af6:	b002      	add	sp, #8
 8001af8:	bd70      	pop	{r4, r5, r6, pc}
 8001afa:	bf00      	nop
 8001afc:	1f3d      	subs	r5, r7, #4
 8001afe:	0800      	lsrs	r0, r0, #32
 8001b00:	23f9      	movs	r3, #249	; 0xf9
 8001b02:	0800      	lsrs	r0, r0, #32
 8001b04:	24fd      	movs	r4, #253	; 0xfd
 8001b06:	0800      	lsrs	r0, r0, #32
 8001b08:	1a85      	subs	r5, r0, r2
 8001b0a:	0800      	lsrs	r0, r0, #32
 8001b0c:	2637      	movs	r6, #55	; 0x37
 8001b0e:	0800      	lsrs	r0, r0, #32
 8001b10:	268d      	movs	r6, #141	; 0x8d
 8001b12:	0800      	lsrs	r0, r0, #32
 8001b14:	1a71      	subs	r1, r6, r1
 8001b16:	0800      	lsrs	r0, r0, #32

08001b18 <_usb_std_reserved>:
 8001b18:	2001      	movs	r0, #1
 8001b1a:	4770      	bx	lr

08001b1c <_usb_dev_desc_get>:
 8001b1c:	f8d0 33b0 	ldr.w	r3, [r0, #944]	; 0x3b0
 8001b20:	6818      	ldr	r0, [r3, #0]
 8001b22:	7803      	ldrb	r3, [r0, #0]
 8001b24:	8013      	strh	r3, [r2, #0]
 8001b26:	4770      	bx	lr

08001b28 <_usb_config_desc_get>:
 8001b28:	f8d0 33b0 	ldr.w	r3, [r0, #944]	; 0x3b0
 8001b2c:	6858      	ldr	r0, [r3, #4]
 8001b2e:	8843      	ldrh	r3, [r0, #2]
 8001b30:	8013      	strh	r3, [r2, #0]
 8001b32:	4770      	bx	lr

08001b34 <_usb_str_desc_get>:
 8001b34:	f8d0 33b0 	ldr.w	r3, [r0, #944]	; 0x3b0
 8001b38:	68db      	ldr	r3, [r3, #12]
 8001b3a:	f853 0021 	ldr.w	r0, [r3, r1, lsl #2]
 8001b3e:	7803      	ldrb	r3, [r0, #0]
 8001b40:	8013      	strh	r3, [r2, #0]
 8001b42:	4770      	bx	lr

08001b44 <_usb_std_getstatus>:
 8001b44:	b510      	push	{r4, lr}
 8001b46:	4603      	mov	r3, r0
 8001b48:	7808      	ldrb	r0, [r1, #0]
 8001b4a:	888c      	ldrh	r4, [r1, #4]
 8001b4c:	f000 0003 	and.w	r0, r0, #3
 8001b50:	2801      	cmp	r0, #1
 8001b52:	b2e2      	uxtb	r2, r4
 8001b54:	d01f      	beq.n	8001b96 <_usb_std_getstatus+0x52>
 8001b56:	2802      	cmp	r0, #2
 8001b58:	d024      	beq.n	8001ba4 <_usb_std_getstatus+0x60>
 8001b5a:	2800      	cmp	r0, #0
 8001b5c:	d138      	bne.n	8001bd0 <_usb_std_getstatus+0x8c>
 8001b5e:	f893 20ce 	ldrb.w	r2, [r3, #206]	; 0xce
 8001b62:	2a02      	cmp	r2, #2
 8001b64:	d003      	beq.n	8001b6e <_usb_std_getstatus+0x2a>
 8001b66:	f893 20ce 	ldrb.w	r2, [r3, #206]	; 0xce
 8001b6a:	2a03      	cmp	r2, #3
 8001b6c:	d130      	bne.n	8001bd0 <_usb_std_getstatus+0x8c>
 8001b6e:	f893 23a2 	ldrb.w	r2, [r3, #930]	; 0x3a2
 8001b72:	4918      	ldr	r1, [pc, #96]	; (8001bd4 <_usb_std_getstatus+0x90>)
 8001b74:	b132      	cbz	r2, 8001b84 <_usb_std_getstatus+0x40>
 8001b76:	f893 23a0 	ldrb.w	r2, [r3, #928]	; 0x3a0
 8001b7a:	3a00      	subs	r2, #0
 8001b7c:	bf18      	it	ne
 8001b7e:	2201      	movne	r2, #1
 8001b80:	f042 0202 	orr.w	r2, r2, #2
 8001b84:	700a      	strb	r2, [r1, #0]
 8001b86:	4a13      	ldr	r2, [pc, #76]	; (8001bd4 <_usb_std_getstatus+0x90>)
 8001b88:	f8c3 20d8 	str.w	r2, [r3, #216]	; 0xd8
 8001b8c:	2202      	movs	r2, #2
 8001b8e:	f8c3 20e4 	str.w	r2, [r3, #228]	; 0xe4
 8001b92:	2000      	movs	r0, #0
 8001b94:	e005      	b.n	8001ba2 <_usb_std_getstatus+0x5e>
 8001b96:	f893 10ce 	ldrb.w	r1, [r3, #206]	; 0xce
 8001b9a:	2903      	cmp	r1, #3
 8001b9c:	d101      	bne.n	8001ba2 <_usb_std_getstatus+0x5e>
 8001b9e:	2a02      	cmp	r2, #2
 8001ba0:	d9f1      	bls.n	8001b86 <_usb_std_getstatus+0x42>
 8001ba2:	bd10      	pop	{r4, pc}
 8001ba4:	f893 10ce 	ldrb.w	r1, [r3, #206]	; 0xce
 8001ba8:	2903      	cmp	r1, #3
 8001baa:	d111      	bne.n	8001bd0 <_usb_std_getstatus+0x8c>
 8001bac:	f014 0f80 	tst.w	r4, #128	; 0x80
 8001bb0:	f04f 0018 	mov.w	r0, #24
 8001bb4:	bf1a      	itte	ne
 8001bb6:	f002 027f 	andne.w	r2, r2, #127	; 0x7f
 8001bba:	fb00 3202 	mlane	r2, r0, r2, r3
 8001bbe:	fb00 3202 	mlaeq	r2, r0, r2, r3
 8001bc2:	4904      	ldr	r1, [pc, #16]	; (8001bd4 <_usb_std_getstatus+0x90>)
 8001bc4:	bf14      	ite	ne
 8001bc6:	f892 20d2 	ldrbne.w	r2, [r2, #210]	; 0xd2
 8001bca:	f892 223a 	ldrbeq.w	r2, [r2, #570]	; 0x23a
 8001bce:	e7d9      	b.n	8001b84 <_usb_std_getstatus+0x40>
 8001bd0:	2001      	movs	r0, #1
 8001bd2:	e7e6      	b.n	8001ba2 <_usb_std_getstatus+0x5e>
 8001bd4:	0dd4      	lsrs	r4, r2, #23
 8001bd6:	2000      	movs	r0, #0

08001bd8 <_usb_std_getdescriptor>:
 8001bd8:	b570      	push	{r4, r5, r6, lr}
 8001bda:	780b      	ldrb	r3, [r1, #0]
 8001bdc:	f013 0303 	ands.w	r3, r3, #3
 8001be0:	4605      	mov	r5, r0
 8001be2:	460e      	mov	r6, r1
 8001be4:	d003      	beq.n	8001bee <_usb_std_getdescriptor+0x16>
 8001be6:	2b01      	cmp	r3, #1
 8001be8:	d045      	beq.n	8001c76 <_usb_std_getdescriptor+0x9e>
 8001bea:	2401      	movs	r4, #1
 8001bec:	e028      	b.n	8001c40 <_usb_std_getdescriptor+0x68>
 8001bee:	8849      	ldrh	r1, [r1, #2]
 8001bf0:	0a0b      	lsrs	r3, r1, #8
 8001bf2:	2b03      	cmp	r3, #3
 8001bf4:	461c      	mov	r4, r3
 8001bf6:	b2c9      	uxtb	r1, r1
 8001bf8:	d037      	beq.n	8001c6a <_usb_std_getdescriptor+0x92>
 8001bfa:	d80a      	bhi.n	8001c12 <_usb_std_getdescriptor+0x3a>
 8001bfc:	2b01      	cmp	r3, #1
 8001bfe:	d013      	beq.n	8001c28 <_usb_std_getdescriptor+0x50>
 8001c00:	2b02      	cmp	r3, #2
 8001c02:	d1f2      	bne.n	8001bea <_usb_std_getdescriptor+0x12>
 8001c04:	4b21      	ldr	r3, [pc, #132]	; (8001c8c <_usb_std_getdescriptor+0xb4>)
 8001c06:	f100 02e4 	add.w	r2, r0, #228	; 0xe4
 8001c0a:	4798      	blx	r3
 8001c0c:	f8c5 00d8 	str.w	r0, [r5, #216]	; 0xd8
 8001c10:	e7eb      	b.n	8001bea <_usb_std_getdescriptor+0x12>
 8001c12:	2b0f      	cmp	r3, #15
 8001c14:	d1e9      	bne.n	8001bea <_usb_std_getdescriptor+0x12>
 8001c16:	f8d0 33b0 	ldr.w	r3, [r0, #944]	; 0x3b0
 8001c1a:	689b      	ldr	r3, [r3, #8]
 8001c1c:	789a      	ldrb	r2, [r3, #2]
 8001c1e:	f8a0 20e4 	strh.w	r2, [r0, #228]	; 0xe4
 8001c22:	f8c0 30d8 	str.w	r3, [r0, #216]	; 0xd8
 8001c26:	e7e0      	b.n	8001bea <_usb_std_getdescriptor+0x12>
 8001c28:	4b19      	ldr	r3, [pc, #100]	; (8001c90 <_usb_std_getdescriptor+0xb8>)
 8001c2a:	f100 02e4 	add.w	r2, r0, #228	; 0xe4
 8001c2e:	4798      	blx	r3
 8001c30:	f8c5 00d8 	str.w	r0, [r5, #216]	; 0xd8
 8001c34:	88f3      	ldrh	r3, [r6, #6]
 8001c36:	2b40      	cmp	r3, #64	; 0x40
 8001c38:	d1d7      	bne.n	8001bea <_usb_std_getdescriptor+0x12>
 8001c3a:	2308      	movs	r3, #8
 8001c3c:	f8c5 30e4 	str.w	r3, [r5, #228]	; 0xe4
 8001c40:	f8d5 30e4 	ldr.w	r3, [r5, #228]	; 0xe4
 8001c44:	b17b      	cbz	r3, 8001c66 <_usb_std_getdescriptor+0x8e>
 8001c46:	88f2      	ldrh	r2, [r6, #6]
 8001c48:	b16a      	cbz	r2, 8001c66 <_usb_std_getdescriptor+0x8e>
 8001c4a:	4293      	cmp	r3, r2
 8001c4c:	d219      	bcs.n	8001c82 <_usb_std_getdescriptor+0xaa>
 8001c4e:	f8b5 40d4 	ldrh.w	r4, [r5, #212]	; 0xd4
 8001c52:	42a3      	cmp	r3, r4
 8001c54:	d317      	bcc.n	8001c86 <_usb_std_getdescriptor+0xae>
 8001c56:	fbb3 f0f4 	udiv	r0, r3, r4
 8001c5a:	fb04 3410 	mls	r4, r4, r0, r3
 8001c5e:	b994      	cbnz	r4, 8001c86 <_usb_std_getdescriptor+0xae>
 8001c60:	2301      	movs	r3, #1
 8001c62:	f885 33ad 	strb.w	r3, [r5, #941]	; 0x3ad
 8001c66:	4620      	mov	r0, r4
 8001c68:	bd70      	pop	{r4, r5, r6, pc}
 8001c6a:	29ee      	cmp	r1, #238	; 0xee
 8001c6c:	d8bd      	bhi.n	8001bea <_usb_std_getdescriptor+0x12>
 8001c6e:	4b09      	ldr	r3, [pc, #36]	; (8001c94 <_usb_std_getdescriptor+0xbc>)
 8001c70:	f100 02e4 	add.w	r2, r0, #228	; 0xe4
 8001c74:	e7c9      	b.n	8001c0a <_usb_std_getdescriptor+0x32>
 8001c76:	f8d0 33b4 	ldr.w	r3, [r0, #948]	; 0x3b4
 8001c7a:	68db      	ldr	r3, [r3, #12]
 8001c7c:	4798      	blx	r3
 8001c7e:	4604      	mov	r4, r0
 8001c80:	e7de      	b.n	8001c40 <_usb_std_getdescriptor+0x68>
 8001c82:	f8c5 20e4 	str.w	r2, [r5, #228]	; 0xe4
 8001c86:	2400      	movs	r4, #0
 8001c88:	e7ed      	b.n	8001c66 <_usb_std_getdescriptor+0x8e>
 8001c8a:	bf00      	nop
 8001c8c:	1b29      	subs	r1, r5, r4
 8001c8e:	0800      	lsrs	r0, r0, #32
 8001c90:	1b1d      	subs	r5, r3, r4
 8001c92:	0800      	lsrs	r0, r0, #32
 8001c94:	1b35      	subs	r5, r6, r4
 8001c96:	0800      	lsrs	r0, r0, #32

08001c98 <_usb_std_getconfiguration>:
 8001c98:	f890 30ce 	ldrb.w	r3, [r0, #206]	; 0xce
 8001c9c:	2b02      	cmp	r3, #2
 8001c9e:	b2da      	uxtb	r2, r3
 8001ca0:	d003      	beq.n	8001caa <_usb_std_getconfiguration+0x12>
 8001ca2:	2a03      	cmp	r2, #3
 8001ca4:	d00e      	beq.n	8001cc4 <_usb_std_getconfiguration+0x2c>
 8001ca6:	2001      	movs	r0, #1
 8001ca8:	4770      	bx	lr
 8001caa:	f890 30cc 	ldrb.w	r3, [r0, #204]	; 0xcc
 8001cae:	2b00      	cmp	r3, #0
 8001cb0:	d1f9      	bne.n	8001ca6 <_usb_std_getconfiguration+0xe>
 8001cb2:	f100 03cc 	add.w	r3, r0, #204	; 0xcc
 8001cb6:	f8c0 30d8 	str.w	r3, [r0, #216]	; 0xd8
 8001cba:	2301      	movs	r3, #1
 8001cbc:	f8c0 30e4 	str.w	r3, [r0, #228]	; 0xe4
 8001cc0:	2000      	movs	r0, #0
 8001cc2:	4770      	bx	lr
 8001cc4:	f890 30cc 	ldrb.w	r3, [r0, #204]	; 0xcc
 8001cc8:	2b00      	cmp	r3, #0
 8001cca:	d0ec      	beq.n	8001ca6 <_usb_std_getconfiguration+0xe>
 8001ccc:	e7f1      	b.n	8001cb2 <_usb_std_getconfiguration+0x1a>
	...

08001cd0 <_usb_std_setconfiguration>:
 8001cd0:	b570      	push	{r4, r5, r6, lr}
 8001cd2:	884d      	ldrh	r5, [r1, #2]
 8001cd4:	4e1e      	ldr	r6, [pc, #120]	; (8001d50 <_usb_std_setconfiguration+0x80>)
 8001cd6:	b2ed      	uxtb	r5, r5
 8001cd8:	2d01      	cmp	r5, #1
 8001cda:	4604      	mov	r4, r0
 8001cdc:	70b5      	strb	r5, [r6, #2]
 8001cde:	d806      	bhi.n	8001cee <_usb_std_setconfiguration+0x1e>
 8001ce0:	f890 30ce 	ldrb.w	r3, [r0, #206]	; 0xce
 8001ce4:	2b02      	cmp	r3, #2
 8001ce6:	b2da      	uxtb	r2, r3
 8001ce8:	d003      	beq.n	8001cf2 <_usb_std_setconfiguration+0x22>
 8001cea:	2a03      	cmp	r2, #3
 8001cec:	d00f      	beq.n	8001d0e <_usb_std_setconfiguration+0x3e>
 8001cee:	2501      	movs	r5, #1
 8001cf0:	e019      	b.n	8001d26 <_usb_std_setconfiguration+0x56>
 8001cf2:	b1c5      	cbz	r5, 8001d26 <_usb_std_setconfiguration+0x56>
 8001cf4:	f8d0 33b4 	ldr.w	r3, [r0, #948]	; 0x3b4
 8001cf8:	2101      	movs	r1, #1
 8001cfa:	685b      	ldr	r3, [r3, #4]
 8001cfc:	4798      	blx	r3
 8001cfe:	78b3      	ldrb	r3, [r6, #2]
 8001d00:	f884 30cc 	strb.w	r3, [r4, #204]	; 0xcc
 8001d04:	2303      	movs	r3, #3
 8001d06:	f884 30ce 	strb.w	r3, [r4, #206]	; 0xce
 8001d0a:	2500      	movs	r5, #0
 8001d0c:	e00b      	b.n	8001d26 <_usb_std_setconfiguration+0x56>
 8001d0e:	b965      	cbnz	r5, 8001d2a <_usb_std_setconfiguration+0x5a>
 8001d10:	f8d0 33b4 	ldr.w	r3, [r0, #948]	; 0x3b4
 8001d14:	4629      	mov	r1, r5
 8001d16:	689b      	ldr	r3, [r3, #8]
 8001d18:	4798      	blx	r3
 8001d1a:	78b3      	ldrb	r3, [r6, #2]
 8001d1c:	f884 30cc 	strb.w	r3, [r4, #204]	; 0xcc
 8001d20:	2302      	movs	r3, #2
 8001d22:	f884 30ce 	strb.w	r3, [r4, #206]	; 0xce
 8001d26:	4628      	mov	r0, r5
 8001d28:	bd70      	pop	{r4, r5, r6, pc}
 8001d2a:	f890 30cc 	ldrb.w	r3, [r0, #204]	; 0xcc
 8001d2e:	2b01      	cmp	r3, #1
 8001d30:	d0eb      	beq.n	8001d0a <_usb_std_setconfiguration+0x3a>
 8001d32:	f8d0 33b4 	ldr.w	r3, [r0, #948]	; 0x3b4
 8001d36:	2101      	movs	r1, #1
 8001d38:	689b      	ldr	r3, [r3, #8]
 8001d3a:	4798      	blx	r3
 8001d3c:	78b1      	ldrb	r1, [r6, #2]
 8001d3e:	f8d4 33b4 	ldr.w	r3, [r4, #948]	; 0x3b4
 8001d42:	f884 10cc 	strb.w	r1, [r4, #204]	; 0xcc
 8001d46:	685b      	ldr	r3, [r3, #4]
 8001d48:	4620      	mov	r0, r4
 8001d4a:	4798      	blx	r3
 8001d4c:	e7dd      	b.n	8001d0a <_usb_std_setconfiguration+0x3a>
 8001d4e:	bf00      	nop
 8001d50:	0dd4      	lsrs	r4, r2, #23
 8001d52:	2000      	movs	r0, #0

08001d54 <_usb_std_setaddress>:
 8001d54:	b510      	push	{r4, lr}
 8001d56:	888b      	ldrh	r3, [r1, #4]
 8001d58:	4602      	mov	r2, r0
 8001d5a:	b10b      	cbz	r3, 8001d60 <_usb_std_setaddress+0xc>
 8001d5c:	2001      	movs	r0, #1
 8001d5e:	bd10      	pop	{r4, pc}
 8001d60:	88cc      	ldrh	r4, [r1, #6]
 8001d62:	2c00      	cmp	r4, #0
 8001d64:	d1fa      	bne.n	8001d5c <_usb_std_setaddress+0x8>
 8001d66:	884b      	ldrh	r3, [r1, #2]
 8001d68:	f003 007f 	and.w	r0, r3, #127	; 0x7f
 8001d6c:	f892 30ce 	ldrb.w	r3, [r2, #206]	; 0xce
 8001d70:	f882 00cd 	strb.w	r0, [r2, #205]	; 0xcd
 8001d74:	2b03      	cmp	r3, #3
 8001d76:	d0f1      	beq.n	8001d5c <_usb_std_setaddress+0x8>
 8001d78:	6953      	ldr	r3, [r2, #20]
 8001d7a:	6819      	ldr	r1, [r3, #0]
 8001d7c:	f421 61fe 	bic.w	r1, r1, #2032	; 0x7f0
 8001d80:	6019      	str	r1, [r3, #0]
 8001d82:	6819      	ldr	r1, [r3, #0]
 8001d84:	ea41 1100 	orr.w	r1, r1, r0, lsl #4
 8001d88:	6019      	str	r1, [r3, #0]
 8001d8a:	b120      	cbz	r0, 8001d96 <_usb_std_setaddress+0x42>
 8001d8c:	2302      	movs	r3, #2
 8001d8e:	f882 30ce 	strb.w	r3, [r2, #206]	; 0xce
 8001d92:	4620      	mov	r0, r4
 8001d94:	e7e3      	b.n	8001d5e <_usb_std_setaddress+0xa>
 8001d96:	2301      	movs	r3, #1
 8001d98:	f882 30ce 	strb.w	r3, [r2, #206]	; 0xce
 8001d9c:	e7df      	b.n	8001d5e <_usb_std_setaddress+0xa>

08001d9e <_usb_std_getinterface>:
 8001d9e:	f890 20ce 	ldrb.w	r2, [r0, #206]	; 0xce
 8001da2:	2a03      	cmp	r2, #3
 8001da4:	4603      	mov	r3, r0
 8001da6:	d10e      	bne.n	8001dc6 <_usb_std_getinterface+0x28>
 8001da8:	888a      	ldrh	r2, [r1, #4]
 8001daa:	b2d2      	uxtb	r2, r2
 8001dac:	2a02      	cmp	r2, #2
 8001dae:	f04f 0001 	mov.w	r0, #1
 8001db2:	d809      	bhi.n	8001dc8 <_usb_std_getinterface+0x2a>
 8001db4:	f8d3 23b4 	ldr.w	r2, [r3, #948]	; 0x3b4
 8001db8:	f8c3 00e4 	str.w	r0, [r3, #228]	; 0xe4
 8001dbc:	4402      	add	r2, r0
 8001dbe:	f8c3 20d8 	str.w	r2, [r3, #216]	; 0xd8
 8001dc2:	2000      	movs	r0, #0
 8001dc4:	4770      	bx	lr
 8001dc6:	2001      	movs	r0, #1
 8001dc8:	4770      	bx	lr

08001dca <_usb_std_setinterface>:
 8001dca:	b510      	push	{r4, lr}
 8001dcc:	f890 40ce 	ldrb.w	r4, [r0, #206]	; 0xce
 8001dd0:	2c03      	cmp	r4, #3
 8001dd2:	d10a      	bne.n	8001dea <_usb_std_setinterface+0x20>
 8001dd4:	888a      	ldrh	r2, [r1, #4]
 8001dd6:	b2d2      	uxtb	r2, r2
 8001dd8:	2a02      	cmp	r2, #2
 8001dda:	d806      	bhi.n	8001dea <_usb_std_setinterface+0x20>
 8001ddc:	f8d0 33b4 	ldr.w	r3, [r0, #948]	; 0x3b4
 8001de0:	691b      	ldr	r3, [r3, #16]
 8001de2:	b123      	cbz	r3, 8001dee <_usb_std_setinterface+0x24>
 8001de4:	4798      	blx	r3
 8001de6:	2000      	movs	r0, #0
 8001de8:	bd10      	pop	{r4, pc}
 8001dea:	2001      	movs	r0, #1
 8001dec:	e7fc      	b.n	8001de8 <_usb_std_setinterface+0x1e>
 8001dee:	4618      	mov	r0, r3
 8001df0:	e7fa      	b.n	8001de8 <_usb_std_setinterface+0x1e>
	...

08001df4 <_usb_std_setfeature>:
 8001df4:	b510      	push	{r4, lr}
 8001df6:	780b      	ldrb	r3, [r1, #0]
 8001df8:	f013 0303 	ands.w	r3, r3, #3
 8001dfc:	4602      	mov	r2, r0
 8001dfe:	d003      	beq.n	8001e08 <_usb_std_setfeature+0x14>
 8001e00:	2b02      	cmp	r3, #2
 8001e02:	d010      	beq.n	8001e26 <_usb_std_setfeature+0x32>
 8001e04:	2301      	movs	r3, #1
 8001e06:	e00c      	b.n	8001e22 <_usb_std_setfeature+0x2e>
 8001e08:	f890 00ce 	ldrb.w	r0, [r0, #206]	; 0xce
 8001e0c:	2802      	cmp	r0, #2
 8001e0e:	d003      	beq.n	8001e18 <_usb_std_setfeature+0x24>
 8001e10:	f892 00ce 	ldrb.w	r0, [r2, #206]	; 0xce
 8001e14:	2803      	cmp	r0, #3
 8001e16:	d1f5      	bne.n	8001e04 <_usb_std_setfeature+0x10>
 8001e18:	8849      	ldrh	r1, [r1, #2]
 8001e1a:	2901      	cmp	r1, #1
 8001e1c:	d101      	bne.n	8001e22 <_usb_std_setfeature+0x2e>
 8001e1e:	f882 13a2 	strb.w	r1, [r2, #930]	; 0x3a2
 8001e22:	4618      	mov	r0, r3
 8001e24:	bd10      	pop	{r4, pc}
 8001e26:	f890 30ce 	ldrb.w	r3, [r0, #206]	; 0xce
 8001e2a:	2b03      	cmp	r3, #3
 8001e2c:	d1ea      	bne.n	8001e04 <_usb_std_setfeature+0x10>
 8001e2e:	884c      	ldrh	r4, [r1, #2]
 8001e30:	b934      	cbnz	r4, 8001e40 <_usb_std_setfeature+0x4c>
 8001e32:	888b      	ldrh	r3, [r1, #4]
 8001e34:	b2d9      	uxtb	r1, r3
 8001e36:	f013 037f 	ands.w	r3, r3, #127	; 0x7f
 8001e3a:	d0f2      	beq.n	8001e22 <_usb_std_setfeature+0x2e>
 8001e3c:	4b01      	ldr	r3, [pc, #4]	; (8001e44 <_usb_std_setfeature+0x50>)
 8001e3e:	4798      	blx	r3
 8001e40:	2300      	movs	r3, #0
 8001e42:	e7ee      	b.n	8001e22 <_usb_std_setfeature+0x2e>
 8001e44:	1a11      	subs	r1, r2, r0
 8001e46:	0800      	lsrs	r0, r0, #32

08001e48 <_usb_std_clearfeature>:
 8001e48:	b570      	push	{r4, r5, r6, lr}
 8001e4a:	780b      	ldrb	r3, [r1, #0]
 8001e4c:	f013 0303 	ands.w	r3, r3, #3
 8001e50:	4604      	mov	r4, r0
 8001e52:	460d      	mov	r5, r1
 8001e54:	d003      	beq.n	8001e5e <_usb_std_clearfeature+0x16>
 8001e56:	2b02      	cmp	r3, #2
 8001e58:	d011      	beq.n	8001e7e <_usb_std_clearfeature+0x36>
 8001e5a:	2301      	movs	r3, #1
 8001e5c:	e00d      	b.n	8001e7a <_usb_std_clearfeature+0x32>
 8001e5e:	f890 20ce 	ldrb.w	r2, [r0, #206]	; 0xce
 8001e62:	2a02      	cmp	r2, #2
 8001e64:	d003      	beq.n	8001e6e <_usb_std_clearfeature+0x26>
 8001e66:	f890 20ce 	ldrb.w	r2, [r0, #206]	; 0xce
 8001e6a:	2a03      	cmp	r2, #3
 8001e6c:	d1f5      	bne.n	8001e5a <_usb_std_clearfeature+0x12>
 8001e6e:	886a      	ldrh	r2, [r5, #2]
 8001e70:	2a01      	cmp	r2, #1
 8001e72:	d1f2      	bne.n	8001e5a <_usb_std_clearfeature+0x12>
 8001e74:	2200      	movs	r2, #0
 8001e76:	f884 23a2 	strb.w	r2, [r4, #930]	; 0x3a2
 8001e7a:	4618      	mov	r0, r3
 8001e7c:	bd70      	pop	{r4, r5, r6, pc}
 8001e7e:	f890 30ce 	ldrb.w	r3, [r0, #206]	; 0xce
 8001e82:	2b03      	cmp	r3, #3
 8001e84:	d1e9      	bne.n	8001e5a <_usb_std_clearfeature+0x12>
 8001e86:	884e      	ldrh	r6, [r1, #2]
 8001e88:	b966      	cbnz	r6, 8001ea4 <_usb_std_clearfeature+0x5c>
 8001e8a:	888b      	ldrh	r3, [r1, #4]
 8001e8c:	b2d9      	uxtb	r1, r3
 8001e8e:	f013 037f 	ands.w	r3, r3, #127	; 0x7f
 8001e92:	d0f2      	beq.n	8001e7a <_usb_std_clearfeature+0x32>
 8001e94:	4b04      	ldr	r3, [pc, #16]	; (8001ea8 <_usb_std_clearfeature+0x60>)
 8001e96:	4798      	blx	r3
 8001e98:	f8d4 33b4 	ldr.w	r3, [r4, #948]	; 0x3b4
 8001e9c:	4629      	mov	r1, r5
 8001e9e:	68db      	ldr	r3, [r3, #12]
 8001ea0:	4620      	mov	r0, r4
 8001ea2:	4798      	blx	r3
 8001ea4:	2300      	movs	r3, #0
 8001ea6:	e7e8      	b.n	8001e7a <_usb_std_clearfeature+0x32>
 8001ea8:	1a41      	subs	r1, r0, r1
 8001eaa:	0800      	lsrs	r0, r0, #32

08001eac <_usb_std_setdescriptor>:
 8001eac:	2000      	movs	r0, #0
 8001eae:	4770      	bx	lr

08001eb0 <_usb_std_synchframe>:
 8001eb0:	2000      	movs	r0, #0
 8001eb2:	4770      	bx	lr

08001eb4 <usbd_standard_request>:
 8001eb4:	784a      	ldrb	r2, [r1, #1]
 8001eb6:	4b02      	ldr	r3, [pc, #8]	; (8001ec0 <usbd_standard_request+0xc>)
 8001eb8:	f853 3022 	ldr.w	r3, [r3, r2, lsl #2]
 8001ebc:	4718      	bx	r3
 8001ebe:	bf00      	nop
 8001ec0:	7668      	strb	r0, [r5, #25]
 8001ec2:	0800      	lsrs	r0, r0, #32

08001ec4 <usbd_class_request>:
 8001ec4:	b410      	push	{r4}
 8001ec6:	f890 40ce 	ldrb.w	r4, [r0, #206]	; 0xce
 8001eca:	2c03      	cmp	r4, #3
 8001ecc:	d108      	bne.n	8001ee0 <usbd_class_request+0x1c>
 8001ece:	888a      	ldrh	r2, [r1, #4]
 8001ed0:	b2d2      	uxtb	r2, r2
 8001ed2:	2a02      	cmp	r2, #2
 8001ed4:	d804      	bhi.n	8001ee0 <usbd_class_request+0x1c>
 8001ed6:	f8d0 33b4 	ldr.w	r3, [r0, #948]	; 0x3b4
 8001eda:	bc10      	pop	{r4}
 8001edc:	68db      	ldr	r3, [r3, #12]
 8001ede:	4718      	bx	r3
 8001ee0:	2001      	movs	r0, #1
 8001ee2:	bc10      	pop	{r4}
 8001ee4:	4770      	bx	lr

08001ee6 <usbd_vendor_request>:
 8001ee6:	2000      	movs	r0, #0
 8001ee8:	4770      	bx	lr
	...

08001eec <usbd_enum_error>:
 8001eec:	b570      	push	{r4, r5, r6, lr}
 8001eee:	2180      	movs	r1, #128	; 0x80
 8001ef0:	4604      	mov	r4, r0
 8001ef2:	4d05      	ldr	r5, [pc, #20]	; (8001f08 <usbd_enum_error+0x1c>)
 8001ef4:	47a8      	blx	r5
 8001ef6:	4620      	mov	r0, r4
 8001ef8:	2100      	movs	r1, #0
 8001efa:	47a8      	blx	r5
 8001efc:	4620      	mov	r0, r4
 8001efe:	4b03      	ldr	r3, [pc, #12]	; (8001f0c <usbd_enum_error+0x20>)
 8001f00:	e8bd 4070 	ldmia.w	sp!, {r4, r5, r6, lr}
 8001f04:	4718      	bx	r3
 8001f06:	bf00      	nop
 8001f08:	1a11      	subs	r1, r2, r0
 8001f0a:	0800      	lsrs	r0, r0, #32
 8001f0c:	29c1      	cmp	r1, #193	; 0xc1
 8001f0e:	0800      	lsrs	r0, r0, #32

08001f10 <int_to_unicode>:
 8001f10:	2300      	movs	r3, #0
 8001f12:	b570      	push	{r4, r5, r6, lr}
 8001f14:	1c4d      	adds	r5, r1, #1
 8001f16:	461e      	mov	r6, r3
 8001f18:	b2dc      	uxtb	r4, r3
 8001f1a:	4294      	cmp	r4, r2
 8001f1c:	d300      	bcc.n	8001f20 <int_to_unicode+0x10>
 8001f1e:	bd70      	pop	{r4, r5, r6, pc}
 8001f20:	0f04      	lsrs	r4, r0, #28
 8001f22:	f1b0 4f20 	cmp.w	r0, #2684354560	; 0xa0000000
 8001f26:	bf34      	ite	cc
 8001f28:	3430      	addcc	r4, #48	; 0x30
 8001f2a:	3437      	addcs	r4, #55	; 0x37
 8001f2c:	f801 4013 	strb.w	r4, [r1, r3, lsl #1]
 8001f30:	0100      	lsls	r0, r0, #4
 8001f32:	f805 6013 	strb.w	r6, [r5, r3, lsl #1]
 8001f36:	3301      	adds	r3, #1
 8001f38:	e7ee      	b.n	8001f18 <int_to_unicode+0x8>
	...

08001f3c <serial_string_get>:
 8001f3c:	7803      	ldrb	r3, [r0, #0]
 8001f3e:	2b06      	cmp	r3, #6
 8001f40:	b570      	push	{r4, r5, r6, lr}
 8001f42:	4604      	mov	r4, r0
 8001f44:	d014      	beq.n	8001f70 <serial_string_get+0x34>
 8001f46:	4b0e      	ldr	r3, [pc, #56]	; (8001f80 <serial_string_get+0x44>)
 8001f48:	f8d3 07e8 	ldr.w	r0, [r3, #2024]	; 0x7e8
 8001f4c:	f8d3 27f0 	ldr.w	r2, [r3, #2032]	; 0x7f0
 8001f50:	1880      	adds	r0, r0, r2
 8001f52:	d014      	beq.n	8001f7e <serial_string_get+0x42>
 8001f54:	f8d3 67ec 	ldr.w	r6, [r3, #2028]	; 0x7ec
 8001f58:	4d0a      	ldr	r5, [pc, #40]	; (8001f84 <serial_string_get+0x48>)
 8001f5a:	1ca1      	adds	r1, r4, #2
 8001f5c:	2208      	movs	r2, #8
 8001f5e:	47a8      	blx	r5
 8001f60:	f104 0112 	add.w	r1, r4, #18
 8001f64:	4630      	mov	r0, r6
 8001f66:	462b      	mov	r3, r5
 8001f68:	2204      	movs	r2, #4
 8001f6a:	e8bd 4070 	ldmia.w	sp!, {r4, r5, r6, lr}
 8001f6e:	4718      	bx	r3
 8001f70:	4b05      	ldr	r3, [pc, #20]	; (8001f88 <serial_string_get+0x4c>)
 8001f72:	f8d3 3100 	ldr.w	r3, [r3, #256]	; 0x100
 8001f76:	b113      	cbz	r3, 8001f7e <serial_string_get+0x42>
 8001f78:	8043      	strh	r3, [r0, #2]
 8001f7a:	0c1b      	lsrs	r3, r3, #16
 8001f7c:	8083      	strh	r3, [r0, #4]
 8001f7e:	bd70      	pop	{r4, r5, r6, pc}
 8001f80:	f000 1fff 	and.w	pc, r0, #16711935	; 0xff00ff
 8001f84:	1f11      	subs	r1, r2, #4
 8001f86:	0800      	lsrs	r0, r0, #32
 8001f88:	2000      	movs	r0, #0
 8001f8a:	4002      	ands	r2, r0

08001f8c <usbd_int_suspend.isra.0>:
 8001f8c:	b513      	push	{r0, r1, r4, lr}
 8001f8e:	79c3      	ldrb	r3, [r0, #7]
 8001f90:	f88d 3005 	strb.w	r3, [sp, #5]
 8001f94:	6943      	ldr	r3, [r0, #20]
 8001f96:	689b      	ldr	r3, [r3, #8]
 8001f98:	f003 0301 	and.w	r3, r3, #1
 8001f9c:	f88d 3006 	strb.w	r3, [sp, #6]
 8001fa0:	f890 30ce 	ldrb.w	r3, [r0, #206]	; 0xce
 8001fa4:	1eda      	subs	r2, r3, #3
 8001fa6:	4253      	negs	r3, r2
 8001fa8:	4153      	adcs	r3, r2
 8001faa:	f88d 3007 	strb.w	r3, [sp, #7]
 8001fae:	f890 30ce 	ldrb.w	r3, [r0, #206]	; 0xce
 8001fb2:	b2db      	uxtb	r3, r3
 8001fb4:	f880 30cf 	strb.w	r3, [r0, #207]	; 0xcf
 8001fb8:	2304      	movs	r3, #4
 8001fba:	f880 30ce 	strb.w	r3, [r0, #206]	; 0xce
 8001fbe:	f89d 3005 	ldrb.w	r3, [sp, #5]
 8001fc2:	4604      	mov	r4, r0
 8001fc4:	b183      	cbz	r3, 8001fe8 <usbd_int_suspend.isra.0+0x5c>
 8001fc6:	f89d 3006 	ldrb.w	r3, [sp, #6]
 8001fca:	b16b      	cbz	r3, 8001fe8 <usbd_int_suspend.isra.0+0x5c>
 8001fcc:	f89d 3007 	ldrb.w	r3, [sp, #7]
 8001fd0:	b153      	cbz	r3, 8001fe8 <usbd_int_suspend.isra.0+0x5c>
 8001fd2:	f8d0 20c8 	ldr.w	r2, [r0, #200]	; 0xc8
 8001fd6:	6813      	ldr	r3, [r2, #0]
 8001fd8:	f043 0303 	orr.w	r3, r3, #3
 8001fdc:	6013      	str	r3, [r2, #0]
 8001fde:	2200      	movs	r2, #0
 8001fe0:	4b04      	ldr	r3, [pc, #16]	; (8001ff4 <usbd_int_suspend.isra.0+0x68>)
 8001fe2:	4611      	mov	r1, r2
 8001fe4:	2001      	movs	r0, #1
 8001fe6:	4798      	blx	r3
 8001fe8:	6923      	ldr	r3, [r4, #16]
 8001fea:	f44f 6200 	mov.w	r2, #2048	; 0x800
 8001fee:	615a      	str	r2, [r3, #20]
 8001ff0:	b002      	add	sp, #8
 8001ff2:	bd10      	pop	{r4, pc}
 8001ff4:	0d59      	lsrs	r1, r3, #21
 8001ff6:	0800      	lsrs	r0, r0, #32

08001ff8 <usbd_int_enumfinish.isra.0>:
 8001ff8:	6943      	ldr	r3, [r0, #20]
 8001ffa:	689a      	ldr	r2, [r3, #8]
 8001ffc:	6859      	ldr	r1, [r3, #4]
 8001ffe:	f421 7180 	bic.w	r1, r1, #256	; 0x100
 8002002:	6059      	str	r1, [r3, #4]
 8002004:	6859      	ldr	r1, [r3, #4]
 8002006:	f441 7180 	orr.w	r1, r1, #256	; 0x100
 800200a:	6059      	str	r1, [r3, #4]
 800200c:	6903      	ldr	r3, [r0, #16]
 800200e:	68d9      	ldr	r1, [r3, #12]
 8002010:	f421 5170 	bic.w	r1, r1, #15360	; 0x3c00
 8002014:	60d9      	str	r1, [r3, #12]
 8002016:	f3c2 0241 	ubfx	r2, r2, #1, #2
 800201a:	4909      	ldr	r1, [pc, #36]	; (8002040 <usbd_int_enumfinish.isra.0+0x48>)
 800201c:	5c8a      	ldrb	r2, [r1, r2]
 800201e:	2a03      	cmp	r2, #3
 8002020:	bf15      	itete	ne
 8002022:	2202      	movne	r2, #2
 8002024:	7042      	strbeq	r2, [r0, #1]
 8002026:	7042      	strbne	r2, [r0, #1]
 8002028:	68da      	ldreq	r2, [r3, #12]
 800202a:	bf16      	itet	ne
 800202c:	68da      	ldrne	r2, [r3, #12]
 800202e:	f442 5210 	orreq.w	r2, r2, #9216	; 0x2400
 8002032:	f442 52a0 	orrne.w	r2, r2, #5120	; 0x1400
 8002036:	60da      	str	r2, [r3, #12]
 8002038:	f44f 5200 	mov.w	r2, #8192	; 0x2000
 800203c:	615a      	str	r2, [r3, #20]
 800203e:	4770      	bx	lr
 8002040:	769c      	strb	r4, [r3, #26]
 8002042:	0800      	lsrs	r0, r0, #32

08002044 <usbd_int_reset.isra.0>:
 8002044:	6942      	ldr	r2, [r0, #20]
 8002046:	e92d 43f8 	stmdb	sp!, {r3, r4, r5, r6, r7, r8, r9, lr}
 800204a:	6853      	ldr	r3, [r2, #4]
 800204c:	4604      	mov	r4, r0
 800204e:	f023 0301 	bic.w	r3, r3, #1
 8002052:	6053      	str	r3, [r2, #4]
 8002054:	2100      	movs	r1, #0
 8002056:	4b26      	ldr	r3, [pc, #152]	; (80020f0 <usbd_int_reset.isra.0+0xac>)
 8002058:	3010      	adds	r0, #16
 800205a:	4798      	blx	r3
 800205c:	78e0      	ldrb	r0, [r4, #3]
 800205e:	f104 021c 	add.w	r2, r4, #28
 8002062:	2300      	movs	r3, #0
 8002064:	21ff      	movs	r1, #255	; 0xff
 8002066:	4283      	cmp	r3, r0
 8002068:	d33a      	bcc.n	80020e0 <usbd_int_reset.isra.0+0x9c>
 800206a:	6963      	ldr	r3, [r4, #20]
 800206c:	f8df 9084 	ldr.w	r9, [pc, #132]	; 80020f4 <usbd_int_reset.isra.0+0xb0>
 8002070:	4e21      	ldr	r6, [pc, #132]	; (80020f8 <usbd_int_reset.isra.0+0xb4>)
 8002072:	f04f 32ff 	mov.w	r2, #4294967295
 8002076:	619a      	str	r2, [r3, #24]
 8002078:	f04f 1201 	mov.w	r2, #65537	; 0x10001
 800207c:	61da      	str	r2, [r3, #28]
 800207e:	2501      	movs	r5, #1
 8002080:	2209      	movs	r2, #9
 8002082:	615a      	str	r2, [r3, #20]
 8002084:	611d      	str	r5, [r3, #16]
 8002086:	681a      	ldr	r2, [r3, #0]
 8002088:	f422 62fe 	bic.w	r2, r2, #2032	; 0x7f0
 800208c:	601a      	str	r2, [r3, #0]
 800208e:	4620      	mov	r0, r4
 8002090:	4b1a      	ldr	r3, [pc, #104]	; (80020fc <usbd_int_reset.isra.0+0xb8>)
 8002092:	4798      	blx	r3
 8002094:	6923      	ldr	r3, [r4, #16]
 8002096:	f44f 5280 	mov.w	r2, #4096	; 0x1000
 800209a:	615a      	str	r2, [r3, #20]
 800209c:	f504 730e 	add.w	r3, r4, #568	; 0x238
 80020a0:	4618      	mov	r0, r3
 80020a2:	2218      	movs	r2, #24
 80020a4:	2100      	movs	r1, #0
 80020a6:	47c8      	blx	r9
 80020a8:	f04f 0840 	mov.w	r8, #64	; 0x40
 80020ac:	4601      	mov	r1, r0
 80020ae:	f104 07d0 	add.w	r7, r4, #208	; 0xd0
 80020b2:	f8a4 823c 	strh.w	r8, [r4, #572]	; 0x23c
 80020b6:	4620      	mov	r0, r4
 80020b8:	47b0      	blx	r6
 80020ba:	2218      	movs	r2, #24
 80020bc:	2100      	movs	r1, #0
 80020be:	4638      	mov	r0, r7
 80020c0:	47c8      	blx	r9
 80020c2:	f894 30d0 	ldrb.w	r3, [r4, #208]	; 0xd0
 80020c6:	f8a4 80d4 	strh.w	r8, [r4, #212]	; 0xd4
 80020ca:	f043 0380 	orr.w	r3, r3, #128	; 0x80
 80020ce:	f884 30d0 	strb.w	r3, [r4, #208]	; 0xd0
 80020d2:	4639      	mov	r1, r7
 80020d4:	4620      	mov	r0, r4
 80020d6:	47b0      	blx	r6
 80020d8:	f884 50ce 	strb.w	r5, [r4, #206]	; 0xce
 80020dc:	e8bd 83f8 	ldmia.w	sp!, {r3, r4, r5, r6, r7, r8, r9, pc}
 80020e0:	f852 5b04 	ldr.w	r5, [r2], #4
 80020e4:	60a9      	str	r1, [r5, #8]
 80020e6:	6955      	ldr	r5, [r2, #20]
 80020e8:	3301      	adds	r3, #1
 80020ea:	60a9      	str	r1, [r5, #8]
 80020ec:	e7bb      	b.n	8002066 <usbd_int_reset.isra.0+0x22>
 80020ee:	bf00      	nop
 80020f0:	25b5      	movs	r5, #181	; 0xb5
 80020f2:	0800      	lsrs	r0, r0, #32
 80020f4:	7055      	strb	r5, [r2, #1]
 80020f6:	0800      	lsrs	r0, r0, #32
 80020f8:	276d      	movs	r7, #109	; 0x6d
 80020fa:	0800      	lsrs	r0, r0, #32
 80020fc:	29c1      	cmp	r1, #193	; 0xc1
 80020fe:	0800      	lsrs	r0, r0, #32

08002100 <usbd_int_rxfifo.isra.0>:
 8002100:	b573      	push	{r0, r1, r4, r5, r6, lr}
 8002102:	2300      	movs	r3, #0
 8002104:	9301      	str	r3, [sp, #4]
 8002106:	6903      	ldr	r3, [r0, #16]
 8002108:	699a      	ldr	r2, [r3, #24]
 800210a:	f022 0210 	bic.w	r2, r2, #16
 800210e:	619a      	str	r2, [r3, #24]
 8002110:	6a1b      	ldr	r3, [r3, #32]
 8002112:	9301      	str	r3, [sp, #4]
 8002114:	9c01      	ldr	r4, [sp, #4]
 8002116:	9e01      	ldr	r6, [sp, #4]
 8002118:	9a01      	ldr	r2, [sp, #4]
 800211a:	9b01      	ldr	r3, [sp, #4]
 800211c:	f3c3 4343 	ubfx	r3, r3, #17, #4
 8002120:	2b02      	cmp	r3, #2
 8002122:	4605      	mov	r5, r0
 8002124:	f004 040f 	and.w	r4, r4, #15
 8002128:	f3c6 160a 	ubfx	r6, r6, #4, #11
 800212c:	d008      	beq.n	8002140 <usbd_int_rxfifo.isra.0+0x40>
 800212e:	2b06      	cmp	r3, #6
 8002130:	d01c      	beq.n	800216c <usbd_int_rxfifo.isra.0+0x6c>
 8002132:	692a      	ldr	r2, [r5, #16]
 8002134:	6993      	ldr	r3, [r2, #24]
 8002136:	f043 0310 	orr.w	r3, r3, #16
 800213a:	6193      	str	r3, [r2, #24]
 800213c:	b002      	add	sp, #8
 800213e:	bd70      	pop	{r4, r5, r6, pc}
 8002140:	2e00      	cmp	r6, #0
 8002142:	d0f6      	beq.n	8002132 <usbd_int_rxfifo.isra.0+0x32>
 8002144:	2318      	movs	r3, #24
 8002146:	fb03 0404 	mla	r4, r3, r4, r0
 800214a:	4632      	mov	r2, r6
 800214c:	4b13      	ldr	r3, [pc, #76]	; (800219c <usbd_int_rxfifo.isra.0+0x9c>)
 800214e:	f8d4 1240 	ldr.w	r1, [r4, #576]	; 0x240
 8002152:	3010      	adds	r0, #16
 8002154:	4798      	blx	r3
 8002156:	f8d4 3240 	ldr.w	r3, [r4, #576]	; 0x240
 800215a:	4433      	add	r3, r6
 800215c:	f8c4 3240 	str.w	r3, [r4, #576]	; 0x240
 8002160:	f8d4 3248 	ldr.w	r3, [r4, #584]	; 0x248
 8002164:	4433      	add	r3, r6
 8002166:	f8c4 3248 	str.w	r3, [r4, #584]	; 0x248
 800216a:	e7e2      	b.n	8002132 <usbd_int_rxfifo.isra.0+0x32>
 800216c:	2318      	movs	r3, #24
 800216e:	fb03 0404 	mla	r4, r3, r4, r0
 8002172:	f3c2 32c1 	ubfx	r2, r2, #15, #2
 8002176:	f894 3238 	ldrb.w	r3, [r4, #568]	; 0x238
 800217a:	f003 030f 	and.w	r3, r3, #15
 800217e:	4313      	orrs	r3, r2
 8002180:	d1d7      	bne.n	8002132 <usbd_int_rxfifo.isra.0+0x32>
 8002182:	2e08      	cmp	r6, #8
 8002184:	d1d5      	bne.n	8002132 <usbd_int_rxfifo.isra.0+0x32>
 8002186:	4b05      	ldr	r3, [pc, #20]	; (800219c <usbd_int_rxfifo.isra.0+0x9c>)
 8002188:	f500 7169 	add.w	r1, r0, #932	; 0x3a4
 800218c:	4632      	mov	r2, r6
 800218e:	3010      	adds	r0, #16
 8002190:	4798      	blx	r3
 8002192:	f8d4 3248 	ldr.w	r3, [r4, #584]	; 0x248
 8002196:	3308      	adds	r3, #8
 8002198:	e7e5      	b.n	8002166 <usbd_int_rxfifo.isra.0+0x66>
 800219a:	bf00      	nop
 800219c:	259b      	movs	r5, #155	; 0x9b
 800219e:	0800      	lsrs	r0, r0, #32

080021a0 <usbd_int_epin.isra.0>:
 80021a0:	e92d 4ff0 	stmdb	sp!, {r4, r5, r6, r7, r8, r9, sl, fp, lr}
 80021a4:	6942      	ldr	r2, [r0, #20]
 80021a6:	6993      	ldr	r3, [r2, #24]
 80021a8:	69d2      	ldr	r2, [r2, #28]
 80021aa:	ea03 0802 	and.w	r8, r3, r2
 80021ae:	b085      	sub	sp, #20
 80021b0:	4604      	mov	r4, r0
 80021b2:	f008 083f 	and.w	r8, r8, #63	; 0x3f
 80021b6:	f04f 0900 	mov.w	r9, #0
 80021ba:	fa5f fb89 	uxtb.w	fp, r9
 80021be:	f1b8 0f00 	cmp.w	r8, #0
 80021c2:	d102      	bne.n	80021ca <usbd_int_epin.isra.0+0x2a>
 80021c4:	b005      	add	sp, #20
 80021c6:	e8bd 8ff0 	ldmia.w	sp!, {r4, r5, r6, r7, r8, r9, sl, fp, pc}
 80021ca:	f018 0f01 	tst.w	r8, #1
 80021ce:	d03e      	beq.n	800224e <usbd_int_epin.isra.0+0xae>
 80021d0:	4b34      	ldr	r3, [pc, #208]	; (80022a4 <usbd_int_epin.isra.0+0x104>)
 80021d2:	4659      	mov	r1, fp
 80021d4:	4620      	mov	r0, r4
 80021d6:	4798      	blx	r3
 80021d8:	9003      	str	r0, [sp, #12]
 80021da:	9b03      	ldr	r3, [sp, #12]
 80021dc:	07da      	lsls	r2, r3, #31
 80021de:	d508      	bpl.n	80021f2 <usbd_int_epin.isra.0+0x52>
 80021e0:	eb04 038b 	add.w	r3, r4, fp, lsl #2
 80021e4:	2101      	movs	r1, #1
 80021e6:	69db      	ldr	r3, [r3, #28]
 80021e8:	4620      	mov	r0, r4
 80021ea:	6099      	str	r1, [r3, #8]
 80021ec:	4b2e      	ldr	r3, [pc, #184]	; (80022a8 <usbd_int_epin.isra.0+0x108>)
 80021ee:	4659      	mov	r1, fp
 80021f0:	4798      	blx	r3
 80021f2:	9b03      	ldr	r3, [sp, #12]
 80021f4:	061b      	lsls	r3, r3, #24
 80021f6:	d52a      	bpl.n	800224e <usbd_int_epin.isra.0+0xae>
 80021f8:	2318      	movs	r3, #24
 80021fa:	fb03 f30b 	mul.w	r3, r3, fp
 80021fe:	18e1      	adds	r1, r4, r3
 8002200:	9300      	str	r3, [sp, #0]
 8002202:	e9d1 5337 	ldrd	r5, r3, [r1, #220]	; 0xdc
 8002206:	1aeb      	subs	r3, r5, r3
 8002208:	f8b1 50d4 	ldrh.w	r5, [r1, #212]	; 0xd4
 800220c:	429d      	cmp	r5, r3
 800220e:	bf28      	it	cs
 8002210:	461d      	movcs	r5, r3
 8002212:	2301      	movs	r3, #1
 8002214:	fa03 f30b 	lsl.w	r3, r3, fp
 8002218:	3503      	adds	r5, #3
 800221a:	43db      	mvns	r3, r3
 800221c:	f10b 0a06 	add.w	sl, fp, #6
 8002220:	08ad      	lsrs	r5, r5, #2
 8002222:	9301      	str	r3, [sp, #4]
 8002224:	eb04 0a8a 	add.w	sl, r4, sl, lsl #2
 8002228:	f8da 3004 	ldr.w	r3, [sl, #4]
 800222c:	699b      	ldr	r3, [r3, #24]
 800222e:	b29b      	uxth	r3, r3
 8002230:	42ab      	cmp	r3, r5
 8002232:	d305      	bcc.n	8002240 <usbd_int_epin.isra.0+0xa0>
 8002234:	9b00      	ldr	r3, [sp, #0]
 8002236:	18e6      	adds	r6, r4, r3
 8002238:	e9d6 7337 	ldrd	r7, r3, [r6, #220]	; 0xdc
 800223c:	429f      	cmp	r7, r3
 800223e:	d80b      	bhi.n	8002258 <usbd_int_epin.isra.0+0xb8>
 8002240:	fa5f f389 	uxtb.w	r3, r9
 8002244:	eb04 0383 	add.w	r3, r4, r3, lsl #2
 8002248:	2280      	movs	r2, #128	; 0x80
 800224a:	69db      	ldr	r3, [r3, #28]
 800224c:	609a      	str	r2, [r3, #8]
 800224e:	ea4f 0858 	mov.w	r8, r8, lsr #1
 8002252:	f109 0901 	add.w	r9, r9, #1
 8002256:	e7b0      	b.n	80021ba <usbd_int_epin.isra.0+0x1a>
 8002258:	1aff      	subs	r7, r7, r3
 800225a:	f8b6 30d4 	ldrh.w	r3, [r6, #212]	; 0xd4
 800225e:	f8d6 10d8 	ldr.w	r1, [r6, #216]	; 0xd8
 8002262:	f8df c048 	ldr.w	ip, [pc, #72]	; 80022ac <usbd_int_epin.isra.0+0x10c>
 8002266:	429f      	cmp	r7, r3
 8002268:	bf28      	it	cs
 800226a:	461f      	movcs	r7, r3
 800226c:	b2bb      	uxth	r3, r7
 800226e:	465a      	mov	r2, fp
 8002270:	f104 0010 	add.w	r0, r4, #16
 8002274:	47e0      	blx	ip
 8002276:	f8d6 30d8 	ldr.w	r3, [r6, #216]	; 0xd8
 800227a:	443b      	add	r3, r7
 800227c:	f8c6 30d8 	str.w	r3, [r6, #216]	; 0xd8
 8002280:	f8d6 30e0 	ldr.w	r3, [r6, #224]	; 0xe0
 8002284:	1cfd      	adds	r5, r7, #3
 8002286:	441f      	add	r7, r3
 8002288:	f8d6 30dc 	ldr.w	r3, [r6, #220]	; 0xdc
 800228c:	f8c6 70e0 	str.w	r7, [r6, #224]	; 0xe0
 8002290:	429f      	cmp	r7, r3
 8002292:	ea4f 0595 	mov.w	r5, r5, lsr #2
 8002296:	d1c7      	bne.n	8002228 <usbd_int_epin.isra.0+0x88>
 8002298:	6961      	ldr	r1, [r4, #20]
 800229a:	9a01      	ldr	r2, [sp, #4]
 800229c:	6b4b      	ldr	r3, [r1, #52]	; 0x34
 800229e:	4013      	ands	r3, r2
 80022a0:	634b      	str	r3, [r1, #52]	; 0x34
 80022a2:	e7c1      	b.n	8002228 <usbd_int_epin.isra.0+0x88>
 80022a4:	29a3      	cmp	r1, #163	; 0xa3
 80022a6:	0800      	lsrs	r0, r0, #32
 80022a8:	2b85      	cmp	r3, #133	; 0x85
 80022aa:	0800      	lsrs	r0, r0, #32
 80022ac:	257d      	movs	r5, #125	; 0x7d
 80022ae:	0800      	lsrs	r0, r0, #32

080022b0 <usbd_int_epout.isra.0>:
 80022b0:	6943      	ldr	r3, [r0, #20]
 80022b2:	e92d 47f3 	stmdb	sp!, {r0, r1, r4, r5, r6, r7, r8, r9, sl, lr}
 80022b6:	699c      	ldr	r4, [r3, #24]
 80022b8:	69db      	ldr	r3, [r3, #28]
 80022ba:	4f17      	ldr	r7, [pc, #92]	; (8002318 <usbd_int_epout.isra.0+0x68>)
 80022bc:	f8df 905c 	ldr.w	r9, [pc, #92]	; 800231c <usbd_int_epout.isra.0+0x6c>
 80022c0:	401c      	ands	r4, r3
 80022c2:	4605      	mov	r5, r0
 80022c4:	f3c4 4405 	ubfx	r4, r4, #16, #6
 80022c8:	f04f 0a00 	mov.w	sl, #0
 80022cc:	f04f 0808 	mov.w	r8, #8
 80022d0:	fa5f f18a 	uxtb.w	r1, sl
 80022d4:	b914      	cbnz	r4, 80022dc <usbd_int_epout.isra.0+0x2c>
 80022d6:	b002      	add	sp, #8
 80022d8:	e8bd 87f0 	ldmia.w	sp!, {r4, r5, r6, r7, r8, r9, sl, pc}
 80022dc:	07e0      	lsls	r0, r4, #31
 80022de:	d516      	bpl.n	800230e <usbd_int_epout.isra.0+0x5e>
 80022e0:	eb05 0681 	add.w	r6, r5, r1, lsl #2
 80022e4:	696a      	ldr	r2, [r5, #20]
 80022e6:	6b70      	ldr	r0, [r6, #52]	; 0x34
 80022e8:	6883      	ldr	r3, [r0, #8]
 80022ea:	6952      	ldr	r2, [r2, #20]
 80022ec:	4013      	ands	r3, r2
 80022ee:	9301      	str	r3, [sp, #4]
 80022f0:	9b01      	ldr	r3, [sp, #4]
 80022f2:	07da      	lsls	r2, r3, #31
 80022f4:	d503      	bpl.n	80022fe <usbd_int_epout.isra.0+0x4e>
 80022f6:	2301      	movs	r3, #1
 80022f8:	6083      	str	r3, [r0, #8]
 80022fa:	4628      	mov	r0, r5
 80022fc:	47c8      	blx	r9
 80022fe:	9b01      	ldr	r3, [sp, #4]
 8002300:	071b      	lsls	r3, r3, #28
 8002302:	d504      	bpl.n	800230e <usbd_int_epout.isra.0+0x5e>
 8002304:	4628      	mov	r0, r5
 8002306:	47b8      	blx	r7
 8002308:	6b73      	ldr	r3, [r6, #52]	; 0x34
 800230a:	f8c3 8008 	str.w	r8, [r3, #8]
 800230e:	0864      	lsrs	r4, r4, #1
 8002310:	f10a 0a01 	add.w	sl, sl, #1
 8002314:	e7dc      	b.n	80022d0 <usbd_int_epout.isra.0+0x20>
 8002316:	bf00      	nop
 8002318:	2a99      	cmp	r2, #153	; 0x99
 800231a:	0800      	lsrs	r0, r0, #32
 800231c:	2b1d      	cmp	r3, #29
 800231e:	0800      	lsrs	r0, r0, #32

08002320 <usbd_isr>:
 8002320:	b538      	push	{r3, r4, r5, lr}
 8002322:	6903      	ldr	r3, [r0, #16]
 8002324:	695a      	ldr	r2, [r3, #20]
 8002326:	07d2      	lsls	r2, r2, #31
 8002328:	4604      	mov	r4, r0
 800232a:	d44c      	bmi.n	80023c6 <usbd_isr+0xa6>
 800232c:	695d      	ldr	r5, [r3, #20]
 800232e:	699b      	ldr	r3, [r3, #24]
 8002330:	401d      	ands	r5, r3
 8002332:	d048      	beq.n	80023c6 <usbd_isr+0xa6>
 8002334:	032b      	lsls	r3, r5, #12
 8002336:	d501      	bpl.n	800233c <usbd_isr+0x1c>
 8002338:	4b23      	ldr	r3, [pc, #140]	; (80023c8 <usbd_isr+0xa8>)
 800233a:	4798      	blx	r3
 800233c:	0368      	lsls	r0, r5, #13
 800233e:	d502      	bpl.n	8002346 <usbd_isr+0x26>
 8002340:	4b22      	ldr	r3, [pc, #136]	; (80023cc <usbd_isr+0xac>)
 8002342:	4620      	mov	r0, r4
 8002344:	4798      	blx	r3
 8002346:	0529      	lsls	r1, r5, #20
 8002348:	d502      	bpl.n	8002350 <usbd_isr+0x30>
 800234a:	4b21      	ldr	r3, [pc, #132]	; (80023d0 <usbd_isr+0xb0>)
 800234c:	4620      	mov	r0, r4
 800234e:	4798      	blx	r3
 8002350:	2d00      	cmp	r5, #0
 8002352:	da06      	bge.n	8002362 <usbd_isr+0x42>
 8002354:	2303      	movs	r3, #3
 8002356:	f884 30ce 	strb.w	r3, [r4, #206]	; 0xce
 800235a:	6923      	ldr	r3, [r4, #16]
 800235c:	f04f 4200 	mov.w	r2, #2147483648	; 0x80000000
 8002360:	615a      	str	r2, [r3, #20]
 8002362:	072a      	lsls	r2, r5, #28
 8002364:	d508      	bpl.n	8002378 <usbd_isr+0x58>
 8002366:	f8d4 33b4 	ldr.w	r3, [r4, #948]	; 0x3b4
 800236a:	6a5b      	ldr	r3, [r3, #36]	; 0x24
 800236c:	b10b      	cbz	r3, 8002372 <usbd_isr+0x52>
 800236e:	4620      	mov	r0, r4
 8002370:	4798      	blx	r3
 8002372:	6923      	ldr	r3, [r4, #16]
 8002374:	2208      	movs	r2, #8
 8002376:	615a      	str	r2, [r3, #20]
 8002378:	06eb      	lsls	r3, r5, #27
 800237a:	d502      	bpl.n	8002382 <usbd_isr+0x62>
 800237c:	4b15      	ldr	r3, [pc, #84]	; (80023d4 <usbd_isr+0xb4>)
 800237e:	4620      	mov	r0, r4
 8002380:	4798      	blx	r3
 8002382:	04e8      	lsls	r0, r5, #19
 8002384:	d502      	bpl.n	800238c <usbd_isr+0x6c>
 8002386:	4b14      	ldr	r3, [pc, #80]	; (80023d8 <usbd_isr+0xb8>)
 8002388:	4620      	mov	r0, r4
 800238a:	4798      	blx	r3
 800238c:	04a9      	lsls	r1, r5, #18
 800238e:	d502      	bpl.n	8002396 <usbd_isr+0x76>
 8002390:	4b12      	ldr	r3, [pc, #72]	; (80023dc <usbd_isr+0xbc>)
 8002392:	4620      	mov	r0, r4
 8002394:	4798      	blx	r3
 8002396:	02ea      	lsls	r2, r5, #11
 8002398:	d509      	bpl.n	80023ae <usbd_isr+0x8e>
 800239a:	f8d4 33b4 	ldr.w	r3, [r4, #948]	; 0x3b4
 800239e:	6a9b      	ldr	r3, [r3, #40]	; 0x28
 80023a0:	b10b      	cbz	r3, 80023a6 <usbd_isr+0x86>
 80023a2:	4620      	mov	r0, r4
 80023a4:	4798      	blx	r3
 80023a6:	6923      	ldr	r3, [r4, #16]
 80023a8:	f44f 1280 	mov.w	r2, #1048576	; 0x100000
 80023ac:	615a      	str	r2, [r3, #20]
 80023ae:	02ab      	lsls	r3, r5, #10
 80023b0:	d509      	bpl.n	80023c6 <usbd_isr+0xa6>
 80023b2:	f8d4 33b4 	ldr.w	r3, [r4, #948]	; 0x3b4
 80023b6:	6adb      	ldr	r3, [r3, #44]	; 0x2c
 80023b8:	b10b      	cbz	r3, 80023be <usbd_isr+0x9e>
 80023ba:	4620      	mov	r0, r4
 80023bc:	4798      	blx	r3
 80023be:	6923      	ldr	r3, [r4, #16]
 80023c0:	f44f 1200 	mov.w	r2, #2097152	; 0x200000
 80023c4:	615a      	str	r2, [r3, #20]
 80023c6:	bd38      	pop	{r3, r4, r5, pc}
 80023c8:	22b1      	movs	r2, #177	; 0xb1
 80023ca:	0800      	lsrs	r0, r0, #32
 80023cc:	21a1      	movs	r1, #161	; 0xa1
 80023ce:	0800      	lsrs	r0, r0, #32
 80023d0:	1f8d      	subs	r5, r1, #6
 80023d2:	0800      	lsrs	r0, r0, #32
 80023d4:	2101      	movs	r1, #1
 80023d6:	0800      	lsrs	r0, r0, #32
 80023d8:	2045      	movs	r0, #69	; 0x45
 80023da:	0800      	lsrs	r0, r0, #32
 80023dc:	1ff9      	subs	r1, r7, #7
 80023de:	0800      	lsrs	r0, r0, #32

080023e0 <usb_core_reset.isra.0>:
 80023e0:	6903      	ldr	r3, [r0, #16]
 80023e2:	f043 0301 	orr.w	r3, r3, #1
 80023e6:	6103      	str	r3, [r0, #16]
 80023e8:	6903      	ldr	r3, [r0, #16]
 80023ea:	07db      	lsls	r3, r3, #31
 80023ec:	d4fc      	bmi.n	80023e8 <usb_core_reset.isra.0+0x8>
 80023ee:	4b01      	ldr	r3, [pc, #4]	; (80023f4 <usb_core_reset.isra.0+0x14>)
 80023f0:	2003      	movs	r0, #3
 80023f2:	4718      	bx	r3
 80023f4:	17f5      	asrs	r5, r6, #31
 80023f6:	0800      	lsrs	r0, r0, #32

080023f8 <usb_basic_init>:
 80023f8:	b570      	push	{r4, r5, r6, lr}
 80023fa:	460b      	mov	r3, r1
 80023fc:	2400      	movs	r4, #0
 80023fe:	2102      	movs	r1, #2
 8002400:	2a01      	cmp	r2, #1
 8002402:	7104      	strb	r4, [r0, #4]
 8002404:	7041      	strb	r1, [r0, #1]
 8002406:	7002      	strb	r2, [r0, #0]
 8002408:	d161      	bne.n	80024ce <usb_basic_init+0xd6>
 800240a:	f04f 45a0 	mov.w	r5, #1342177280	; 0x50000000
 800240e:	f44f 6681 	mov.w	r6, #1032	; 0x408
 8002412:	8046      	strh	r6, [r0, #2]
 8002414:	7141      	strb	r1, [r0, #5]
 8002416:	80c2      	strh	r2, [r0, #6]
 8002418:	60c5      	str	r5, [r0, #12]
 800241a:	22bc      	movs	r2, #188	; 0xbc
 800241c:	4e2d      	ldr	r6, [pc, #180]	; (80024d4 <usb_basic_init+0xdc>)
 800241e:	4621      	mov	r1, r4
 8002420:	4618      	mov	r0, r3
 8002422:	47b0      	blx	r6
 8002424:	4a2c      	ldr	r2, [pc, #176]	; (80024d8 <usb_basic_init+0xe0>)
 8002426:	6042      	str	r2, [r0, #4]
 8002428:	f5a2 6280 	sub.w	r2, r2, #1024	; 0x400
 800242c:	6082      	str	r2, [r0, #8]
 800242e:	3240      	adds	r2, #64	; 0x40
 8002430:	6782      	str	r2, [r0, #120]	; 0x78
 8002432:	f502 621c 	add.w	r2, r2, #2496	; 0x9c0
 8002436:	f8c0 20b8 	str.w	r2, [r0, #184]	; 0xb8
 800243a:	f5a2 62a0 	sub.w	r2, r2, #1280	; 0x500
 800243e:	60c2      	str	r2, [r0, #12]
 8002440:	f502 7200 	add.w	r2, r2, #512	; 0x200
 8002444:	6242      	str	r2, [r0, #36]	; 0x24
 8002446:	f5a2 72f0 	sub.w	r2, r2, #480	; 0x1e0
 800244a:	6102      	str	r2, [r0, #16]
 800244c:	f502 7200 	add.w	r2, r2, #512	; 0x200
 8002450:	6282      	str	r2, [r0, #40]	; 0x28
 8002452:	f5a2 72f0 	sub.w	r2, r2, #480	; 0x1e0
 8002456:	6142      	str	r2, [r0, #20]
 8002458:	f502 7200 	add.w	r2, r2, #512	; 0x200
 800245c:	62c2      	str	r2, [r0, #44]	; 0x2c
 800245e:	f5a2 72f0 	sub.w	r2, r2, #480	; 0x1e0
 8002462:	6182      	str	r2, [r0, #24]
 8002464:	f502 7200 	add.w	r2, r2, #512	; 0x200
 8002468:	6302      	str	r2, [r0, #48]	; 0x30
 800246a:	f5a2 62cc 	sub.w	r2, r2, #1632	; 0x660
 800246e:	63c2      	str	r2, [r0, #60]	; 0x3c
 8002470:	f502 6230 	add.w	r2, r2, #2816	; 0xb00
 8002474:	67c2      	str	r2, [r0, #124]	; 0x7c
 8002476:	f5a2 622e 	sub.w	r2, r2, #2784	; 0xae0
 800247a:	6402      	str	r2, [r0, #64]	; 0x40
 800247c:	f502 52d7 	add.w	r2, r2, #6880	; 0x1ae0
 8002480:	f8c0 2080 	str.w	r2, [r0, #128]	; 0x80
 8002484:	f5a2 52d6 	sub.w	r2, r2, #6848	; 0x1ac0
 8002488:	6442      	str	r2, [r0, #68]	; 0x44
 800248a:	f502 522b 	add.w	r2, r2, #10944	; 0x2ac0
 800248e:	f8c0 2084 	str.w	r2, [r0, #132]	; 0x84
 8002492:	4a12      	ldr	r2, [pc, #72]	; (80024dc <usb_basic_init+0xe4>)
 8002494:	6482      	str	r2, [r0, #72]	; 0x48
 8002496:	4a12      	ldr	r2, [pc, #72]	; (80024e0 <usb_basic_init+0xe8>)
 8002498:	f8c0 2088 	str.w	r2, [r0, #136]	; 0x88
 800249c:	f5a2 526a 	sub.w	r2, r2, #14976	; 0x3a80
 80024a0:	64c2      	str	r2, [r0, #76]	; 0x4c
 80024a2:	f04f 2250 	mov.w	r2, #1342197760	; 0x50005000
 80024a6:	f8c0 208c 	str.w	r2, [r0, #140]	; 0x8c
 80024aa:	4a0e      	ldr	r2, [pc, #56]	; (80024e4 <usb_basic_init+0xec>)
 80024ac:	6502      	str	r2, [r0, #80]	; 0x50
 80024ae:	4a0e      	ldr	r2, [pc, #56]	; (80024e8 <usb_basic_init+0xf0>)
 80024b0:	f8c0 2090 	str.w	r2, [r0, #144]	; 0x90
 80024b4:	4a0d      	ldr	r2, [pc, #52]	; (80024ec <usb_basic_init+0xf4>)
 80024b6:	6542      	str	r2, [r0, #84]	; 0x54
 80024b8:	4a0d      	ldr	r2, [pc, #52]	; (80024f0 <usb_basic_init+0xf8>)
 80024ba:	f8c0 2094 	str.w	r2, [r0, #148]	; 0x94
 80024be:	4a0d      	ldr	r2, [pc, #52]	; (80024f4 <usb_basic_init+0xfc>)
 80024c0:	6582      	str	r2, [r0, #88]	; 0x58
 80024c2:	4a0d      	ldr	r2, [pc, #52]	; (80024f8 <usb_basic_init+0x100>)
 80024c4:	6005      	str	r5, [r0, #0]
 80024c6:	f8c0 2098 	str.w	r2, [r0, #152]	; 0x98
 80024ca:	4620      	mov	r0, r4
 80024cc:	bd70      	pop	{r4, r5, r6, pc}
 80024ce:	2001      	movs	r0, #1
 80024d0:	e7fc      	b.n	80024cc <usb_basic_init+0xd4>
 80024d2:	bf00      	nop
 80024d4:	7055      	strb	r5, [r2, #1]
 80024d6:	0800      	lsrs	r0, r0, #32
 80024d8:	0800      	lsrs	r0, r0, #32
 80024da:	5000      	str	r0, [r0, r0]
 80024dc:	0560      	lsls	r0, r4, #21
 80024de:	5000      	str	r0, [r0, r0]
 80024e0:	4000      	ands	r0, r0
 80024e2:	5000      	str	r0, [r0, r0]
 80024e4:	05a0      	lsls	r0, r4, #22
 80024e6:	5000      	str	r0, [r0, r0]
 80024e8:	6000      	str	r0, [r0, #0]
 80024ea:	5000      	str	r0, [r0, r0]
 80024ec:	05c0      	lsls	r0, r0, #23
 80024ee:	5000      	str	r0, [r0, r0]
 80024f0:	7000      	strb	r0, [r0, #0]
 80024f2:	5000      	str	r0, [r0, r0]
 80024f4:	05e0      	lsls	r0, r4, #23
 80024f6:	5000      	str	r0, [r0, r0]
 80024f8:	8000      	strh	r0, [r0, #0]
 80024fa:	5000      	str	r0, [r0, r0]

080024fc <usb_core_init>:
 80024fc:	b530      	push	{r4, r5, lr}
 80024fe:	b085      	sub	sp, #20
 8002500:	ac04      	add	r4, sp, #16
 8002502:	e904 000f 	stmdb	r4, {r0, r1, r2, r3}
 8002506:	f89d 3005 	ldrb.w	r3, [sp, #5]
 800250a:	9d08      	ldr	r5, [sp, #32]
 800250c:	f89d 4006 	ldrb.w	r4, [sp, #6]
 8002510:	6828      	ldr	r0, [r5, #0]
 8002512:	4a18      	ldr	r2, [pc, #96]	; (8002574 <usb_core_init+0x78>)
 8002514:	2b01      	cmp	r3, #1
 8002516:	d116      	bne.n	8002546 <usb_core_init+0x4a>
 8002518:	6b83      	ldr	r3, [r0, #56]	; 0x38
 800251a:	f423 3380 	bic.w	r3, r3, #65536	; 0x10000
 800251e:	6383      	str	r3, [r0, #56]	; 0x38
 8002520:	b11c      	cbz	r4, 800252a <usb_core_init+0x2e>
 8002522:	6b83      	ldr	r3, [r0, #56]	; 0x38
 8002524:	f443 1380 	orr.w	r3, r3, #1048576	; 0x100000
 8002528:	6383      	str	r3, [r0, #56]	; 0x38
 800252a:	68c3      	ldr	r3, [r0, #12]
 800252c:	f423 1300 	bic.w	r3, r3, #2097152	; 0x200000
 8002530:	f023 0340 	bic.w	r3, r3, #64	; 0x40
 8002534:	60c3      	str	r3, [r0, #12]
 8002536:	68c3      	ldr	r3, [r0, #12]
 8002538:	f423 1380 	bic.w	r3, r3, #1048576	; 0x100000
 800253c:	60c3      	str	r3, [r0, #12]
 800253e:	4790      	blx	r2
 8002540:	2000      	movs	r0, #0
 8002542:	b005      	add	sp, #20
 8002544:	bd30      	pop	{r4, r5, pc}
 8002546:	68c3      	ldr	r3, [r0, #12]
 8002548:	f043 0340 	orr.w	r3, r3, #64	; 0x40
 800254c:	60c3      	str	r3, [r0, #12]
 800254e:	4790      	blx	r2
 8002550:	682b      	ldr	r3, [r5, #0]
 8002552:	6b9a      	ldr	r2, [r3, #56]	; 0x38
 8002554:	f442 2250 	orr.w	r2, r2, #851968	; 0xd0000
 8002558:	639a      	str	r2, [r3, #56]	; 0x38
 800255a:	6b9a      	ldr	r2, [r3, #56]	; 0x38
 800255c:	f442 1200 	orr.w	r2, r2, #2097152	; 0x200000
 8002560:	639a      	str	r2, [r3, #56]	; 0x38
 8002562:	b11c      	cbz	r4, 800256c <usb_core_init+0x70>
 8002564:	6b9a      	ldr	r2, [r3, #56]	; 0x38
 8002566:	f442 1280 	orr.w	r2, r2, #1048576	; 0x100000
 800256a:	639a      	str	r2, [r3, #56]	; 0x38
 800256c:	4b02      	ldr	r3, [pc, #8]	; (8002578 <usb_core_init+0x7c>)
 800256e:	2014      	movs	r0, #20
 8002570:	4798      	blx	r3
 8002572:	e7e5      	b.n	8002540 <usb_core_init+0x44>
 8002574:	23e1      	movs	r3, #225	; 0xe1
 8002576:	0800      	lsrs	r0, r0, #32
 8002578:	17e1      	asrs	r1, r4, #31
 800257a:	0800      	lsrs	r0, r0, #32

0800257c <usb_txfifo_write>:
 800257c:	eb00 0082 	add.w	r0, r0, r2, lsl #2
 8002580:	3303      	adds	r3, #3
 8002582:	089b      	lsrs	r3, r3, #2
 8002584:	6fc2      	ldr	r2, [r0, #124]	; 0x7c
 8002586:	eb01 0383 	add.w	r3, r1, r3, lsl #2
 800258a:	4299      	cmp	r1, r3
 800258c:	d101      	bne.n	8002592 <usb_txfifo_write+0x16>
 800258e:	2000      	movs	r0, #0
 8002590:	4770      	bx	lr
 8002592:	f851 0b04 	ldr.w	r0, [r1], #4
 8002596:	6010      	str	r0, [r2, #0]
 8002598:	e7f7      	b.n	800258a <usb_txfifo_write+0xe>

0800259a <usb_rxfifo_read>:
 800259a:	3203      	adds	r2, #3
 800259c:	0892      	lsrs	r2, r2, #2
 800259e:	6fc3      	ldr	r3, [r0, #124]	; 0x7c
 80025a0:	eb01 0282 	add.w	r2, r1, r2, lsl #2
 80025a4:	4291      	cmp	r1, r2
 80025a6:	d101      	bne.n	80025ac <usb_rxfifo_read+0x12>
 80025a8:	4608      	mov	r0, r1
 80025aa:	4770      	bx	lr
 80025ac:	6818      	ldr	r0, [r3, #0]
 80025ae:	f841 0b04 	str.w	r0, [r1], #4
 80025b2:	e7f7      	b.n	80025a4 <usb_rxfifo_read+0xa>

080025b4 <usb_txfifo_flush>:
 80025b4:	6803      	ldr	r3, [r0, #0]
 80025b6:	0189      	lsls	r1, r1, #6
 80025b8:	f041 0120 	orr.w	r1, r1, #32
 80025bc:	b510      	push	{r4, lr}
 80025be:	6119      	str	r1, [r3, #16]
 80025c0:	691c      	ldr	r4, [r3, #16]
 80025c2:	f014 0420 	ands.w	r4, r4, #32
 80025c6:	d1fb      	bne.n	80025c0 <usb_txfifo_flush+0xc>
 80025c8:	4b02      	ldr	r3, [pc, #8]	; (80025d4 <usb_txfifo_flush+0x20>)
 80025ca:	2003      	movs	r0, #3
 80025cc:	4798      	blx	r3
 80025ce:	4620      	mov	r0, r4
 80025d0:	bd10      	pop	{r4, pc}
 80025d2:	bf00      	nop
 80025d4:	17f5      	asrs	r5, r6, #31
 80025d6:	0800      	lsrs	r0, r0, #32

080025d8 <usb_rxfifo_flush>:
 80025d8:	6803      	ldr	r3, [r0, #0]
 80025da:	2210      	movs	r2, #16
 80025dc:	b510      	push	{r4, lr}
 80025de:	611a      	str	r2, [r3, #16]
 80025e0:	691c      	ldr	r4, [r3, #16]
 80025e2:	f014 0410 	ands.w	r4, r4, #16
 80025e6:	d1fb      	bne.n	80025e0 <usb_rxfifo_flush+0x8>
 80025e8:	4b02      	ldr	r3, [pc, #8]	; (80025f4 <usb_rxfifo_flush+0x1c>)
 80025ea:	2003      	movs	r0, #3
 80025ec:	4798      	blx	r3
 80025ee:	4620      	mov	r0, r4
 80025f0:	bd10      	pop	{r4, pc}
 80025f2:	bf00      	nop
 80025f4:	17f5      	asrs	r5, r6, #31
 80025f6:	0800      	lsrs	r0, r0, #32

080025f8 <usb_set_txfifo>:
 80025f8:	6800      	ldr	r0, [r0, #0]
 80025fa:	b570      	push	{r4, r5, r6, lr}
 80025fc:	0412      	lsls	r2, r2, #16
 80025fe:	6a44      	ldr	r4, [r0, #36]	; 0x24
 8002600:	b911      	cbnz	r1, 8002608 <usb_set_txfifo+0x10>
 8002602:	4322      	orrs	r2, r4
 8002604:	6282      	str	r2, [r0, #40]	; 0x28
 8002606:	bd70      	pop	{r4, r5, r6, pc}
 8002608:	6a83      	ldr	r3, [r0, #40]	; 0x28
 800260a:	1e4d      	subs	r5, r1, #1
 800260c:	eb04 4413 	add.w	r4, r4, r3, lsr #16
 8002610:	2300      	movs	r3, #0
 8002612:	1c5e      	adds	r6, r3, #1
 8002614:	b2db      	uxtb	r3, r3
 8002616:	429d      	cmp	r5, r3
 8002618:	d805      	bhi.n	8002626 <usb_set_txfifo+0x2e>
 800261a:	313f      	adds	r1, #63	; 0x3f
 800261c:	eb00 0081 	add.w	r0, r0, r1, lsl #2
 8002620:	4322      	orrs	r2, r4
 8002622:	6042      	str	r2, [r0, #4]
 8002624:	e7ef      	b.n	8002606 <usb_set_txfifo+0xe>
 8002626:	3340      	adds	r3, #64	; 0x40
 8002628:	eb00 0383 	add.w	r3, r0, r3, lsl #2
 800262c:	685b      	ldr	r3, [r3, #4]
 800262e:	eb04 4413 	add.w	r4, r4, r3, lsr #16
 8002632:	4633      	mov	r3, r6
 8002634:	e7ed      	b.n	8002612 <usb_set_txfifo+0x1a>

08002636 <usb_curmode_set>:
 8002636:	6803      	ldr	r3, [r0, #0]
 8002638:	68da      	ldr	r2, [r3, #12]
 800263a:	f022 42c0 	bic.w	r2, r2, #1610612736	; 0x60000000
 800263e:	60da      	str	r2, [r3, #12]
 8002640:	b921      	cbnz	r1, 800264c <usb_curmode_set+0x16>
 8002642:	68da      	ldr	r2, [r3, #12]
 8002644:	f042 4280 	orr.w	r2, r2, #1073741824	; 0x40000000
 8002648:	60da      	str	r2, [r3, #12]
 800264a:	4770      	bx	lr
 800264c:	2901      	cmp	r1, #1
 800264e:	d1fc      	bne.n	800264a <usb_curmode_set+0x14>
 8002650:	68da      	ldr	r2, [r3, #12]
 8002652:	f042 5200 	orr.w	r2, r2, #536870912	; 0x20000000
 8002656:	e7f7      	b.n	8002648 <usb_curmode_set+0x12>

08002658 <usb_devint_enable>:
 8002658:	6903      	ldr	r3, [r0, #16]
 800265a:	f04f 32ff 	mov.w	r2, #4294967295
 800265e:	605a      	str	r2, [r3, #4]
 8002660:	f06f 4280 	mvn.w	r2, #1073741824	; 0x40000000
 8002664:	615a      	str	r2, [r3, #20]
 8002666:	4a07      	ldr	r2, [pc, #28]	; (8002684 <usb_devint_enable+0x2c>)
 8002668:	619a      	str	r2, [r3, #24]
 800266a:	7902      	ldrb	r2, [r0, #4]
 800266c:	b91a      	cbnz	r2, 8002676 <usb_devint_enable+0x1e>
 800266e:	699a      	ldr	r2, [r3, #24]
 8002670:	f042 0210 	orr.w	r2, r2, #16
 8002674:	619a      	str	r2, [r3, #24]
 8002676:	6999      	ldr	r1, [r3, #24]
 8002678:	4a03      	ldr	r2, [pc, #12]	; (8002688 <usb_devint_enable+0x30>)
 800267a:	430a      	orrs	r2, r1
 800267c:	619a      	str	r2, [r3, #24]
 800267e:	2000      	movs	r0, #0
 8002680:	4770      	bx	lr
 8002682:	bf00      	nop
 8002684:	0800      	lsrs	r0, r0, #32
 8002686:	8000      	strh	r0, [r0, #0]
 8002688:	3008      	adds	r0, #8
 800268a:	003c      	movs	r4, r7

0800268c <usb_devcore_init>:
 800268c:	b5f8      	push	{r3, r4, r5, r6, r7, lr}
 800268e:	f8d0 30c8 	ldr.w	r3, [r0, #200]	; 0xc8
 8002692:	2100      	movs	r1, #0
 8002694:	6019      	str	r1, [r3, #0]
 8002696:	6943      	ldr	r3, [r0, #20]
 8002698:	681a      	ldr	r2, [r3, #0]
 800269a:	f422 52c0 	bic.w	r2, r2, #6144	; 0x1800
 800269e:	601a      	str	r2, [r3, #0]
 80026a0:	681a      	ldr	r2, [r3, #0]
 80026a2:	601a      	str	r2, [r3, #0]
 80026a4:	681a      	ldr	r2, [r3, #0]
 80026a6:	4605      	mov	r5, r0
 80026a8:	f022 0203 	bic.w	r2, r2, #3
 80026ac:	601a      	str	r2, [r3, #0]
 80026ae:	f815 7b10 	ldrb.w	r7, [r5], #16
 80026b2:	2f01      	cmp	r7, #1
 80026b4:	4604      	mov	r4, r0
 80026b6:	d116      	bne.n	80026e6 <usb_devcore_init+0x5a>
 80026b8:	681a      	ldr	r2, [r3, #0]
 80026ba:	4e28      	ldr	r6, [pc, #160]	; (800275c <usb_devcore_init+0xd0>)
 80026bc:	f042 0203 	orr.w	r2, r2, #3
 80026c0:	601a      	str	r2, [r3, #0]
 80026c2:	6903      	ldr	r3, [r0, #16]
 80026c4:	2280      	movs	r2, #128	; 0x80
 80026c6:	625a      	str	r2, [r3, #36]	; 0x24
 80026c8:	4628      	mov	r0, r5
 80026ca:	2220      	movs	r2, #32
 80026cc:	47b0      	blx	r6
 80026ce:	2220      	movs	r2, #32
 80026d0:	4639      	mov	r1, r7
 80026d2:	4628      	mov	r0, r5
 80026d4:	47b0      	blx	r6
 80026d6:	2220      	movs	r2, #32
 80026d8:	2102      	movs	r1, #2
 80026da:	4628      	mov	r0, r5
 80026dc:	47b0      	blx	r6
 80026de:	2220      	movs	r2, #32
 80026e0:	2103      	movs	r1, #3
 80026e2:	4628      	mov	r0, r5
 80026e4:	47b0      	blx	r6
 80026e6:	2110      	movs	r1, #16
 80026e8:	4b1d      	ldr	r3, [pc, #116]	; (8002760 <usb_devcore_init+0xd4>)
 80026ea:	4628      	mov	r0, r5
 80026ec:	4798      	blx	r3
 80026ee:	4b1d      	ldr	r3, [pc, #116]	; (8002764 <usb_devcore_init+0xd8>)
 80026f0:	4628      	mov	r0, r5
 80026f2:	4798      	blx	r3
 80026f4:	6961      	ldr	r1, [r4, #20]
 80026f6:	2300      	movs	r3, #0
 80026f8:	f04f 32ff 	mov.w	r2, #4294967295
 80026fc:	610b      	str	r3, [r1, #16]
 80026fe:	614b      	str	r3, [r1, #20]
 8002700:	618a      	str	r2, [r1, #24]
 8002702:	61cb      	str	r3, [r1, #28]
 8002704:	f894 c003 	ldrb.w	ip, [r4, #3]
 8002708:	f104 051c 	add.w	r5, r4, #28
 800270c:	4618      	mov	r0, r3
 800270e:	27ff      	movs	r7, #255	; 0xff
 8002710:	b2da      	uxtb	r2, r3
 8002712:	4594      	cmp	ip, r2
 8002714:	d808      	bhi.n	8002728 <usb_devcore_init+0x9c>
 8002716:	690b      	ldr	r3, [r1, #16]
 8002718:	f043 0310 	orr.w	r3, r3, #16
 800271c:	610b      	str	r3, [r1, #16]
 800271e:	4620      	mov	r0, r4
 8002720:	4b11      	ldr	r3, [pc, #68]	; (8002768 <usb_devcore_init+0xdc>)
 8002722:	4798      	blx	r3
 8002724:	2000      	movs	r0, #0
 8002726:	bdf8      	pop	{r3, r4, r5, r6, r7, pc}
 8002728:	f855 2b04 	ldr.w	r2, [r5], #4
 800272c:	6816      	ldr	r6, [r2, #0]
 800272e:	2e00      	cmp	r6, #0
 8002730:	bfb7      	itett	lt
 8002732:	6816      	ldrlt	r6, [r2, #0]
 8002734:	6010      	strge	r0, [r2, #0]
 8002736:	f046 4690 	orrlt.w	r6, r6, #1207959552	; 0x48000000
 800273a:	6016      	strlt	r6, [r2, #0]
 800273c:	6110      	str	r0, [r2, #16]
 800273e:	6097      	str	r7, [r2, #8]
 8002740:	696a      	ldr	r2, [r5, #20]
 8002742:	6816      	ldr	r6, [r2, #0]
 8002744:	2e00      	cmp	r6, #0
 8002746:	bfb7      	itett	lt
 8002748:	6816      	ldrlt	r6, [r2, #0]
 800274a:	6010      	strge	r0, [r2, #0]
 800274c:	f046 4690 	orrlt.w	r6, r6, #1207959552	; 0x48000000
 8002750:	6016      	strlt	r6, [r2, #0]
 8002752:	3301      	adds	r3, #1
 8002754:	6110      	str	r0, [r2, #16]
 8002756:	6097      	str	r7, [r2, #8]
 8002758:	e7da      	b.n	8002710 <usb_devcore_init+0x84>
 800275a:	bf00      	nop
 800275c:	25f9      	movs	r5, #249	; 0xf9
 800275e:	0800      	lsrs	r0, r0, #32
 8002760:	25b5      	movs	r5, #181	; 0xb5
 8002762:	0800      	lsrs	r0, r0, #32
 8002764:	25d9      	movs	r5, #217	; 0xd9
 8002766:	0800      	lsrs	r0, r0, #32
 8002768:	2659      	movs	r6, #89	; 0x59
 800276a:	0800      	lsrs	r0, r0, #32

0800276c <usb_transc_active>:
 800276c:	780b      	ldrb	r3, [r1, #0]
 800276e:	f991 2000 	ldrsb.w	r2, [r1]
 8002772:	f003 030f 	and.w	r3, r3, #15
 8002776:	b5f0      	push	{r4, r5, r6, r7, lr}
 8002778:	6944      	ldr	r4, [r0, #20]
 800277a:	eb00 0083 	add.w	r0, r0, r3, lsl #2
 800277e:	2a00      	cmp	r2, #0
 8002780:	bfb4      	ite	lt
 8002782:	69c2      	ldrlt	r2, [r0, #28]
 8002784:	6b42      	ldrge	r2, [r0, #52]	; 0x34
 8002786:	68a6      	ldr	r6, [r4, #8]
 8002788:	bfa2      	ittt	ge
 800278a:	2501      	movge	r5, #1
 800278c:	f103 0010 	addge.w	r0, r3, #16
 8002790:	fa05 f000 	lslge.w	r0, r5, r0
 8002794:	6815      	ldr	r5, [r2, #0]
 8002796:	bfbc      	itt	lt
 8002798:	2001      	movlt	r0, #1
 800279a:	4098      	lsllt	r0, r3
 800279c:	042d      	lsls	r5, r5, #16
 800279e:	d416      	bmi.n	80027ce <usb_transc_active+0x62>
 80027a0:	6817      	ldr	r7, [r2, #0]
 80027a2:	4d0f      	ldr	r5, [pc, #60]	; (80027e0 <usb_transc_active+0x74>)
 80027a4:	403d      	ands	r5, r7
 80027a6:	6015      	str	r5, [r2, #0]
 80027a8:	b9b3      	cbnz	r3, 80027d8 <usb_transc_active+0x6c>
 80027aa:	4d0e      	ldr	r5, [pc, #56]	; (80027e4 <usb_transc_active+0x78>)
 80027ac:	6817      	ldr	r7, [r2, #0]
 80027ae:	f006 0606 	and.w	r6, r6, #6
 80027b2:	5dad      	ldrb	r5, [r5, r6]
 80027b4:	433d      	orrs	r5, r7
 80027b6:	6015      	str	r5, [r2, #0]
 80027b8:	7849      	ldrb	r1, [r1, #1]
 80027ba:	6815      	ldr	r5, [r2, #0]
 80027bc:	059b      	lsls	r3, r3, #22
 80027be:	ea43 4381 	orr.w	r3, r3, r1, lsl #18
 80027c2:	432b      	orrs	r3, r5
 80027c4:	f043 5380 	orr.w	r3, r3, #268435456	; 0x10000000
 80027c8:	f443 4300 	orr.w	r3, r3, #32768	; 0x8000
 80027cc:	6013      	str	r3, [r2, #0]
 80027ce:	69e3      	ldr	r3, [r4, #28]
 80027d0:	4318      	orrs	r0, r3
 80027d2:	61e0      	str	r0, [r4, #28]
 80027d4:	2000      	movs	r0, #0
 80027d6:	bdf0      	pop	{r4, r5, r6, r7, pc}
 80027d8:	6816      	ldr	r6, [r2, #0]
 80027da:	888d      	ldrh	r5, [r1, #4]
 80027dc:	4335      	orrs	r5, r6
 80027de:	e7ea      	b.n	80027b6 <usb_transc_active+0x4a>
 80027e0:	f800 fc33 	strb.w	pc, [r0, #-51]
 80027e4:	76a0      	strb	r0, [r4, #26]
 80027e6:	0800      	lsrs	r0, r0, #32

080027e8 <usb_transc_deactivate>:
 80027e8:	f991 2000 	ldrsb.w	r2, [r1]
 80027ec:	780b      	ldrb	r3, [r1, #0]
 80027ee:	2a00      	cmp	r2, #0
 80027f0:	f003 030f 	and.w	r3, r3, #15
 80027f4:	f04f 0201 	mov.w	r2, #1
 80027f8:	bfab      	itete	ge
 80027fa:	f103 0110 	addge.w	r1, r3, #16
 80027fe:	409a      	lsllt	r2, r3
 8002800:	eb00 0383 	addge.w	r3, r0, r3, lsl #2
 8002804:	eb00 0383 	addlt.w	r3, r0, r3, lsl #2
 8002808:	bfaa      	itet	ge
 800280a:	408a      	lslge	r2, r1
 800280c:	69d9      	ldrlt	r1, [r3, #28]
 800280e:	6b59      	ldrge	r1, [r3, #52]	; 0x34
 8002810:	680b      	ldr	r3, [r1, #0]
 8002812:	f423 4300 	bic.w	r3, r3, #32768	; 0x8000
 8002816:	600b      	str	r3, [r1, #0]
 8002818:	6941      	ldr	r1, [r0, #20]
 800281a:	69cb      	ldr	r3, [r1, #28]
 800281c:	ea23 0202 	bic.w	r2, r3, r2
 8002820:	61ca      	str	r2, [r1, #28]
 8002822:	2000      	movs	r0, #0
 8002824:	4770      	bx	lr
	...

08002828 <usb_transc_inxfer>:
 8002828:	780a      	ldrb	r2, [r1, #0]
 800282a:	f002 020f 	and.w	r2, r2, #15
 800282e:	b573      	push	{r0, r1, r4, r5, r6, lr}
 8002830:	eb00 0382 	add.w	r3, r0, r2, lsl #2
 8002834:	69dc      	ldr	r4, [r3, #28]
 8002836:	6823      	ldr	r3, [r4, #0]
 8002838:	9300      	str	r3, [sp, #0]
 800283a:	6923      	ldr	r3, [r4, #16]
 800283c:	9301      	str	r3, [sp, #4]
 800283e:	9b01      	ldr	r3, [sp, #4]
 8002840:	f003 4360 	and.w	r3, r3, #3758096384	; 0xe0000000
 8002844:	9301      	str	r3, [sp, #4]
 8002846:	68cb      	ldr	r3, [r1, #12]
 8002848:	bb4b      	cbnz	r3, 800289e <usb_transc_inxfer+0x76>
 800284a:	9b01      	ldr	r3, [sp, #4]
 800284c:	f443 2300 	orr.w	r3, r3, #524288	; 0x80000
 8002850:	9301      	str	r3, [sp, #4]
 8002852:	9b01      	ldr	r3, [sp, #4]
 8002854:	6123      	str	r3, [r4, #16]
 8002856:	784d      	ldrb	r5, [r1, #1]
 8002858:	2d01      	cmp	r5, #1
 800285a:	d10a      	bne.n	8002872 <usb_transc_inxfer+0x4a>
 800285c:	6943      	ldr	r3, [r0, #20]
 800285e:	689b      	ldr	r3, [r3, #8]
 8002860:	f413 7f80 	tst.w	r3, #256	; 0x100
 8002864:	9b00      	ldr	r3, [sp, #0]
 8002866:	bf14      	ite	ne
 8002868:	f043 5380 	orrne.w	r3, r3, #268435456	; 0x10000000
 800286c:	f043 5300 	orreq.w	r3, r3, #536870912	; 0x20000000
 8002870:	9300      	str	r3, [sp, #0]
 8002872:	9b00      	ldr	r3, [sp, #0]
 8002874:	f043 4304 	orr.w	r3, r3, #2214592512	; 0x84000000
 8002878:	9300      	str	r3, [sp, #0]
 800287a:	9b00      	ldr	r3, [sp, #0]
 800287c:	6023      	str	r3, [r4, #0]
 800287e:	7903      	ldrb	r3, [r0, #4]
 8002880:	b953      	cbnz	r3, 8002898 <usb_transc_inxfer+0x70>
 8002882:	2d01      	cmp	r5, #1
 8002884:	68cb      	ldr	r3, [r1, #12]
 8002886:	d027      	beq.n	80028d8 <usb_transc_inxfer+0xb0>
 8002888:	b133      	cbz	r3, 8002898 <usb_transc_inxfer+0x70>
 800288a:	6941      	ldr	r1, [r0, #20]
 800288c:	2301      	movs	r3, #1
 800288e:	6b48      	ldr	r0, [r1, #52]	; 0x34
 8002890:	fa03 f202 	lsl.w	r2, r3, r2
 8002894:	4302      	orrs	r2, r0
 8002896:	634a      	str	r2, [r1, #52]	; 0x34
 8002898:	2000      	movs	r0, #0
 800289a:	b002      	add	sp, #8
 800289c:	bd70      	pop	{r4, r5, r6, pc}
 800289e:	888e      	ldrh	r6, [r1, #4]
 80028a0:	b992      	cbnz	r2, 80028c8 <usb_transc_inxfer+0xa0>
 80028a2:	42b3      	cmp	r3, r6
 80028a4:	bf94      	ite	ls
 80028a6:	60cb      	strls	r3, [r1, #12]
 80028a8:	60ce      	strhi	r6, [r1, #12]
 80028aa:	9b01      	ldr	r3, [sp, #4]
 80028ac:	f443 2300 	orr.w	r3, r3, #524288	; 0x80000
 80028b0:	9301      	str	r3, [sp, #4]
 80028b2:	9b01      	ldr	r3, [sp, #4]
 80028b4:	68cd      	ldr	r5, [r1, #12]
 80028b6:	432b      	orrs	r3, r5
 80028b8:	9301      	str	r3, [sp, #4]
 80028ba:	784b      	ldrb	r3, [r1, #1]
 80028bc:	2b01      	cmp	r3, #1
 80028be:	d1c8      	bne.n	8002852 <usb_transc_inxfer+0x2a>
 80028c0:	9b01      	ldr	r3, [sp, #4]
 80028c2:	f043 5300 	orr.w	r3, r3, #536870912	; 0x20000000
 80028c6:	e7c3      	b.n	8002850 <usb_transc_inxfer+0x28>
 80028c8:	9d01      	ldr	r5, [sp, #4]
 80028ca:	3b01      	subs	r3, #1
 80028cc:	4433      	add	r3, r6
 80028ce:	fbb3 f3f6 	udiv	r3, r3, r6
 80028d2:	ea45 43c3 	orr.w	r3, r5, r3, lsl #19
 80028d6:	e7eb      	b.n	80028b0 <usb_transc_inxfer+0x88>
 80028d8:	6889      	ldr	r1, [r1, #8]
 80028da:	4c02      	ldr	r4, [pc, #8]	; (80028e4 <usb_transc_inxfer+0xbc>)
 80028dc:	b29b      	uxth	r3, r3
 80028de:	3010      	adds	r0, #16
 80028e0:	47a0      	blx	r4
 80028e2:	e7d9      	b.n	8002898 <usb_transc_inxfer+0x70>
 80028e4:	257d      	movs	r5, #125	; 0x7d
 80028e6:	0800      	lsrs	r0, r0, #32

080028e8 <usb_transc_outxfer>:
 80028e8:	b570      	push	{r4, r5, r6, lr}
 80028ea:	780e      	ldrb	r6, [r1, #0]
 80028ec:	68ca      	ldr	r2, [r1, #12]
 80028ee:	888d      	ldrh	r5, [r1, #4]
 80028f0:	f006 060f 	and.w	r6, r6, #15
 80028f4:	eb00 0086 	add.w	r0, r0, r6, lsl #2
 80028f8:	6b44      	ldr	r4, [r0, #52]	; 0x34
 80028fa:	6820      	ldr	r0, [r4, #0]
 80028fc:	6923      	ldr	r3, [r4, #16]
 80028fe:	f003 4360 	and.w	r3, r3, #3758096384	; 0xe0000000
 8002902:	b102      	cbz	r2, 8002906 <usb_transc_outxfer+0x1e>
 8002904:	b97e      	cbnz	r6, 8002926 <usb_transc_outxfer+0x3e>
 8002906:	432b      	orrs	r3, r5
 8002908:	f443 2300 	orr.w	r3, r3, #524288	; 0x80000
 800290c:	6123      	str	r3, [r4, #16]
 800290e:	784b      	ldrb	r3, [r1, #1]
 8002910:	2b01      	cmp	r3, #1
 8002912:	d103      	bne.n	800291c <usb_transc_outxfer+0x34>
 8002914:	78cb      	ldrb	r3, [r1, #3]
 8002916:	b17b      	cbz	r3, 8002938 <usb_transc_outxfer+0x50>
 8002918:	f040 5000 	orr.w	r0, r0, #536870912	; 0x20000000
 800291c:	f040 4004 	orr.w	r0, r0, #2214592512	; 0x84000000
 8002920:	6020      	str	r0, [r4, #0]
 8002922:	2000      	movs	r0, #0
 8002924:	bd70      	pop	{r4, r5, r6, pc}
 8002926:	3a01      	subs	r2, #1
 8002928:	442a      	add	r2, r5
 800292a:	fbb2 f2f5 	udiv	r2, r2, r5
 800292e:	ea43 43c2 	orr.w	r3, r3, r2, lsl #19
 8002932:	436a      	muls	r2, r5
 8002934:	4313      	orrs	r3, r2
 8002936:	e7e9      	b.n	800290c <usb_transc_outxfer+0x24>
 8002938:	f040 5080 	orr.w	r0, r0, #268435456	; 0x10000000
 800293c:	e7ee      	b.n	800291c <usb_transc_outxfer+0x34>

0800293e <usb_transc_stall>:
 800293e:	780b      	ldrb	r3, [r1, #0]
 8002940:	f991 2000 	ldrsb.w	r2, [r1]
 8002944:	f003 030f 	and.w	r3, r3, #15
 8002948:	2a00      	cmp	r2, #0
 800294a:	eb00 0083 	add.w	r0, r0, r3, lsl #2
 800294e:	da0d      	bge.n	800296c <usb_transc_stall+0x2e>
 8002950:	69c3      	ldr	r3, [r0, #28]
 8002952:	681a      	ldr	r2, [r3, #0]
 8002954:	2a00      	cmp	r2, #0
 8002956:	da03      	bge.n	8002960 <usb_transc_stall+0x22>
 8002958:	681a      	ldr	r2, [r3, #0]
 800295a:	f042 4280 	orr.w	r2, r2, #1073741824	; 0x40000000
 800295e:	601a      	str	r2, [r3, #0]
 8002960:	681a      	ldr	r2, [r3, #0]
 8002962:	f442 1200 	orr.w	r2, r2, #2097152	; 0x200000
 8002966:	601a      	str	r2, [r3, #0]
 8002968:	2000      	movs	r0, #0
 800296a:	4770      	bx	lr
 800296c:	6b43      	ldr	r3, [r0, #52]	; 0x34
 800296e:	e7f7      	b.n	8002960 <usb_transc_stall+0x22>

08002970 <usb_transc_clrstall>:
 8002970:	780b      	ldrb	r3, [r1, #0]
 8002972:	f991 2000 	ldrsb.w	r2, [r1]
 8002976:	f003 030f 	and.w	r3, r3, #15
 800297a:	eb00 0083 	add.w	r0, r0, r3, lsl #2
 800297e:	2a00      	cmp	r2, #0
 8002980:	bfb4      	ite	lt
 8002982:	69c3      	ldrlt	r3, [r0, #28]
 8002984:	6b43      	ldrge	r3, [r0, #52]	; 0x34
 8002986:	681a      	ldr	r2, [r3, #0]
 8002988:	f422 1200 	bic.w	r2, r2, #2097152	; 0x200000
 800298c:	601a      	str	r2, [r3, #0]
 800298e:	784a      	ldrb	r2, [r1, #1]
 8002990:	3a02      	subs	r2, #2
 8002992:	2a01      	cmp	r2, #1
 8002994:	bf9e      	ittt	ls
 8002996:	681a      	ldrls	r2, [r3, #0]
 8002998:	f042 5280 	orrls.w	r2, r2, #268435456	; 0x10000000
 800299c:	601a      	strls	r2, [r3, #0]
 800299e:	2000      	movs	r0, #0
 80029a0:	4770      	bx	lr

080029a2 <usb_iepintr_read>:
 80029a2:	6942      	ldr	r2, [r0, #20]
 80029a4:	b510      	push	{r4, lr}
 80029a6:	eb00 0081 	add.w	r0, r0, r1, lsl #2
 80029aa:	6914      	ldr	r4, [r2, #16]
 80029ac:	6b53      	ldr	r3, [r2, #52]	; 0x34
 80029ae:	69c2      	ldr	r2, [r0, #28]
 80029b0:	40cb      	lsrs	r3, r1
 80029b2:	01db      	lsls	r3, r3, #7
 80029b4:	6890      	ldr	r0, [r2, #8]
 80029b6:	b2db      	uxtb	r3, r3
 80029b8:	4323      	orrs	r3, r4
 80029ba:	4018      	ands	r0, r3
 80029bc:	bd10      	pop	{r4, pc}
	...

080029c0 <usb_ctlep_startout>:
 80029c0:	6b43      	ldr	r3, [r0, #52]	; 0x34
 80029c2:	4a01      	ldr	r2, [pc, #4]	; (80029c8 <usb_ctlep_startout+0x8>)
 80029c4:	611a      	str	r2, [r3, #16]
 80029c6:	4770      	bx	lr
 80029c8:	0018      	movs	r0, r3
 80029ca:	6008      	str	r0, [r1, #0]

080029cc <usb_clock_active>:
 80029cc:	79c3      	ldrb	r3, [r0, #7]
 80029ce:	b14b      	cbz	r3, 80029e4 <usb_clock_active+0x18>
 80029d0:	6943      	ldr	r3, [r0, #20]
 80029d2:	689b      	ldr	r3, [r3, #8]
 80029d4:	07db      	lsls	r3, r3, #31
 80029d6:	bf41      	itttt	mi
 80029d8:	f8d0 20c8 	ldrmi.w	r2, [r0, #200]	; 0xc8
 80029dc:	6813      	ldrmi	r3, [r2, #0]
 80029de:	f023 0303 	bicmi.w	r3, r3, #3
 80029e2:	6013      	strmi	r3, [r2, #0]
 80029e4:	4770      	bx	lr
	...

080029e8 <usbd_ctl_send>:
 80029e8:	b538      	push	{r3, r4, r5, lr}
 80029ea:	4604      	mov	r4, r0
 80029ec:	f8d0 30e4 	ldr.w	r3, [r0, #228]	; 0xe4
 80029f0:	f8d0 20d8 	ldr.w	r2, [r0, #216]	; 0xd8
 80029f4:	4d07      	ldr	r5, [pc, #28]	; (8002a14 <usbd_ctl_send+0x2c>)
 80029f6:	2100      	movs	r1, #0
 80029f8:	47a8      	blx	r5
 80029fa:	f8b4 20d4 	ldrh.w	r2, [r4, #212]	; 0xd4
 80029fe:	f8d4 30e4 	ldr.w	r3, [r4, #228]	; 0xe4
 8002a02:	4293      	cmp	r3, r2
 8002a04:	bf8c      	ite	hi
 8002a06:	2301      	movhi	r3, #1
 8002a08:	2302      	movls	r3, #2
 8002a0a:	f884 33ac 	strb.w	r3, [r4, #940]	; 0x3ac
 8002a0e:	2000      	movs	r0, #0
 8002a10:	bd38      	pop	{r3, r4, r5, pc}
 8002a12:	bf00      	nop
 8002a14:	19e9      	adds	r1, r5, r7
 8002a16:	0800      	lsrs	r0, r0, #32

08002a18 <usbd_ctl_recev>:
 8002a18:	b538      	push	{r3, r4, r5, lr}
 8002a1a:	4604      	mov	r4, r0
 8002a1c:	f8d0 324c 	ldr.w	r3, [r0, #588]	; 0x24c
 8002a20:	f8d0 2240 	ldr.w	r2, [r0, #576]	; 0x240
 8002a24:	4d07      	ldr	r5, [pc, #28]	; (8002a44 <usbd_ctl_recev+0x2c>)
 8002a26:	2100      	movs	r1, #0
 8002a28:	47a8      	blx	r5
 8002a2a:	f8b4 223c 	ldrh.w	r2, [r4, #572]	; 0x23c
 8002a2e:	f8d4 324c 	ldr.w	r3, [r4, #588]	; 0x24c
 8002a32:	4293      	cmp	r3, r2
 8002a34:	bf8c      	ite	hi
 8002a36:	2303      	movhi	r3, #3
 8002a38:	2304      	movls	r3, #4
 8002a3a:	f884 33ac 	strb.w	r3, [r4, #940]	; 0x3ac
 8002a3e:	2000      	movs	r0, #0
 8002a40:	bd38      	pop	{r3, r4, r5, pc}
 8002a42:	bf00      	nop
 8002a44:	19c1      	adds	r1, r0, r7
 8002a46:	0800      	lsrs	r0, r0, #32

08002a48 <usbd_ctl_status_send>:
 8002a48:	b538      	push	{r3, r4, r5, lr}
 8002a4a:	2305      	movs	r3, #5
 8002a4c:	f880 33ac 	strb.w	r3, [r0, #940]	; 0x3ac
 8002a50:	2300      	movs	r3, #0
 8002a52:	461a      	mov	r2, r3
 8002a54:	4619      	mov	r1, r3
 8002a56:	4604      	mov	r4, r0
 8002a58:	4d03      	ldr	r5, [pc, #12]	; (8002a68 <usbd_ctl_status_send+0x20>)
 8002a5a:	47a8      	blx	r5
 8002a5c:	4620      	mov	r0, r4
 8002a5e:	4b03      	ldr	r3, [pc, #12]	; (8002a6c <usbd_ctl_status_send+0x24>)
 8002a60:	4798      	blx	r3
 8002a62:	2000      	movs	r0, #0
 8002a64:	bd38      	pop	{r3, r4, r5, pc}
 8002a66:	bf00      	nop
 8002a68:	19e9      	adds	r1, r5, r7
 8002a6a:	0800      	lsrs	r0, r0, #32
 8002a6c:	29c1      	cmp	r1, #193	; 0xc1
 8002a6e:	0800      	lsrs	r0, r0, #32

08002a70 <usbd_ctl_status_recev>:
 8002a70:	b538      	push	{r3, r4, r5, lr}
 8002a72:	2306      	movs	r3, #6
 8002a74:	f880 33ac 	strb.w	r3, [r0, #940]	; 0x3ac
 8002a78:	2300      	movs	r3, #0
 8002a7a:	461a      	mov	r2, r3
 8002a7c:	4619      	mov	r1, r3
 8002a7e:	4604      	mov	r4, r0
 8002a80:	4d03      	ldr	r5, [pc, #12]	; (8002a90 <usbd_ctl_status_recev+0x20>)
 8002a82:	47a8      	blx	r5
 8002a84:	4620      	mov	r0, r4
 8002a86:	4b03      	ldr	r3, [pc, #12]	; (8002a94 <usbd_ctl_status_recev+0x24>)
 8002a88:	4798      	blx	r3
 8002a8a:	2000      	movs	r0, #0
 8002a8c:	bd38      	pop	{r3, r4, r5, pc}
 8002a8e:	bf00      	nop
 8002a90:	19c1      	adds	r1, r0, r7
 8002a92:	0800      	lsrs	r0, r0, #32
 8002a94:	29c1      	cmp	r1, #193	; 0xc1
 8002a96:	0800      	lsrs	r0, r0, #32

08002a98 <usbd_setup_transc>:
 8002a98:	b537      	push	{r0, r1, r2, r4, r5, lr}
 8002a9a:	4604      	mov	r4, r0
 8002a9c:	e9d0 01e9 	ldrd	r0, r1, [r0, #932]	; 0x3a4
 8002aa0:	466d      	mov	r5, sp
 8002aa2:	e885 0003 	stmia.w	r5, {r0, r1}
 8002aa6:	f89d 3000 	ldrb.w	r3, [sp]
 8002aaa:	f003 0360 	and.w	r3, r3, #96	; 0x60
 8002aae:	2b20      	cmp	r3, #32
 8002ab0:	d010      	beq.n	8002ad4 <usbd_setup_transc+0x3c>
 8002ab2:	2b40      	cmp	r3, #64	; 0x40
 8002ab4:	d012      	beq.n	8002adc <usbd_setup_transc+0x44>
 8002ab6:	b9f3      	cbnz	r3, 8002af6 <usbd_setup_transc+0x5e>
 8002ab8:	4b11      	ldr	r3, [pc, #68]	; (8002b00 <usbd_setup_transc+0x68>)
 8002aba:	4629      	mov	r1, r5
 8002abc:	4620      	mov	r0, r4
 8002abe:	4798      	blx	r3
 8002ac0:	b9c8      	cbnz	r0, 8002af6 <usbd_setup_transc+0x5e>
 8002ac2:	f8bd 3006 	ldrh.w	r3, [sp, #6]
 8002ac6:	b96b      	cbnz	r3, 8002ae4 <usbd_setup_transc+0x4c>
 8002ac8:	4b0e      	ldr	r3, [pc, #56]	; (8002b04 <usbd_setup_transc+0x6c>)
 8002aca:	4620      	mov	r0, r4
 8002acc:	4798      	blx	r3
 8002ace:	2000      	movs	r0, #0
 8002ad0:	b003      	add	sp, #12
 8002ad2:	bd30      	pop	{r4, r5, pc}
 8002ad4:	4b0c      	ldr	r3, [pc, #48]	; (8002b08 <usbd_setup_transc+0x70>)
 8002ad6:	4629      	mov	r1, r5
 8002ad8:	4620      	mov	r0, r4
 8002ada:	e7f0      	b.n	8002abe <usbd_setup_transc+0x26>
 8002adc:	4b0b      	ldr	r3, [pc, #44]	; (8002b0c <usbd_setup_transc+0x74>)
 8002ade:	4629      	mov	r1, r5
 8002ae0:	4620      	mov	r0, r4
 8002ae2:	e7ec      	b.n	8002abe <usbd_setup_transc+0x26>
 8002ae4:	f99d 3000 	ldrsb.w	r3, [sp]
 8002ae8:	2b00      	cmp	r3, #0
 8002aea:	4620      	mov	r0, r4
 8002aec:	da01      	bge.n	8002af2 <usbd_setup_transc+0x5a>
 8002aee:	4b08      	ldr	r3, [pc, #32]	; (8002b10 <usbd_setup_transc+0x78>)
 8002af0:	e7ec      	b.n	8002acc <usbd_setup_transc+0x34>
 8002af2:	4b08      	ldr	r3, [pc, #32]	; (8002b14 <usbd_setup_transc+0x7c>)
 8002af4:	e7ea      	b.n	8002acc <usbd_setup_transc+0x34>
 8002af6:	4b08      	ldr	r3, [pc, #32]	; (8002b18 <usbd_setup_transc+0x80>)
 8002af8:	4629      	mov	r1, r5
 8002afa:	4620      	mov	r0, r4
 8002afc:	4798      	blx	r3
 8002afe:	e7e6      	b.n	8002ace <usbd_setup_transc+0x36>
 8002b00:	1eb5      	subs	r5, r6, #2
 8002b02:	0800      	lsrs	r0, r0, #32
 8002b04:	2a49      	cmp	r2, #73	; 0x49
 8002b06:	0800      	lsrs	r0, r0, #32
 8002b08:	1ec5      	subs	r5, r0, #3
 8002b0a:	0800      	lsrs	r0, r0, #32
 8002b0c:	1ee7      	subs	r7, r4, #3
 8002b0e:	0800      	lsrs	r0, r0, #32
 8002b10:	29e9      	cmp	r1, #233	; 0xe9
 8002b12:	0800      	lsrs	r0, r0, #32
 8002b14:	2a19      	cmp	r2, #25
 8002b16:	0800      	lsrs	r0, r0, #32
 8002b18:	1eed      	subs	r5, r5, #3
 8002b1a:	0800      	lsrs	r0, r0, #32

08002b1c <usbd_out_transc>:
 8002b1c:	b510      	push	{r4, lr}
 8002b1e:	4604      	mov	r4, r0
 8002b20:	bb01      	cbnz	r1, 8002b64 <usbd_out_transc+0x48>
 8002b22:	f890 33ac 	ldrb.w	r3, [r0, #940]	; 0x3ac
 8002b26:	2b03      	cmp	r3, #3
 8002b28:	d003      	beq.n	8002b32 <usbd_out_transc+0x16>
 8002b2a:	2b04      	cmp	r3, #4
 8002b2c:	d00b      	beq.n	8002b46 <usbd_out_transc+0x2a>
 8002b2e:	2000      	movs	r0, #0
 8002b30:	bd10      	pop	{r4, pc}
 8002b32:	f8d0 324c 	ldr.w	r3, [r0, #588]	; 0x24c
 8002b36:	f8b0 223c 	ldrh.w	r2, [r0, #572]	; 0x23c
 8002b3a:	1a9b      	subs	r3, r3, r2
 8002b3c:	f8c0 324c 	str.w	r3, [r0, #588]	; 0x24c
 8002b40:	4b0e      	ldr	r3, [pc, #56]	; (8002b7c <usbd_out_transc+0x60>)
 8002b42:	4798      	blx	r3
 8002b44:	e7f3      	b.n	8002b2e <usbd_out_transc+0x12>
 8002b46:	f890 30ce 	ldrb.w	r3, [r0, #206]	; 0xce
 8002b4a:	2b03      	cmp	r3, #3
 8002b4c:	d104      	bne.n	8002b58 <usbd_out_transc+0x3c>
 8002b4e:	f8d0 33b4 	ldr.w	r3, [r0, #948]	; 0x3b4
 8002b52:	699b      	ldr	r3, [r3, #24]
 8002b54:	b103      	cbz	r3, 8002b58 <usbd_out_transc+0x3c>
 8002b56:	4798      	blx	r3
 8002b58:	2300      	movs	r3, #0
 8002b5a:	f8c4 324c 	str.w	r3, [r4, #588]	; 0x24c
 8002b5e:	4620      	mov	r0, r4
 8002b60:	4b07      	ldr	r3, [pc, #28]	; (8002b80 <usbd_out_transc+0x64>)
 8002b62:	e7ee      	b.n	8002b42 <usbd_out_transc+0x26>
 8002b64:	f8d0 33b4 	ldr.w	r3, [r0, #948]	; 0x3b4
 8002b68:	6a1b      	ldr	r3, [r3, #32]
 8002b6a:	2b00      	cmp	r3, #0
 8002b6c:	d0df      	beq.n	8002b2e <usbd_out_transc+0x12>
 8002b6e:	f890 20ce 	ldrb.w	r2, [r0, #206]	; 0xce
 8002b72:	2a03      	cmp	r2, #3
 8002b74:	d1db      	bne.n	8002b2e <usbd_out_transc+0x12>
 8002b76:	4798      	blx	r3
 8002b78:	e7d9      	b.n	8002b2e <usbd_out_transc+0x12>
 8002b7a:	bf00      	nop
 8002b7c:	2a19      	cmp	r2, #25
 8002b7e:	0800      	lsrs	r0, r0, #32
 8002b80:	2a49      	cmp	r2, #73	; 0x49
 8002b82:	0800      	lsrs	r0, r0, #32

08002b84 <usbd_in_transc>:
 8002b84:	b570      	push	{r4, r5, r6, lr}
 8002b86:	4604      	mov	r4, r0
 8002b88:	460d      	mov	r5, r1
 8002b8a:	bb51      	cbnz	r1, 8002be2 <usbd_in_transc+0x5e>
 8002b8c:	f890 33ac 	ldrb.w	r3, [r0, #940]	; 0x3ac
 8002b90:	2b01      	cmp	r3, #1
 8002b92:	d003      	beq.n	8002b9c <usbd_in_transc+0x18>
 8002b94:	2b02      	cmp	r3, #2
 8002b96:	d00b      	beq.n	8002bb0 <usbd_in_transc+0x2c>
 8002b98:	2000      	movs	r0, #0
 8002b9a:	bd70      	pop	{r4, r5, r6, pc}
 8002b9c:	f8d0 30e4 	ldr.w	r3, [r0, #228]	; 0xe4
 8002ba0:	f8b0 20d4 	ldrh.w	r2, [r0, #212]	; 0xd4
 8002ba4:	1a9b      	subs	r3, r3, r2
 8002ba6:	f8c0 30e4 	str.w	r3, [r0, #228]	; 0xe4
 8002baa:	4b13      	ldr	r3, [pc, #76]	; (8002bf8 <usbd_in_transc+0x74>)
 8002bac:	4798      	blx	r3
 8002bae:	e7f3      	b.n	8002b98 <usbd_in_transc+0x14>
 8002bb0:	f890 33ad 	ldrb.w	r3, [r0, #941]	; 0x3ad
 8002bb4:	b133      	cbz	r3, 8002bc4 <usbd_in_transc+0x40>
 8002bb6:	4e11      	ldr	r6, [pc, #68]	; (8002bfc <usbd_in_transc+0x78>)
 8002bb8:	460b      	mov	r3, r1
 8002bba:	460a      	mov	r2, r1
 8002bbc:	47b0      	blx	r6
 8002bbe:	f884 53ad 	strb.w	r5, [r4, #941]	; 0x3ad
 8002bc2:	e7e9      	b.n	8002b98 <usbd_in_transc+0x14>
 8002bc4:	f890 30ce 	ldrb.w	r3, [r0, #206]	; 0xce
 8002bc8:	2b03      	cmp	r3, #3
 8002bca:	d104      	bne.n	8002bd6 <usbd_in_transc+0x52>
 8002bcc:	f8d0 33b4 	ldr.w	r3, [r0, #948]	; 0x3b4
 8002bd0:	695b      	ldr	r3, [r3, #20]
 8002bd2:	b103      	cbz	r3, 8002bd6 <usbd_in_transc+0x52>
 8002bd4:	4798      	blx	r3
 8002bd6:	2300      	movs	r3, #0
 8002bd8:	f8c4 30e4 	str.w	r3, [r4, #228]	; 0xe4
 8002bdc:	4620      	mov	r0, r4
 8002bde:	4b08      	ldr	r3, [pc, #32]	; (8002c00 <usbd_in_transc+0x7c>)
 8002be0:	e7e4      	b.n	8002bac <usbd_in_transc+0x28>
 8002be2:	f890 30ce 	ldrb.w	r3, [r0, #206]	; 0xce
 8002be6:	2b03      	cmp	r3, #3
 8002be8:	d1d6      	bne.n	8002b98 <usbd_in_transc+0x14>
 8002bea:	f8d0 33b4 	ldr.w	r3, [r0, #948]	; 0x3b4
 8002bee:	69db      	ldr	r3, [r3, #28]
 8002bf0:	2b00      	cmp	r3, #0
 8002bf2:	d0d1      	beq.n	8002b98 <usbd_in_transc+0x14>
 8002bf4:	4798      	blx	r3
 8002bf6:	e7cf      	b.n	8002b98 <usbd_in_transc+0x14>
 8002bf8:	29e9      	cmp	r1, #233	; 0xe9
 8002bfa:	0800      	lsrs	r0, r0, #32
 8002bfc:	19e9      	adds	r1, r5, r7
 8002bfe:	0800      	lsrs	r0, r0, #32
 8002c00:	2a71      	cmp	r2, #113	; 0x71
 8002c02:	0800      	lsrs	r0, r0, #32

08002c04 <escpos_esc_init>:
 8002c04:	b570      	push	{r4, r5, r6, lr}
 8002c06:	4b16      	ldr	r3, [pc, #88]	; (8002c60 <escpos_esc_init+0x5c>)
 8002c08:	4c16      	ldr	r4, [pc, #88]	; (8002c64 <escpos_esc_init+0x60>)
 8002c0a:	4d17      	ldr	r5, [pc, #92]	; (8002c68 <escpos_esc_init+0x64>)
 8002c0c:	4798      	blx	r3
 8002c0e:	4b17      	ldr	r3, [pc, #92]	; (8002c6c <escpos_esc_init+0x68>)
 8002c10:	4798      	blx	r3
 8002c12:	4b17      	ldr	r3, [pc, #92]	; (8002c70 <escpos_esc_init+0x6c>)
 8002c14:	4798      	blx	r3
 8002c16:	4b17      	ldr	r3, [pc, #92]	; (8002c74 <escpos_esc_init+0x70>)
 8002c18:	4798      	blx	r3
 8002c1a:	f44f 30e1 	mov.w	r0, #115200	; 0x1c200
 8002c1e:	4b16      	ldr	r3, [pc, #88]	; (8002c78 <escpos_esc_init+0x74>)
 8002c20:	4798      	blx	r3
 8002c22:	4b16      	ldr	r3, [pc, #88]	; (8002c7c <escpos_esc_init+0x78>)
 8002c24:	4798      	blx	r3
 8002c26:	4b16      	ldr	r3, [pc, #88]	; (8002c80 <escpos_esc_init+0x7c>)
 8002c28:	4798      	blx	r3
 8002c2a:	4b16      	ldr	r3, [pc, #88]	; (8002c84 <escpos_esc_init+0x80>)
 8002c2c:	4798      	blx	r3
 8002c2e:	4620      	mov	r0, r4
 8002c30:	4b15      	ldr	r3, [pc, #84]	; (8002c88 <escpos_esc_init+0x84>)
 8002c32:	4798      	blx	r3
 8002c34:	4620      	mov	r0, r4
 8002c36:	4915      	ldr	r1, [pc, #84]	; (8002c8c <escpos_esc_init+0x88>)
 8002c38:	4b15      	ldr	r3, [pc, #84]	; (8002c90 <escpos_esc_init+0x8c>)
 8002c3a:	f44f 5280 	mov.w	r2, #4096	; 0x1000
 8002c3e:	4798      	blx	r3
 8002c40:	2300      	movs	r3, #0
 8002c42:	81a3      	strh	r3, [r4, #12]
 8002c44:	f44f 7010 	mov.w	r0, #576	; 0x240
 8002c48:	4a12      	ldr	r2, [pc, #72]	; (8002c94 <escpos_esc_init+0x90>)
 8002c4a:	802b      	strh	r3, [r5, #0]
 8002c4c:	21c0      	movs	r1, #192	; 0xc0
 8002c4e:	73a3      	strb	r3, [r4, #14]
 8002c50:	4790      	blx	r2
 8002c52:	e8bd 4070 	ldmia.w	sp!, {r4, r5, r6, lr}
 8002c56:	4b10      	ldr	r3, [pc, #64]	; (8002c98 <escpos_esc_init+0x94>)
 8002c58:	f44f 6080 	mov.w	r0, #1024	; 0x400
 8002c5c:	4718      	bx	r3
 8002c5e:	bf00      	nop
 8002c60:	65c5      	str	r5, [r0, #92]	; 0x5c
 8002c62:	0800      	lsrs	r0, r0, #32
 8002c64:	0dd8      	lsrs	r0, r3, #23
 8002c66:	2000      	movs	r0, #0
 8002c68:	3224      	adds	r2, #36	; 0x24
 8002c6a:	2000      	movs	r0, #0
 8002c6c:	615d      	str	r5, [r3, #20]
 8002c6e:	0800      	lsrs	r0, r0, #32
 8002c70:	5d4d      	ldrb	r5, [r1, r5]
 8002c72:	0800      	lsrs	r0, r0, #32
 8002c74:	41e5      	rors	r5, r4
 8002c76:	0800      	lsrs	r0, r0, #32
 8002c78:	5531      	strb	r1, [r6, r4]
 8002c7a:	0800      	lsrs	r0, r0, #32
 8002c7c:	37bd      	adds	r7, #189	; 0xbd
 8002c7e:	0800      	lsrs	r0, r0, #32
 8002c80:	54b9      	strb	r1, [r7, r2]
 8002c82:	0800      	lsrs	r0, r0, #32
 8002c84:	4de5      	ldr	r5, [pc, #916]	; (800301c <Printer_Set_Relative_Print_Position+0x14>)
 8002c86:	0800      	lsrs	r0, r0, #32
 8002c88:	37b1      	adds	r7, #177	; 0xb1
 8002c8a:	0800      	lsrs	r0, r0, #32
 8002c8c:	0de8      	lsrs	r0, r5, #23
 8002c8e:	2000      	movs	r0, #0
 8002c90:	37d5      	adds	r7, #213	; 0xd5
 8002c92:	0800      	lsrs	r0, r0, #32
 8002c94:	464d      	mov	r5, r9
 8002c96:	0800      	lsrs	r0, r0, #32
 8002c98:	0c6d      	lsrs	r5, r5, #17
 8002c9a:	0800      	lsrs	r0, r0, #32

08002c9c <escpos_write_into_receiveBuffer>:
 8002c9c:	4684      	mov	ip, r0
 8002c9e:	460a      	mov	r2, r1
 8002ca0:	4801      	ldr	r0, [pc, #4]	; (8002ca8 <escpos_write_into_receiveBuffer+0xc>)
 8002ca2:	4b02      	ldr	r3, [pc, #8]	; (8002cac <escpos_write_into_receiveBuffer+0x10>)
 8002ca4:	4661      	mov	r1, ip
 8002ca6:	4718      	bx	r3
 8002ca8:	0dd8      	lsrs	r0, r3, #23
 8002caa:	2000      	movs	r0, #0
 8002cac:	3915      	subs	r1, #21
 8002cae:	0800      	lsrs	r0, r0, #32

08002cb0 <ReadCurrentCmd>:
 8002cb0:	4801      	ldr	r0, [pc, #4]	; (8002cb8 <ReadCurrentCmd+0x8>)
 8002cb2:	4b02      	ldr	r3, [pc, #8]	; (8002cbc <ReadCurrentCmd+0xc>)
 8002cb4:	4718      	bx	r3
 8002cb6:	bf00      	nop
 8002cb8:	0dd8      	lsrs	r0, r3, #23
 8002cba:	2000      	movs	r0, #0
 8002cbc:	386d      	subs	r0, #109	; 0x6d
 8002cbe:	0800      	lsrs	r0, r0, #32

08002cc0 <escpos>:
 8002cc0:	b530      	push	{r4, r5, lr}
 8002cc2:	4b1a      	ldr	r3, [pc, #104]	; (8002d2c <escpos+0x6c>)
 8002cc4:	b083      	sub	sp, #12
 8002cc6:	4798      	blx	r3
 8002cc8:	4b19      	ldr	r3, [pc, #100]	; (8002d30 <escpos+0x70>)
 8002cca:	4798      	blx	r3
 8002ccc:	b930      	cbnz	r0, 8002cdc <escpos+0x1c>
 8002cce:	4d19      	ldr	r5, [pc, #100]	; (8002d34 <escpos+0x74>)
 8002cd0:	7b2a      	ldrb	r2, [r5, #12]
 8002cd2:	b1a2      	cbz	r2, 8002cfe <escpos+0x3e>
 8002cd4:	2a01      	cmp	r2, #1
 8002cd6:	4604      	mov	r4, r0
 8002cd8:	d00b      	beq.n	8002cf2 <escpos+0x32>
 8002cda:	732c      	strb	r4, [r5, #12]
 8002cdc:	4b16      	ldr	r3, [pc, #88]	; (8002d38 <escpos+0x78>)
 8002cde:	4798      	blx	r3
 8002ce0:	4b16      	ldr	r3, [pc, #88]	; (8002d3c <escpos+0x7c>)
 8002ce2:	4798      	blx	r3
 8002ce4:	4b16      	ldr	r3, [pc, #88]	; (8002d40 <escpos+0x80>)
 8002ce6:	4798      	blx	r3
 8002ce8:	4b16      	ldr	r3, [pc, #88]	; (8002d44 <escpos+0x84>)
 8002cea:	b003      	add	sp, #12
 8002cec:	e8bd 4030 	ldmia.w	sp!, {r4, r5, lr}
 8002cf0:	4718      	bx	r3
 8002cf2:	4b15      	ldr	r3, [pc, #84]	; (8002d48 <escpos+0x88>)
 8002cf4:	4798      	blx	r3
 8002cf6:	2800      	cmp	r0, #0
 8002cf8:	d0f0      	beq.n	8002cdc <escpos+0x1c>
 8002cfa:	732c      	strb	r4, [r5, #12]
 8002cfc:	e7ee      	b.n	8002cdc <escpos+0x1c>
 8002cfe:	4b13      	ldr	r3, [pc, #76]	; (8002d4c <escpos+0x8c>)
 8002d00:	f10d 0107 	add.w	r1, sp, #7
 8002d04:	4628      	mov	r0, r5
 8002d06:	4798      	blx	r3
 8002d08:	2802      	cmp	r0, #2
 8002d0a:	d0e7      	beq.n	8002cdc <escpos+0x1c>
 8002d0c:	f89d 0007 	ldrb.w	r0, [sp, #7]
 8002d10:	281f      	cmp	r0, #31
 8002d12:	d904      	bls.n	8002d1e <escpos+0x5e>
 8002d14:	287f      	cmp	r0, #127	; 0x7f
 8002d16:	d005      	beq.n	8002d24 <escpos+0x64>
 8002d18:	4b0d      	ldr	r3, [pc, #52]	; (8002d50 <escpos+0x90>)
 8002d1a:	4798      	blx	r3
 8002d1c:	e7de      	b.n	8002cdc <escpos+0x1c>
 8002d1e:	2301      	movs	r3, #1
 8002d20:	732b      	strb	r3, [r5, #12]
 8002d22:	e7db      	b.n	8002cdc <escpos+0x1c>
 8002d24:	4b0b      	ldr	r3, [pc, #44]	; (8002d54 <escpos+0x94>)
 8002d26:	4628      	mov	r0, r5
 8002d28:	4798      	blx	r3
 8002d2a:	e7d7      	b.n	8002cdc <escpos+0x1c>
 8002d2c:	5001      	str	r1, [r0, r0]
 8002d2e:	0800      	lsrs	r0, r0, #32
 8002d30:	652d      	str	r5, [r5, #80]	; 0x50
 8002d32:	0800      	lsrs	r0, r0, #32
 8002d34:	0dd8      	lsrs	r0, r3, #23
 8002d36:	2000      	movs	r0, #0
 8002d38:	5efd      	ldrsh	r5, [r7, r3]
 8002d3a:	0800      	lsrs	r0, r0, #32
 8002d3c:	6239      	str	r1, [r7, #32]
 8002d3e:	0800      	lsrs	r0, r0, #32
 8002d40:	66c9      	str	r1, [r1, #108]	; 0x6c
 8002d42:	0800      	lsrs	r0, r0, #32
 8002d44:	40fd      	lsrs	r5, r7
 8002d46:	0800      	lsrs	r0, r0, #32
 8002d48:	3635      	adds	r6, #53	; 0x35
 8002d4a:	0800      	lsrs	r0, r0, #32
 8002d4c:	3895      	subs	r0, #149	; 0x95
 8002d4e:	0800      	lsrs	r0, r0, #32
 8002d50:	47b5      			; <UNDEFINED> instruction: 0x47b5
 8002d52:	0800      	lsrs	r0, r0, #32
 8002d54:	386d      	subs	r0, #109	; 0x6d
 8002d56:	0800      	lsrs	r0, r0, #32

08002d58 <Printer_RealTime_Status_Transmission>:
 8002d58:	2001      	movs	r0, #1
 8002d5a:	4770      	bx	lr

08002d5c <PrinterDefaultCMD>:
 8002d5c:	2001      	movs	r0, #1
 8002d5e:	4770      	bx	lr

08002d60 <Printer_Cut_Paper>:
 8002d60:	b538      	push	{r3, r4, r5, lr}
 8002d62:	4d2a      	ldr	r5, [pc, #168]	; (8002e0c <Printer_Cut_Paper+0xac>)
 8002d64:	78ac      	ldrb	r4, [r5, #2]
 8002d66:	2c04      	cmp	r4, #4
 8002d68:	d839      	bhi.n	8002dde <Printer_Cut_Paper+0x7e>
 8002d6a:	e8df f004 	tbb	[pc, r4]
 8002d6e:	240d      	movs	r4, #13
 8002d70:	3c32      	subs	r4, #50	; 0x32
 8002d72:	0003      	movs	r3, r0
 8002d74:	7928      	ldrb	r0, [r5, #4]
 8002d76:	4b26      	ldr	r3, [pc, #152]	; (8002e10 <Printer_Cut_Paper+0xb0>)
 8002d78:	2101      	movs	r1, #1
 8002d7a:	4798      	blx	r3
 8002d7c:	b108      	cbz	r0, 8002d82 <Printer_Cut_Paper+0x22>
 8002d7e:	2302      	movs	r3, #2
 8002d80:	70ab      	strb	r3, [r5, #2]
 8002d82:	2400      	movs	r4, #0
 8002d84:	4620      	mov	r0, r4
 8002d86:	bd38      	pop	{r3, r4, r5, pc}
 8002d88:	4922      	ldr	r1, [pc, #136]	; (8002e14 <Printer_Cut_Paper+0xb4>)
 8002d8a:	68e8      	ldr	r0, [r5, #12]
 8002d8c:	4b22      	ldr	r3, [pc, #136]	; (8002e18 <Printer_Cut_Paper+0xb8>)
 8002d8e:	2200      	movs	r2, #0
 8002d90:	4798      	blx	r3
 8002d92:	2802      	cmp	r0, #2
 8002d94:	d0f5      	beq.n	8002d82 <Printer_Cut_Paper+0x22>
 8002d96:	792b      	ldrb	r3, [r5, #4]
 8002d98:	f1a3 0230 	sub.w	r2, r3, #48	; 0x30
 8002d9c:	2a01      	cmp	r2, #1
 8002d9e:	d927      	bls.n	8002df0 <Printer_Cut_Paper+0x90>
 8002da0:	2b01      	cmp	r3, #1
 8002da2:	d925      	bls.n	8002df0 <Printer_Cut_Paper+0x90>
 8002da4:	2b42      	cmp	r3, #66	; 0x42
 8002da6:	bf18      	it	ne
 8002da8:	2401      	movne	r4, #1
 8002daa:	d1eb      	bne.n	8002d84 <Printer_Cut_Paper+0x24>
 8002dac:	4b1b      	ldr	r3, [pc, #108]	; (8002e1c <Printer_Cut_Paper+0xbc>)
 8002dae:	4798      	blx	r3
 8002db0:	2301      	movs	r3, #1
 8002db2:	70ab      	strb	r3, [r5, #2]
 8002db4:	e7e6      	b.n	8002d84 <Printer_Cut_Paper+0x24>
 8002db6:	4917      	ldr	r1, [pc, #92]	; (8002e14 <Printer_Cut_Paper+0xb4>)
 8002db8:	68e8      	ldr	r0, [r5, #12]
 8002dba:	4b19      	ldr	r3, [pc, #100]	; (8002e20 <Printer_Cut_Paper+0xc0>)
 8002dbc:	4798      	blx	r3
 8002dbe:	2802      	cmp	r0, #2
 8002dc0:	d0df      	beq.n	8002d82 <Printer_Cut_Paper+0x22>
 8002dc2:	4b18      	ldr	r3, [pc, #96]	; (8002e24 <Printer_Cut_Paper+0xc4>)
 8002dc4:	4798      	blx	r3
 8002dc6:	b9c0      	cbnz	r0, 8002dfa <Printer_Cut_Paper+0x9a>
 8002dc8:	2304      	movs	r3, #4
 8002dca:	2400      	movs	r4, #0
 8002dcc:	70ab      	strb	r3, [r5, #2]
 8002dce:	4620      	mov	r0, r4
 8002dd0:	bd38      	pop	{r3, r4, r5, pc}
 8002dd2:	4b0f      	ldr	r3, [pc, #60]	; (8002e10 <Printer_Cut_Paper+0xb0>)
 8002dd4:	2102      	movs	r1, #2
 8002dd6:	2000      	movs	r0, #0
 8002dd8:	4798      	blx	r3
 8002dda:	2800      	cmp	r0, #0
 8002ddc:	d0d1      	beq.n	8002d82 <Printer_Cut_Paper+0x22>
 8002dde:	2300      	movs	r3, #0
 8002de0:	70ab      	strb	r3, [r5, #2]
 8002de2:	2401      	movs	r4, #1
 8002de4:	e7ce      	b.n	8002d84 <Printer_Cut_Paper+0x24>
 8002de6:	4b10      	ldr	r3, [pc, #64]	; (8002e28 <Printer_Cut_Paper+0xc8>)
 8002de8:	4798      	blx	r3
 8002dea:	2800      	cmp	r0, #0
 8002dec:	d1ec      	bne.n	8002dc8 <Printer_Cut_Paper+0x68>
 8002dee:	e7c8      	b.n	8002d82 <Printer_Cut_Paper+0x22>
 8002df0:	2202      	movs	r2, #2
 8002df2:	4b0a      	ldr	r3, [pc, #40]	; (8002e1c <Printer_Cut_Paper+0xbc>)
 8002df4:	70aa      	strb	r2, [r5, #2]
 8002df6:	4798      	blx	r3
 8002df8:	e7c4      	b.n	8002d84 <Printer_Cut_Paper+0x24>
 8002dfa:	4b0c      	ldr	r3, [pc, #48]	; (8002e2c <Printer_Cut_Paper+0xcc>)
 8002dfc:	4798      	blx	r3
 8002dfe:	4b0c      	ldr	r3, [pc, #48]	; (8002e30 <Printer_Cut_Paper+0xd0>)
 8002e00:	4798      	blx	r3
 8002e02:	2303      	movs	r3, #3
 8002e04:	70ab      	strb	r3, [r5, #2]
 8002e06:	2400      	movs	r4, #0
 8002e08:	e7bc      	b.n	8002d84 <Printer_Cut_Paper+0x24>
 8002e0a:	bf00      	nop
 8002e0c:	1de8      	adds	r0, r5, #7
 8002e0e:	2000      	movs	r0, #0
 8002e10:	40d1      	lsrs	r1, r2
 8002e12:	0800      	lsrs	r0, r0, #32
 8002e14:	1dec      	adds	r4, r5, #7
 8002e16:	2000      	movs	r0, #0
 8002e18:	3895      	subs	r0, #149	; 0x95
 8002e1a:	0800      	lsrs	r0, r0, #32
 8002e1c:	2cb1      	cmp	r4, #177	; 0xb1
 8002e1e:	0800      	lsrs	r0, r0, #32
 8002e20:	37ed      	adds	r7, #237	; 0xed
 8002e22:	0800      	lsrs	r0, r0, #32
 8002e24:	4d45      	ldr	r5, [pc, #276]	; (8002f3c <Printer_Define_NV_Bitmap+0x1c>)
 8002e26:	0800      	lsrs	r0, r0, #32
 8002e28:	4d79      	ldr	r5, [pc, #484]	; (8003010 <Printer_Set_Relative_Print_Position+0x8>)
 8002e2a:	0800      	lsrs	r0, r0, #32
 8002e2c:	4d41      	ldr	r5, [pc, #260]	; (8002f34 <Printer_Define_NV_Bitmap+0x14>)
 8002e2e:	0800      	lsrs	r0, r0, #32
 8002e30:	4d9d      	ldr	r5, [pc, #628]	; (80030a8 <Printer_Select_Justification+0x40>)
 8002e32:	0800      	lsrs	r0, r0, #32

08002e34 <Printer_Set_Default_LineSpacing>:
 8002e34:	b508      	push	{r3, lr}
 8002e36:	4b02      	ldr	r3, [pc, #8]	; (8002e40 <Printer_Set_Default_LineSpacing+0xc>)
 8002e38:	4798      	blx	r3
 8002e3a:	2001      	movs	r0, #1
 8002e3c:	bd08      	pop	{r3, pc}
 8002e3e:	bf00      	nop
 8002e40:	4755      	bx	sl
 8002e42:	0800      	lsrs	r0, r0, #32

08002e44 <Printer_JMP_TO_NEXT_TAB_Position>:
 8002e44:	b508      	push	{r3, lr}
 8002e46:	4b02      	ldr	r3, [pc, #8]	; (8002e50 <Printer_JMP_TO_NEXT_TAB_Position+0xc>)
 8002e48:	4798      	blx	r3
 8002e4a:	2001      	movs	r0, #1
 8002e4c:	bd08      	pop	{r3, pc}
 8002e4e:	bf00      	nop
 8002e50:	4cc5      	ldr	r4, [pc, #788]	; (8003168 <Printer_Select_Character_Font+0x54>)
 8002e52:	0800      	lsrs	r0, r0, #32

08002e54 <Printer_Feed_N_Line>:
 8002e54:	b538      	push	{r3, r4, r5, lr}
 8002e56:	4c1a      	ldr	r4, [pc, #104]	; (8002ec0 <Printer_Feed_N_Line+0x6c>)
 8002e58:	78a3      	ldrb	r3, [r4, #2]
 8002e5a:	2b01      	cmp	r3, #1
 8002e5c:	d007      	beq.n	8002e6e <Printer_Feed_N_Line+0x1a>
 8002e5e:	2b02      	cmp	r3, #2
 8002e60:	d01f      	beq.n	8002ea2 <Printer_Feed_N_Line+0x4e>
 8002e62:	b163      	cbz	r3, 8002e7e <Printer_Feed_N_Line+0x2a>
 8002e64:	2300      	movs	r3, #0
 8002e66:	70a3      	strb	r3, [r4, #2]
 8002e68:	2501      	movs	r5, #1
 8002e6a:	4628      	mov	r0, r5
 8002e6c:	bd38      	pop	{r3, r4, r5, pc}
 8002e6e:	4b15      	ldr	r3, [pc, #84]	; (8002ec4 <Printer_Feed_N_Line+0x70>)
 8002e70:	4798      	blx	r3
 8002e72:	b108      	cbz	r0, 8002e78 <Printer_Feed_N_Line+0x24>
 8002e74:	2302      	movs	r3, #2
 8002e76:	70a3      	strb	r3, [r4, #2]
 8002e78:	2500      	movs	r5, #0
 8002e7a:	4628      	mov	r0, r5
 8002e7c:	bd38      	pop	{r3, r4, r5, pc}
 8002e7e:	68e0      	ldr	r0, [r4, #12]
 8002e80:	4b11      	ldr	r3, [pc, #68]	; (8002ec8 <Printer_Feed_N_Line+0x74>)
 8002e82:	1d21      	adds	r1, r4, #4
 8002e84:	4798      	blx	r3
 8002e86:	4605      	mov	r5, r0
 8002e88:	2800      	cmp	r0, #0
 8002e8a:	d1f5      	bne.n	8002e78 <Printer_Feed_N_Line+0x24>
 8002e8c:	4b0f      	ldr	r3, [pc, #60]	; (8002ecc <Printer_Feed_N_Line+0x78>)
 8002e8e:	4798      	blx	r3
 8002e90:	2800      	cmp	r0, #0
 8002e92:	d0ef      	beq.n	8002e74 <Printer_Feed_N_Line+0x20>
 8002e94:	4b0e      	ldr	r3, [pc, #56]	; (8002ed0 <Printer_Feed_N_Line+0x7c>)
 8002e96:	4798      	blx	r3
 8002e98:	4b0e      	ldr	r3, [pc, #56]	; (8002ed4 <Printer_Feed_N_Line+0x80>)
 8002e9a:	4798      	blx	r3
 8002e9c:	2301      	movs	r3, #1
 8002e9e:	70a3      	strb	r3, [r4, #2]
 8002ea0:	e7e3      	b.n	8002e6a <Printer_Feed_N_Line+0x16>
 8002ea2:	7925      	ldrb	r5, [r4, #4]
 8002ea4:	2d00      	cmp	r5, #0
 8002ea6:	d0dd      	beq.n	8002e64 <Printer_Feed_N_Line+0x10>
 8002ea8:	4b0b      	ldr	r3, [pc, #44]	; (8002ed8 <Printer_Feed_N_Line+0x84>)
 8002eaa:	4798      	blx	r3
 8002eac:	fb15 f000 	smulbb	r0, r5, r0
 8002eb0:	4b0a      	ldr	r3, [pc, #40]	; (8002edc <Printer_Feed_N_Line+0x88>)
 8002eb2:	2101      	movs	r1, #1
 8002eb4:	b280      	uxth	r0, r0
 8002eb6:	4798      	blx	r3
 8002eb8:	2800      	cmp	r0, #0
 8002eba:	d0dd      	beq.n	8002e78 <Printer_Feed_N_Line+0x24>
 8002ebc:	e7d2      	b.n	8002e64 <Printer_Feed_N_Line+0x10>
 8002ebe:	bf00      	nop
 8002ec0:	1de8      	adds	r0, r5, #7
 8002ec2:	2000      	movs	r0, #0
 8002ec4:	4d79      	ldr	r5, [pc, #484]	; (80030ac <Printer_Select_Justification+0x44>)
 8002ec6:	0800      	lsrs	r0, r0, #32
 8002ec8:	37ed      	adds	r7, #237	; 0xed
 8002eca:	0800      	lsrs	r0, r0, #32
 8002ecc:	4d45      	ldr	r5, [pc, #276]	; (8002fe4 <Printer_Print_NV_Bitmap+0x54>)
 8002ece:	0800      	lsrs	r0, r0, #32
 8002ed0:	4d41      	ldr	r5, [pc, #260]	; (8002fd8 <Printer_Print_NV_Bitmap+0x48>)
 8002ed2:	0800      	lsrs	r0, r0, #32
 8002ed4:	4d9d      	ldr	r5, [pc, #628]	; (800314c <Printer_Select_Character_Font+0x38>)
 8002ed6:	0800      	lsrs	r0, r0, #32
 8002ed8:	479d      			; <UNDEFINED> instruction: 0x479d
 8002eda:	0800      	lsrs	r0, r0, #32
 8002edc:	40d1      	lsrs	r1, r2
 8002ede:	0800      	lsrs	r0, r0, #32

08002ee0 <Printer_Set_Double_Width_And_Height>:
 8002ee0:	b510      	push	{r4, lr}
 8002ee2:	4c0b      	ldr	r4, [pc, #44]	; (8002f10 <Printer_Set_Double_Width_And_Height+0x30>)
 8002ee4:	4b0b      	ldr	r3, [pc, #44]	; (8002f14 <Printer_Set_Double_Width_And_Height+0x34>)
 8002ee6:	68e0      	ldr	r0, [r4, #12]
 8002ee8:	1d21      	adds	r1, r4, #4
 8002eea:	4798      	blx	r3
 8002eec:	2802      	cmp	r0, #2
 8002eee:	d00d      	beq.n	8002f0c <Printer_Set_Double_Width_And_Height+0x2c>
 8002ef0:	7920      	ldrb	r0, [r4, #4]
 8002ef2:	4b09      	ldr	r3, [pc, #36]	; (8002f18 <Printer_Set_Double_Width_And_Height+0x38>)
 8002ef4:	f3c0 1002 	ubfx	r0, r0, #4, #3
 8002ef8:	3001      	adds	r0, #1
 8002efa:	4798      	blx	r3
 8002efc:	7920      	ldrb	r0, [r4, #4]
 8002efe:	4b07      	ldr	r3, [pc, #28]	; (8002f1c <Printer_Set_Double_Width_And_Height+0x3c>)
 8002f00:	f000 0007 	and.w	r0, r0, #7
 8002f04:	3001      	adds	r0, #1
 8002f06:	4798      	blx	r3
 8002f08:	2001      	movs	r0, #1
 8002f0a:	bd10      	pop	{r4, pc}
 8002f0c:	2000      	movs	r0, #0
 8002f0e:	bd10      	pop	{r4, pc}
 8002f10:	1de8      	adds	r0, r5, #7
 8002f12:	2000      	movs	r0, #0
 8002f14:	37ed      	adds	r7, #237	; 0xed
 8002f16:	0800      	lsrs	r0, r0, #32
 8002f18:	46e5      	mov	sp, ip
 8002f1a:	0800      	lsrs	r0, r0, #32
 8002f1c:	46f5      	mov	sp, lr
 8002f1e:	0800      	lsrs	r0, r0, #32

08002f20 <Printer_Define_NV_Bitmap>:
 8002f20:	b538      	push	{r3, r4, r5, lr}
 8002f22:	4d15      	ldr	r5, [pc, #84]	; (8002f78 <Printer_Define_NV_Bitmap+0x58>)
 8002f24:	78ab      	ldrb	r3, [r5, #2]
 8002f26:	b133      	cbz	r3, 8002f36 <Printer_Define_NV_Bitmap+0x16>
 8002f28:	2b01      	cmp	r3, #1
 8002f2a:	d01d      	beq.n	8002f68 <Printer_Define_NV_Bitmap+0x48>
 8002f2c:	2300      	movs	r3, #0
 8002f2e:	70ab      	strb	r3, [r5, #2]
 8002f30:	2401      	movs	r4, #1
 8002f32:	4620      	mov	r0, r4
 8002f34:	bd38      	pop	{r3, r4, r5, pc}
 8002f36:	4b11      	ldr	r3, [pc, #68]	; (8002f7c <Printer_Define_NV_Bitmap+0x5c>)
 8002f38:	4798      	blx	r3
 8002f3a:	4604      	mov	r4, r0
 8002f3c:	2800      	cmp	r0, #0
 8002f3e:	d1f7      	bne.n	8002f30 <Printer_Define_NV_Bitmap+0x10>
 8002f40:	68e8      	ldr	r0, [r5, #12]
 8002f42:	4b0f      	ldr	r3, [pc, #60]	; (8002f80 <Printer_Define_NV_Bitmap+0x60>)
 8002f44:	4622      	mov	r2, r4
 8002f46:	1d29      	adds	r1, r5, #4
 8002f48:	4798      	blx	r3
 8002f4a:	2802      	cmp	r0, #2
 8002f4c:	d011      	beq.n	8002f72 <Printer_Define_NV_Bitmap+0x52>
 8002f4e:	7928      	ldrb	r0, [r5, #4]
 8002f50:	2800      	cmp	r0, #0
 8002f52:	d0ed      	beq.n	8002f30 <Printer_Define_NV_Bitmap+0x10>
 8002f54:	4b0b      	ldr	r3, [pc, #44]	; (8002f84 <Printer_Define_NV_Bitmap+0x64>)
 8002f56:	4798      	blx	r3
 8002f58:	2800      	cmp	r0, #0
 8002f5a:	d0e9      	beq.n	8002f30 <Printer_Define_NV_Bitmap+0x10>
 8002f5c:	4b0a      	ldr	r3, [pc, #40]	; (8002f88 <Printer_Define_NV_Bitmap+0x68>)
 8002f5e:	68e8      	ldr	r0, [r5, #12]
 8002f60:	4798      	blx	r3
 8002f62:	2301      	movs	r3, #1
 8002f64:	70ab      	strb	r3, [r5, #2]
 8002f66:	e7e4      	b.n	8002f32 <Printer_Define_NV_Bitmap+0x12>
 8002f68:	68e8      	ldr	r0, [r5, #12]
 8002f6a:	4b08      	ldr	r3, [pc, #32]	; (8002f8c <Printer_Define_NV_Bitmap+0x6c>)
 8002f6c:	4798      	blx	r3
 8002f6e:	2800      	cmp	r0, #0
 8002f70:	d1dc      	bne.n	8002f2c <Printer_Define_NV_Bitmap+0xc>
 8002f72:	2400      	movs	r4, #0
 8002f74:	4620      	mov	r0, r4
 8002f76:	bd38      	pop	{r3, r4, r5, pc}
 8002f78:	1de8      	adds	r0, r5, #7
 8002f7a:	2000      	movs	r0, #0
 8002f7c:	50cd      	str	r5, [r1, r3]
 8002f7e:	0800      	lsrs	r0, r0, #32
 8002f80:	3895      	subs	r0, #149	; 0x95
 8002f82:	0800      	lsrs	r0, r0, #32
 8002f84:	50d9      	str	r1, [r3, r3]
 8002f86:	0800      	lsrs	r0, r0, #32
 8002f88:	386d      	subs	r0, #109	; 0x6d
 8002f8a:	0800      	lsrs	r0, r0, #32
 8002f8c:	4e0d      	ldr	r6, [pc, #52]	; (8002fc4 <Printer_Print_NV_Bitmap+0x34>)
 8002f8e:	0800      	lsrs	r0, r0, #32

08002f90 <Printer_Print_NV_Bitmap>:
 8002f90:	b538      	push	{r3, r4, r5, lr}
 8002f92:	4c16      	ldr	r4, [pc, #88]	; (8002fec <Printer_Print_NV_Bitmap+0x5c>)
 8002f94:	78a3      	ldrb	r3, [r4, #2]
 8002f96:	b12b      	cbz	r3, 8002fa4 <Printer_Print_NV_Bitmap+0x14>
 8002f98:	2b01      	cmp	r3, #1
 8002f9a:	d021      	beq.n	8002fe0 <Printer_Print_NV_Bitmap+0x50>
 8002f9c:	2300      	movs	r3, #0
 8002f9e:	70a3      	strb	r3, [r4, #2]
 8002fa0:	2001      	movs	r0, #1
 8002fa2:	bd38      	pop	{r3, r4, r5, pc}
 8002fa4:	4b12      	ldr	r3, [pc, #72]	; (8002ff0 <Printer_Print_NV_Bitmap+0x60>)
 8002fa6:	4798      	blx	r3
 8002fa8:	2800      	cmp	r0, #0
 8002faa:	d1f9      	bne.n	8002fa0 <Printer_Print_NV_Bitmap+0x10>
 8002fac:	4b11      	ldr	r3, [pc, #68]	; (8002ff4 <Printer_Print_NV_Bitmap+0x64>)
 8002fae:	4798      	blx	r3
 8002fb0:	4602      	mov	r2, r0
 8002fb2:	2800      	cmp	r0, #0
 8002fb4:	d1f4      	bne.n	8002fa0 <Printer_Print_NV_Bitmap+0x10>
 8002fb6:	68e0      	ldr	r0, [r4, #12]
 8002fb8:	4d0f      	ldr	r5, [pc, #60]	; (8002ff8 <Printer_Print_NV_Bitmap+0x68>)
 8002fba:	2302      	movs	r3, #2
 8002fbc:	1d21      	adds	r1, r4, #4
 8002fbe:	47a8      	blx	r5
 8002fc0:	2802      	cmp	r0, #2
 8002fc2:	d011      	beq.n	8002fe8 <Printer_Print_NV_Bitmap+0x58>
 8002fc4:	7920      	ldrb	r0, [r4, #4]
 8002fc6:	2800      	cmp	r0, #0
 8002fc8:	d0ea      	beq.n	8002fa0 <Printer_Print_NV_Bitmap+0x10>
 8002fca:	7961      	ldrb	r1, [r4, #5]
 8002fcc:	4b0b      	ldr	r3, [pc, #44]	; (8002ffc <Printer_Print_NV_Bitmap+0x6c>)
 8002fce:	4798      	blx	r3
 8002fd0:	2800      	cmp	r0, #0
 8002fd2:	d0e5      	beq.n	8002fa0 <Printer_Print_NV_Bitmap+0x10>
 8002fd4:	4b0a      	ldr	r3, [pc, #40]	; (8003000 <Printer_Print_NV_Bitmap+0x70>)
 8002fd6:	68e0      	ldr	r0, [r4, #12]
 8002fd8:	2102      	movs	r1, #2
 8002fda:	4798      	blx	r3
 8002fdc:	2301      	movs	r3, #1
 8002fde:	70a3      	strb	r3, [r4, #2]
 8002fe0:	4b08      	ldr	r3, [pc, #32]	; (8003004 <Printer_Print_NV_Bitmap+0x74>)
 8002fe2:	4798      	blx	r3
 8002fe4:	2800      	cmp	r0, #0
 8002fe6:	d1d9      	bne.n	8002f9c <Printer_Print_NV_Bitmap+0xc>
 8002fe8:	2000      	movs	r0, #0
 8002fea:	bd38      	pop	{r3, r4, r5, pc}
 8002fec:	1de8      	adds	r0, r5, #7
 8002fee:	2000      	movs	r0, #0
 8002ff0:	50cd      	str	r5, [r1, r3]
 8002ff2:	0800      	lsrs	r0, r0, #32
 8002ff4:	4d45      	ldr	r5, [pc, #276]	; (800310c <Pinter_Turn_90_Clockwise_Rotation_Mode+0x44>)
 8002ff6:	0800      	lsrs	r0, r0, #32
 8002ff8:	39f5      	subs	r1, #245	; 0xf5
 8002ffa:	0800      	lsrs	r0, r0, #32
 8002ffc:	5121      	str	r1, [r4, r4]
 8002ffe:	0800      	lsrs	r0, r0, #32
 8003000:	3c29      	subs	r4, #41	; 0x29
 8003002:	0800      	lsrs	r0, r0, #32
 8003004:	5209      	strh	r1, [r1, r0]
 8003006:	0800      	lsrs	r0, r0, #32

08003008 <Printer_Set_Relative_Print_Position>:
 8003008:	b510      	push	{r4, lr}
 800300a:	4c09      	ldr	r4, [pc, #36]	; (8003030 <Printer_Set_Relative_Print_Position+0x28>)
 800300c:	4b09      	ldr	r3, [pc, #36]	; (8003034 <Printer_Set_Relative_Print_Position+0x2c>)
 800300e:	68e0      	ldr	r0, [r4, #12]
 8003010:	2202      	movs	r2, #2
 8003012:	1d21      	adds	r1, r4, #4
 8003014:	4798      	blx	r3
 8003016:	2802      	cmp	r0, #2
 8003018:	d008      	beq.n	800302c <Printer_Set_Relative_Print_Position+0x24>
 800301a:	7962      	ldrb	r2, [r4, #5]
 800301c:	7920      	ldrb	r0, [r4, #4]
 800301e:	4b06      	ldr	r3, [pc, #24]	; (8003038 <Printer_Set_Relative_Print_Position+0x30>)
 8003020:	eb00 2002 	add.w	r0, r0, r2, lsl #8
 8003024:	b280      	uxth	r0, r0
 8003026:	4798      	blx	r3
 8003028:	2001      	movs	r0, #1
 800302a:	bd10      	pop	{r4, pc}
 800302c:	2000      	movs	r0, #0
 800302e:	bd10      	pop	{r4, pc}
 8003030:	1de8      	adds	r0, r5, #7
 8003032:	2000      	movs	r0, #0
 8003034:	3979      	subs	r1, #121	; 0x79
 8003036:	0800      	lsrs	r0, r0, #32
 8003038:	4d69      	ldr	r5, [pc, #420]	; (80031e0 <Printer_Turn_Strike_Mode+0x18>)
 800303a:	0800      	lsrs	r0, r0, #32

0800303c <Printer_Turn_UpsideDown_Printing_Mode>:
 800303c:	b510      	push	{r4, lr}
 800303e:	4c07      	ldr	r4, [pc, #28]	; (800305c <Printer_Turn_UpsideDown_Printing_Mode+0x20>)
 8003040:	4b07      	ldr	r3, [pc, #28]	; (8003060 <Printer_Turn_UpsideDown_Printing_Mode+0x24>)
 8003042:	68e0      	ldr	r0, [r4, #12]
 8003044:	1d21      	adds	r1, r4, #4
 8003046:	4798      	blx	r3
 8003048:	2802      	cmp	r0, #2
 800304a:	d004      	beq.n	8003056 <Printer_Turn_UpsideDown_Printing_Mode+0x1a>
 800304c:	7920      	ldrb	r0, [r4, #4]
 800304e:	4b05      	ldr	r3, [pc, #20]	; (8003064 <Printer_Turn_UpsideDown_Printing_Mode+0x28>)
 8003050:	4798      	blx	r3
 8003052:	2001      	movs	r0, #1
 8003054:	bd10      	pop	{r4, pc}
 8003056:	2000      	movs	r0, #0
 8003058:	bd10      	pop	{r4, pc}
 800305a:	bf00      	nop
 800305c:	1de8      	adds	r0, r5, #7
 800305e:	2000      	movs	r0, #0
 8003060:	37ed      	adds	r7, #237	; 0xed
 8003062:	0800      	lsrs	r0, r0, #32
 8003064:	4715      	bx	r2
 8003066:	0800      	lsrs	r0, r0, #32

08003068 <Printer_Select_Justification>:
 8003068:	b538      	push	{r3, r4, r5, lr}
 800306a:	4b12      	ldr	r3, [pc, #72]	; (80030b4 <Printer_Select_Justification+0x4c>)
 800306c:	4798      	blx	r3
 800306e:	b110      	cbz	r0, 8003076 <Printer_Select_Justification+0xe>
 8003070:	2401      	movs	r4, #1
 8003072:	4620      	mov	r0, r4
 8003074:	bd38      	pop	{r3, r4, r5, pc}
 8003076:	4d10      	ldr	r5, [pc, #64]	; (80030b8 <Printer_Select_Justification+0x50>)
 8003078:	4b10      	ldr	r3, [pc, #64]	; (80030bc <Printer_Select_Justification+0x54>)
 800307a:	4602      	mov	r2, r0
 800307c:	4604      	mov	r4, r0
 800307e:	1d29      	adds	r1, r5, #4
 8003080:	68e8      	ldr	r0, [r5, #12]
 8003082:	4798      	blx	r3
 8003084:	2802      	cmp	r0, #2
 8003086:	d0f4      	beq.n	8003072 <Printer_Select_Justification+0xa>
 8003088:	792b      	ldrb	r3, [r5, #4]
 800308a:	b18b      	cbz	r3, 80030b0 <Printer_Select_Justification+0x48>
 800308c:	2b30      	cmp	r3, #48	; 0x30
 800308e:	d00f      	beq.n	80030b0 <Printer_Select_Justification+0x48>
 8003090:	2b01      	cmp	r3, #1
 8003092:	d007      	beq.n	80030a4 <Printer_Select_Justification+0x3c>
 8003094:	2b31      	cmp	r3, #49	; 0x31
 8003096:	d005      	beq.n	80030a4 <Printer_Select_Justification+0x3c>
 8003098:	2b02      	cmp	r3, #2
 800309a:	d001      	beq.n	80030a0 <Printer_Select_Justification+0x38>
 800309c:	2b32      	cmp	r3, #50	; 0x32
 800309e:	d1e7      	bne.n	8003070 <Printer_Select_Justification+0x8>
 80030a0:	2002      	movs	r0, #2
 80030a2:	e000      	b.n	80030a6 <Printer_Select_Justification+0x3e>
 80030a4:	2001      	movs	r0, #1
 80030a6:	4b06      	ldr	r3, [pc, #24]	; (80030c0 <Printer_Select_Justification+0x58>)
 80030a8:	4798      	blx	r3
 80030aa:	4b06      	ldr	r3, [pc, #24]	; (80030c4 <Printer_Select_Justification+0x5c>)
 80030ac:	4798      	blx	r3
 80030ae:	e7df      	b.n	8003070 <Printer_Select_Justification+0x8>
 80030b0:	2000      	movs	r0, #0
 80030b2:	e7f8      	b.n	80030a6 <Printer_Select_Justification+0x3e>
 80030b4:	4d45      	ldr	r5, [pc, #276]	; (80031cc <Printer_Turn_Strike_Mode+0x4>)
 80030b6:	0800      	lsrs	r0, r0, #32
 80030b8:	1de8      	adds	r0, r5, #7
 80030ba:	2000      	movs	r0, #0
 80030bc:	3895      	subs	r0, #149	; 0x95
 80030be:	0800      	lsrs	r0, r0, #32
 80030c0:	4735      	bx	r6
 80030c2:	0800      	lsrs	r0, r0, #32
 80030c4:	2cb1      	cmp	r4, #177	; 0xb1
 80030c6:	0800      	lsrs	r0, r0, #32

080030c8 <Pinter_Turn_90_Clockwise_Rotation_Mode>:
 80030c8:	b510      	push	{r4, lr}
 80030ca:	4c0e      	ldr	r4, [pc, #56]	; (8003104 <Pinter_Turn_90_Clockwise_Rotation_Mode+0x3c>)
 80030cc:	4b0e      	ldr	r3, [pc, #56]	; (8003108 <Pinter_Turn_90_Clockwise_Rotation_Mode+0x40>)
 80030ce:	68e0      	ldr	r0, [r4, #12]
 80030d0:	2200      	movs	r2, #0
 80030d2:	1d21      	adds	r1, r4, #4
 80030d4:	4798      	blx	r3
 80030d6:	2802      	cmp	r0, #2
 80030d8:	d011      	beq.n	80030fe <Pinter_Turn_90_Clockwise_Rotation_Mode+0x36>
 80030da:	7923      	ldrb	r3, [r4, #4]
 80030dc:	b143      	cbz	r3, 80030f0 <Pinter_Turn_90_Clockwise_Rotation_Mode+0x28>
 80030de:	2b30      	cmp	r3, #48	; 0x30
 80030e0:	d006      	beq.n	80030f0 <Pinter_Turn_90_Clockwise_Rotation_Mode+0x28>
 80030e2:	2b01      	cmp	r3, #1
 80030e4:	f04f 0001 	mov.w	r0, #1
 80030e8:	d003      	beq.n	80030f2 <Pinter_Turn_90_Clockwise_Rotation_Mode+0x2a>
 80030ea:	2b31      	cmp	r3, #49	; 0x31
 80030ec:	d001      	beq.n	80030f2 <Pinter_Turn_90_Clockwise_Rotation_Mode+0x2a>
 80030ee:	bd10      	pop	{r4, pc}
 80030f0:	2000      	movs	r0, #0
 80030f2:	4b06      	ldr	r3, [pc, #24]	; (800310c <Pinter_Turn_90_Clockwise_Rotation_Mode+0x44>)
 80030f4:	4798      	blx	r3
 80030f6:	4b06      	ldr	r3, [pc, #24]	; (8003110 <Pinter_Turn_90_Clockwise_Rotation_Mode+0x48>)
 80030f8:	4798      	blx	r3
 80030fa:	2001      	movs	r0, #1
 80030fc:	bd10      	pop	{r4, pc}
 80030fe:	2000      	movs	r0, #0
 8003100:	bd10      	pop	{r4, pc}
 8003102:	bf00      	nop
 8003104:	1de8      	adds	r0, r5, #7
 8003106:	2000      	movs	r0, #0
 8003108:	3895      	subs	r0, #149	; 0x95
 800310a:	0800      	lsrs	r0, r0, #32
 800310c:	4745      	bx	r8
 800310e:	0800      	lsrs	r0, r0, #32
 8003110:	2cb1      	cmp	r4, #177	; 0xb1
 8003112:	0800      	lsrs	r0, r0, #32

08003114 <Printer_Select_Character_Font>:
 8003114:	b510      	push	{r4, lr}
 8003116:	4c11      	ldr	r4, [pc, #68]	; (800315c <Printer_Select_Character_Font+0x48>)
 8003118:	4b11      	ldr	r3, [pc, #68]	; (8003160 <Printer_Select_Character_Font+0x4c>)
 800311a:	68e0      	ldr	r0, [r4, #12]
 800311c:	2200      	movs	r2, #0
 800311e:	1d21      	adds	r1, r4, #4
 8003120:	4798      	blx	r3
 8003122:	2802      	cmp	r0, #2
 8003124:	d014      	beq.n	8003150 <Printer_Select_Character_Font+0x3c>
 8003126:	7923      	ldrb	r3, [r4, #4]
 8003128:	b15b      	cbz	r3, 8003142 <Printer_Select_Character_Font+0x2e>
 800312a:	2b30      	cmp	r3, #48	; 0x30
 800312c:	d009      	beq.n	8003142 <Printer_Select_Character_Font+0x2e>
 800312e:	2b01      	cmp	r3, #1
 8003130:	d010      	beq.n	8003154 <Printer_Select_Character_Font+0x40>
 8003132:	2b31      	cmp	r3, #49	; 0x31
 8003134:	d00e      	beq.n	8003154 <Printer_Select_Character_Font+0x40>
 8003136:	2b02      	cmp	r3, #2
 8003138:	d00e      	beq.n	8003158 <Printer_Select_Character_Font+0x44>
 800313a:	2b32      	cmp	r3, #50	; 0x32
 800313c:	d00c      	beq.n	8003158 <Printer_Select_Character_Font+0x44>
 800313e:	2001      	movs	r0, #1
 8003140:	bd10      	pop	{r4, pc}
 8003142:	2000      	movs	r0, #0
 8003144:	4b07      	ldr	r3, [pc, #28]	; (8003164 <Printer_Select_Character_Font+0x50>)
 8003146:	4798      	blx	r3
 8003148:	4b07      	ldr	r3, [pc, #28]	; (8003168 <Printer_Select_Character_Font+0x54>)
 800314a:	4798      	blx	r3
 800314c:	2001      	movs	r0, #1
 800314e:	bd10      	pop	{r4, pc}
 8003150:	2000      	movs	r0, #0
 8003152:	bd10      	pop	{r4, pc}
 8003154:	2001      	movs	r0, #1
 8003156:	e7f5      	b.n	8003144 <Printer_Select_Character_Font+0x30>
 8003158:	2002      	movs	r0, #2
 800315a:	e7f3      	b.n	8003144 <Printer_Select_Character_Font+0x30>
 800315c:	1de8      	adds	r0, r5, #7
 800315e:	2000      	movs	r0, #0
 8003160:	3895      	subs	r0, #149	; 0x95
 8003162:	0800      	lsrs	r0, r0, #32
 8003164:	476d      	bx	sp
 8003166:	0800      	lsrs	r0, r0, #32
 8003168:	2cb1      	cmp	r4, #177	; 0xb1
 800316a:	0800      	lsrs	r0, r0, #32

0800316c <Printer_Print_And_Line_Feed>:
 800316c:	b570      	push	{r4, r5, r6, lr}
 800316e:	4b0f      	ldr	r3, [pc, #60]	; (80031ac <Printer_Print_And_Line_Feed+0x40>)
 8003170:	4798      	blx	r3
 8003172:	b1a0      	cbz	r0, 800319e <Printer_Print_And_Line_Feed+0x32>
 8003174:	4d0e      	ldr	r5, [pc, #56]	; (80031b0 <Printer_Print_And_Line_Feed+0x44>)
 8003176:	78ac      	ldrb	r4, [r5, #2]
 8003178:	b93c      	cbnz	r4, 800318a <Printer_Print_And_Line_Feed+0x1e>
 800317a:	4b0e      	ldr	r3, [pc, #56]	; (80031b4 <Printer_Print_And_Line_Feed+0x48>)
 800317c:	4798      	blx	r3
 800317e:	4b0e      	ldr	r3, [pc, #56]	; (80031b8 <Printer_Print_And_Line_Feed+0x4c>)
 8003180:	4798      	blx	r3
 8003182:	2301      	movs	r3, #1
 8003184:	70ab      	strb	r3, [r5, #2]
 8003186:	4620      	mov	r0, r4
 8003188:	bd70      	pop	{r4, r5, r6, pc}
 800318a:	4b0c      	ldr	r3, [pc, #48]	; (80031bc <Printer_Print_And_Line_Feed+0x50>)
 800318c:	4798      	blx	r3
 800318e:	4604      	mov	r4, r0
 8003190:	2800      	cmp	r0, #0
 8003192:	d0f8      	beq.n	8003186 <Printer_Print_And_Line_Feed+0x1a>
 8003194:	2300      	movs	r3, #0
 8003196:	2401      	movs	r4, #1
 8003198:	70ab      	strb	r3, [r5, #2]
 800319a:	4620      	mov	r0, r4
 800319c:	bd70      	pop	{r4, r5, r6, pc}
 800319e:	4b08      	ldr	r3, [pc, #32]	; (80031c0 <Printer_Print_And_Line_Feed+0x54>)
 80031a0:	4798      	blx	r3
 80031a2:	e8bd 4070 	ldmia.w	sp!, {r4, r5, r6, lr}
 80031a6:	4b07      	ldr	r3, [pc, #28]	; (80031c4 <Printer_Print_And_Line_Feed+0x58>)
 80031a8:	2101      	movs	r1, #1
 80031aa:	4718      	bx	r3
 80031ac:	4d45      	ldr	r5, [pc, #276]	; (80032c4 <Printer_Set_Underline_Dots+0x18>)
 80031ae:	0800      	lsrs	r0, r0, #32
 80031b0:	1de8      	adds	r0, r5, #7
 80031b2:	2000      	movs	r0, #0
 80031b4:	4d41      	ldr	r5, [pc, #260]	; (80032bc <Printer_Set_Underline_Dots+0x10>)
 80031b6:	0800      	lsrs	r0, r0, #32
 80031b8:	4d9d      	ldr	r5, [pc, #628]	; (8003430 <Printer_Define_UserDefined_Characters+0x2c>)
 80031ba:	0800      	lsrs	r0, r0, #32
 80031bc:	4d79      	ldr	r5, [pc, #484]	; (80033a4 <Printer_Select_BitImage_Mode+0x34>)
 80031be:	0800      	lsrs	r0, r0, #32
 80031c0:	479d      			; <UNDEFINED> instruction: 0x479d
 80031c2:	0800      	lsrs	r0, r0, #32
 80031c4:	40d1      	lsrs	r1, r2
 80031c6:	0800      	lsrs	r0, r0, #32

080031c8 <Printer_Turn_Strike_Mode>:
 80031c8:	b510      	push	{r4, lr}
 80031ca:	4c08      	ldr	r4, [pc, #32]	; (80031ec <Printer_Turn_Strike_Mode+0x24>)
 80031cc:	4b08      	ldr	r3, [pc, #32]	; (80031f0 <Printer_Turn_Strike_Mode+0x28>)
 80031ce:	68e0      	ldr	r0, [r4, #12]
 80031d0:	1d21      	adds	r1, r4, #4
 80031d2:	4798      	blx	r3
 80031d4:	2802      	cmp	r0, #2
 80031d6:	d006      	beq.n	80031e6 <Printer_Turn_Strike_Mode+0x1e>
 80031d8:	7920      	ldrb	r0, [r4, #4]
 80031da:	4b06      	ldr	r3, [pc, #24]	; (80031f4 <Printer_Turn_Strike_Mode+0x2c>)
 80031dc:	f000 0001 	and.w	r0, r0, #1
 80031e0:	4798      	blx	r3
 80031e2:	2001      	movs	r0, #1
 80031e4:	bd10      	pop	{r4, pc}
 80031e6:	2000      	movs	r0, #0
 80031e8:	bd10      	pop	{r4, pc}
 80031ea:	bf00      	nop
 80031ec:	1de8      	adds	r0, r5, #7
 80031ee:	2000      	movs	r0, #0
 80031f0:	37ed      	adds	r7, #237	; 0xed
 80031f2:	0800      	lsrs	r0, r0, #32
 80031f4:	4705      	bx	r0
 80031f6:	0800      	lsrs	r0, r0, #32

080031f8 <Printer_Select_Bold_Mode>:
 80031f8:	b510      	push	{r4, lr}
 80031fa:	4c07      	ldr	r4, [pc, #28]	; (8003218 <Printer_Select_Bold_Mode+0x20>)
 80031fc:	4b07      	ldr	r3, [pc, #28]	; (800321c <Printer_Select_Bold_Mode+0x24>)
 80031fe:	68e0      	ldr	r0, [r4, #12]
 8003200:	1d21      	adds	r1, r4, #4
 8003202:	4798      	blx	r3
 8003204:	2802      	cmp	r0, #2
 8003206:	d004      	beq.n	8003212 <Printer_Select_Bold_Mode+0x1a>
 8003208:	7920      	ldrb	r0, [r4, #4]
 800320a:	4b05      	ldr	r3, [pc, #20]	; (8003220 <Printer_Select_Bold_Mode+0x28>)
 800320c:	4798      	blx	r3
 800320e:	2001      	movs	r0, #1
 8003210:	bd10      	pop	{r4, pc}
 8003212:	2000      	movs	r0, #0
 8003214:	bd10      	pop	{r4, pc}
 8003216:	bf00      	nop
 8003218:	1de8      	adds	r0, r5, #7
 800321a:	2000      	movs	r0, #0
 800321c:	37ed      	adds	r7, #237	; 0xed
 800321e:	0800      	lsrs	r0, r0, #32
 8003220:	478d      			; <UNDEFINED> instruction: 0x478d
 8003222:	0800      	lsrs	r0, r0, #32

08003224 <Printer_setHorizontal_Tab_Positions>:
 8003224:	b510      	push	{r4, lr}
 8003226:	4c12      	ldr	r4, [pc, #72]	; (8003270 <Printer_setHorizontal_Tab_Positions+0x4c>)
 8003228:	4b12      	ldr	r3, [pc, #72]	; (8003274 <Printer_setHorizontal_Tab_Positions+0x50>)
 800322a:	68e0      	ldr	r0, [r4, #12]
 800322c:	1d21      	adds	r1, r4, #4
 800322e:	4798      	blx	r3
 8003230:	2802      	cmp	r0, #2
 8003232:	d019      	beq.n	8003268 <Printer_setHorizontal_Tab_Positions+0x44>
 8003234:	7923      	ldrb	r3, [r4, #4]
 8003236:	b943      	cbnz	r3, 800324a <Printer_setHorizontal_Tab_Positions+0x26>
 8003238:	78e0      	ldrb	r0, [r4, #3]
 800323a:	2801      	cmp	r0, #1
 800323c:	d016      	beq.n	800326c <Printer_setHorizontal_Tab_Positions+0x48>
 800323e:	2200      	movs	r2, #0
 8003240:	4b0d      	ldr	r3, [pc, #52]	; (8003278 <Printer_setHorizontal_Tab_Positions+0x54>)
 8003242:	70a2      	strb	r2, [r4, #2]
 8003244:	4798      	blx	r3
 8003246:	2001      	movs	r0, #1
 8003248:	bd10      	pop	{r4, pc}
 800324a:	f04f 0c01 	mov.w	ip, #1
 800324e:	78a1      	ldrb	r1, [r4, #2]
 8003250:	4a0a      	ldr	r2, [pc, #40]	; (800327c <Printer_setHorizontal_Tab_Positions+0x58>)
 8003252:	f884 c003 	strb.w	ip, [r4, #3]
 8003256:	4618      	mov	r0, r3
 8003258:	4790      	blx	r2
 800325a:	2800      	cmp	r0, #0
 800325c:	d0ef      	beq.n	800323e <Printer_setHorizontal_Tab_Positions+0x1a>
 800325e:	78a3      	ldrb	r3, [r4, #2]
 8003260:	3301      	adds	r3, #1
 8003262:	2000      	movs	r0, #0
 8003264:	70a3      	strb	r3, [r4, #2]
 8003266:	bd10      	pop	{r4, pc}
 8003268:	2000      	movs	r0, #0
 800326a:	bd10      	pop	{r4, pc}
 800326c:	8063      	strh	r3, [r4, #2]
 800326e:	bd10      	pop	{r4, pc}
 8003270:	1de8      	adds	r0, r5, #7
 8003272:	2000      	movs	r0, #0
 8003274:	37ed      	adds	r7, #237	; 0xed
 8003276:	0800      	lsrs	r0, r0, #32
 8003278:	4d29      	ldr	r5, [pc, #164]	; (8003320 <Printer_Select_Print_Modes+0x1c>)
 800327a:	0800      	lsrs	r0, r0, #32
 800327c:	4ca1      	ldr	r4, [pc, #644]	; (8003504 <Printer_Set_Absolute_Print_Position+0x30>)
 800327e:	0800      	lsrs	r0, r0, #32

08003280 <Printer_Set_LineSpacing>:
 8003280:	b510      	push	{r4, lr}
 8003282:	4c07      	ldr	r4, [pc, #28]	; (80032a0 <Printer_Set_LineSpacing+0x20>)
 8003284:	4b07      	ldr	r3, [pc, #28]	; (80032a4 <Printer_Set_LineSpacing+0x24>)
 8003286:	68e0      	ldr	r0, [r4, #12]
 8003288:	1d21      	adds	r1, r4, #4
 800328a:	4798      	blx	r3
 800328c:	2802      	cmp	r0, #2
 800328e:	d004      	beq.n	800329a <Printer_Set_LineSpacing+0x1a>
 8003290:	7920      	ldrb	r0, [r4, #4]
 8003292:	4b05      	ldr	r3, [pc, #20]	; (80032a8 <Printer_Set_LineSpacing+0x28>)
 8003294:	4798      	blx	r3
 8003296:	2001      	movs	r0, #1
 8003298:	bd10      	pop	{r4, pc}
 800329a:	2000      	movs	r0, #0
 800329c:	bd10      	pop	{r4, pc}
 800329e:	bf00      	nop
 80032a0:	1de8      	adds	r0, r5, #7
 80032a2:	2000      	movs	r0, #0
 80032a4:	37ed      	adds	r7, #237	; 0xed
 80032a6:	0800      	lsrs	r0, r0, #32
 80032a8:	4761      	bx	ip
 80032aa:	0800      	lsrs	r0, r0, #32

080032ac <Printer_Set_Underline_Dots>:
 80032ac:	b510      	push	{r4, lr}
 80032ae:	4c11      	ldr	r4, [pc, #68]	; (80032f4 <Printer_Set_Underline_Dots+0x48>)
 80032b0:	4b11      	ldr	r3, [pc, #68]	; (80032f8 <Printer_Set_Underline_Dots+0x4c>)
 80032b2:	68e0      	ldr	r0, [r4, #12]
 80032b4:	2200      	movs	r2, #0
 80032b6:	1d21      	adds	r1, r4, #4
 80032b8:	4798      	blx	r3
 80032ba:	2802      	cmp	r0, #2
 80032bc:	d014      	beq.n	80032e8 <Printer_Set_Underline_Dots+0x3c>
 80032be:	7923      	ldrb	r3, [r4, #4]
 80032c0:	b15b      	cbz	r3, 80032da <Printer_Set_Underline_Dots+0x2e>
 80032c2:	2b30      	cmp	r3, #48	; 0x30
 80032c4:	d009      	beq.n	80032da <Printer_Set_Underline_Dots+0x2e>
 80032c6:	2b01      	cmp	r3, #1
 80032c8:	d010      	beq.n	80032ec <Printer_Set_Underline_Dots+0x40>
 80032ca:	2b31      	cmp	r3, #49	; 0x31
 80032cc:	d00e      	beq.n	80032ec <Printer_Set_Underline_Dots+0x40>
 80032ce:	2b02      	cmp	r3, #2
 80032d0:	d00e      	beq.n	80032f0 <Printer_Set_Underline_Dots+0x44>
 80032d2:	2b32      	cmp	r3, #50	; 0x32
 80032d4:	d00c      	beq.n	80032f0 <Printer_Set_Underline_Dots+0x44>
 80032d6:	2001      	movs	r0, #1
 80032d8:	bd10      	pop	{r4, pc}
 80032da:	2000      	movs	r0, #0
 80032dc:	4b07      	ldr	r3, [pc, #28]	; (80032fc <Printer_Set_Underline_Dots+0x50>)
 80032de:	4798      	blx	r3
 80032e0:	4b07      	ldr	r3, [pc, #28]	; (8003300 <Printer_Set_Underline_Dots+0x54>)
 80032e2:	4798      	blx	r3
 80032e4:	2001      	movs	r0, #1
 80032e6:	bd10      	pop	{r4, pc}
 80032e8:	2000      	movs	r0, #0
 80032ea:	bd10      	pop	{r4, pc}
 80032ec:	2001      	movs	r0, #1
 80032ee:	e7f5      	b.n	80032dc <Printer_Set_Underline_Dots+0x30>
 80032f0:	2002      	movs	r0, #2
 80032f2:	e7f3      	b.n	80032dc <Printer_Set_Underline_Dots+0x30>
 80032f4:	1de8      	adds	r0, r5, #7
 80032f6:	2000      	movs	r0, #0
 80032f8:	3895      	subs	r0, #149	; 0x95
 80032fa:	0800      	lsrs	r0, r0, #32
 80032fc:	477d      	bx	pc
 80032fe:	0800      	lsrs	r0, r0, #32
 8003300:	2cb1      	cmp	r4, #177	; 0xb1
 8003302:	0800      	lsrs	r0, r0, #32

08003304 <Printer_Select_Print_Modes>:
 8003304:	b510      	push	{r4, lr}
 8003306:	4c13      	ldr	r4, [pc, #76]	; (8003354 <Printer_Select_Print_Modes+0x50>)
 8003308:	4b13      	ldr	r3, [pc, #76]	; (8003358 <Printer_Select_Print_Modes+0x54>)
 800330a:	68e0      	ldr	r0, [r4, #12]
 800330c:	1d21      	adds	r1, r4, #4
 800330e:	4798      	blx	r3
 8003310:	2802      	cmp	r0, #2
 8003312:	d01c      	beq.n	800334e <Printer_Select_Print_Modes+0x4a>
 8003314:	7923      	ldrb	r3, [r4, #4]
 8003316:	2400      	movs	r4, #0
 8003318:	f363 0407 	bfi	r4, r3, #0, #8
 800331c:	f004 0001 	and.w	r0, r4, #1
 8003320:	4b0e      	ldr	r3, [pc, #56]	; (800335c <Printer_Select_Print_Modes+0x58>)
 8003322:	4798      	blx	r3
 8003324:	f3c4 00c0 	ubfx	r0, r4, #3, #1
 8003328:	4b0d      	ldr	r3, [pc, #52]	; (8003360 <Printer_Select_Print_Modes+0x5c>)
 800332a:	4798      	blx	r3
 800332c:	f3c4 1000 	ubfx	r0, r4, #4, #1
 8003330:	3001      	adds	r0, #1
 8003332:	4b0c      	ldr	r3, [pc, #48]	; (8003364 <Printer_Select_Print_Modes+0x60>)
 8003334:	b2c0      	uxtb	r0, r0
 8003336:	4798      	blx	r3
 8003338:	f3c4 1040 	ubfx	r0, r4, #5, #1
 800333c:	3001      	adds	r0, #1
 800333e:	4b0a      	ldr	r3, [pc, #40]	; (8003368 <Printer_Select_Print_Modes+0x64>)
 8003340:	b2c0      	uxtb	r0, r0
 8003342:	4798      	blx	r3
 8003344:	09e0      	lsrs	r0, r4, #7
 8003346:	4b09      	ldr	r3, [pc, #36]	; (800336c <Printer_Select_Print_Modes+0x68>)
 8003348:	4798      	blx	r3
 800334a:	2001      	movs	r0, #1
 800334c:	bd10      	pop	{r4, pc}
 800334e:	2000      	movs	r0, #0
 8003350:	bd10      	pop	{r4, pc}
 8003352:	bf00      	nop
 8003354:	1de8      	adds	r0, r5, #7
 8003356:	2000      	movs	r0, #0
 8003358:	37ed      	adds	r7, #237	; 0xed
 800335a:	0800      	lsrs	r0, r0, #32
 800335c:	476d      	bx	sp
 800335e:	0800      	lsrs	r0, r0, #32
 8003360:	478d      			; <UNDEFINED> instruction: 0x478d
 8003362:	0800      	lsrs	r0, r0, #32
 8003364:	46f5      	mov	sp, lr
 8003366:	0800      	lsrs	r0, r0, #32
 8003368:	46e5      	mov	sp, ip
 800336a:	0800      	lsrs	r0, r0, #32
 800336c:	477d      	bx	pc
 800336e:	0800      	lsrs	r0, r0, #32

08003370 <Printer_Select_BitImage_Mode>:
 8003370:	b5f8      	push	{r3, r4, r5, r6, r7, lr}
 8003372:	4d1f      	ldr	r5, [pc, #124]	; (80033f0 <Printer_Select_BitImage_Mode+0x80>)
 8003374:	78ac      	ldrb	r4, [r5, #2]
 8003376:	b12c      	cbz	r4, 8003384 <Printer_Select_BitImage_Mode+0x14>
 8003378:	2c01      	cmp	r4, #1
 800337a:	d011      	beq.n	80033a0 <Printer_Select_BitImage_Mode+0x30>
 800337c:	2400      	movs	r4, #0
 800337e:	70ac      	strb	r4, [r5, #2]
 8003380:	4620      	mov	r0, r4
 8003382:	bdf8      	pop	{r3, r4, r5, r6, r7, pc}
 8003384:	68e8      	ldr	r0, [r5, #12]
 8003386:	4e1b      	ldr	r6, [pc, #108]	; (80033f4 <Printer_Select_BitImage_Mode+0x84>)
 8003388:	2303      	movs	r3, #3
 800338a:	4622      	mov	r2, r4
 800338c:	1d29      	adds	r1, r5, #4
 800338e:	47b0      	blx	r6
 8003390:	2802      	cmp	r0, #2
 8003392:	d018      	beq.n	80033c6 <Printer_Select_BitImage_Mode+0x56>
 8003394:	79ab      	ldrb	r3, [r5, #6]
 8003396:	2b03      	cmp	r3, #3
 8003398:	d921      	bls.n	80033de <Printer_Select_BitImage_Mode+0x6e>
 800339a:	2401      	movs	r4, #1
 800339c:	4620      	mov	r0, r4
 800339e:	bdf8      	pop	{r3, r4, r5, r6, r7, pc}
 80033a0:	79a9      	ldrb	r1, [r5, #6]
 80033a2:	796e      	ldrb	r6, [r5, #5]
 80033a4:	792b      	ldrb	r3, [r5, #4]
 80033a6:	68e8      	ldr	r0, [r5, #12]
 80033a8:	eb06 2601 	add.w	r6, r6, r1, lsl #8
 80033ac:	3b20      	subs	r3, #32
 80033ae:	2b01      	cmp	r3, #1
 80033b0:	b2b6      	uxth	r6, r6
 80033b2:	bf98      	it	ls
 80033b4:	eb06 0746 	addls.w	r7, r6, r6, lsl #1
 80033b8:	4b0f      	ldr	r3, [pc, #60]	; (80033f8 <Printer_Select_BitImage_Mode+0x88>)
 80033ba:	bf94      	ite	ls
 80033bc:	b2bf      	uxthls	r7, r7
 80033be:	4637      	movhi	r7, r6
 80033c0:	4798      	blx	r3
 80033c2:	42b8      	cmp	r0, r7
 80033c4:	d202      	bcs.n	80033cc <Printer_Select_BitImage_Mode+0x5c>
 80033c6:	2400      	movs	r4, #0
 80033c8:	4620      	mov	r0, r4
 80033ca:	bdf8      	pop	{r3, r4, r5, r6, r7, pc}
 80033cc:	2300      	movs	r3, #0
 80033ce:	7928      	ldrb	r0, [r5, #4]
 80033d0:	70ab      	strb	r3, [r5, #2]
 80033d2:	68ea      	ldr	r2, [r5, #12]
 80033d4:	4b09      	ldr	r3, [pc, #36]	; (80033fc <Printer_Select_BitImage_Mode+0x8c>)
 80033d6:	4631      	mov	r1, r6
 80033d8:	4798      	blx	r3
 80033da:	4620      	mov	r0, r4
 80033dc:	bdf8      	pop	{r3, r4, r5, r6, r7, pc}
 80033de:	68e8      	ldr	r0, [r5, #12]
 80033e0:	4b07      	ldr	r3, [pc, #28]	; (8003400 <Printer_Select_BitImage_Mode+0x90>)
 80033e2:	2103      	movs	r1, #3
 80033e4:	4798      	blx	r3
 80033e6:	2301      	movs	r3, #1
 80033e8:	70ab      	strb	r3, [r5, #2]
 80033ea:	4620      	mov	r0, r4
 80033ec:	bdf8      	pop	{r3, r4, r5, r6, r7, pc}
 80033ee:	bf00      	nop
 80033f0:	1de8      	adds	r0, r5, #7
 80033f2:	2000      	movs	r0, #0
 80033f4:	39f5      	subs	r1, #245	; 0xf5
 80033f6:	0800      	lsrs	r0, r0, #32
 80033f8:	3c1d      	subs	r4, #29
 80033fa:	0800      	lsrs	r0, r0, #32
 80033fc:	4a1d      	ldr	r2, [pc, #116]	; (8003474 <Printer_Define_UserDefined_Characters+0x70>)
 80033fe:	0800      	lsrs	r0, r0, #32
 8003400:	3c29      	subs	r4, #41	; 0x29
 8003402:	0800      	lsrs	r0, r0, #32

08003404 <Printer_Define_UserDefined_Characters>:
 8003404:	b570      	push	{r4, r5, r6, lr}
 8003406:	4d21      	ldr	r5, [pc, #132]	; (800348c <Printer_Define_UserDefined_Characters+0x88>)
 8003408:	78ac      	ldrb	r4, [r5, #2]
 800340a:	b08a      	sub	sp, #40	; 0x28
 800340c:	b134      	cbz	r4, 800341c <Printer_Define_UserDefined_Characters+0x18>
 800340e:	2c01      	cmp	r4, #1
 8003410:	d01f      	beq.n	8003452 <Printer_Define_UserDefined_Characters+0x4e>
 8003412:	2400      	movs	r4, #0
 8003414:	70ac      	strb	r4, [r5, #2]
 8003416:	4620      	mov	r0, r4
 8003418:	b00a      	add	sp, #40	; 0x28
 800341a:	bd70      	pop	{r4, r5, r6, pc}
 800341c:	68e8      	ldr	r0, [r5, #12]
 800341e:	4e1c      	ldr	r6, [pc, #112]	; (8003490 <Printer_Define_UserDefined_Characters+0x8c>)
 8003420:	2303      	movs	r3, #3
 8003422:	4622      	mov	r2, r4
 8003424:	1d29      	adds	r1, r5, #4
 8003426:	47b0      	blx	r6
 8003428:	2802      	cmp	r0, #2
 800342a:	d02b      	beq.n	8003484 <Printer_Define_UserDefined_Characters+0x80>
 800342c:	792b      	ldrb	r3, [r5, #4]
 800342e:	3b02      	subs	r3, #2
 8003430:	2b01      	cmp	r3, #1
 8003432:	d823      	bhi.n	800347c <Printer_Define_UserDefined_Characters+0x78>
 8003434:	796b      	ldrb	r3, [r5, #5]
 8003436:	79aa      	ldrb	r2, [r5, #6]
 8003438:	2b1f      	cmp	r3, #31
 800343a:	d801      	bhi.n	8003440 <Printer_Define_UserDefined_Characters+0x3c>
 800343c:	4293      	cmp	r3, r2
 800343e:	d81d      	bhi.n	800347c <Printer_Define_UserDefined_Characters+0x78>
 8003440:	0613      	lsls	r3, r2, #24
 8003442:	d41b      	bmi.n	800347c <Printer_Define_UserDefined_Characters+0x78>
 8003444:	4b13      	ldr	r3, [pc, #76]	; (8003494 <Printer_Define_UserDefined_Characters+0x90>)
 8003446:	68e8      	ldr	r0, [r5, #12]
 8003448:	2103      	movs	r1, #3
 800344a:	4798      	blx	r3
 800344c:	2301      	movs	r3, #1
 800344e:	70ab      	strb	r3, [r5, #2]
 8003450:	e7e1      	b.n	8003416 <Printer_Define_UserDefined_Characters+0x12>
 8003452:	4b11      	ldr	r3, [pc, #68]	; (8003498 <Printer_Define_UserDefined_Characters+0x94>)
 8003454:	68ee      	ldr	r6, [r5, #12]
 8003456:	4798      	blx	r3
 8003458:	4b10      	ldr	r3, [pc, #64]	; (800349c <Printer_Define_UserDefined_Characters+0x98>)
 800345a:	b282      	uxth	r2, r0
 800345c:	a901      	add	r1, sp, #4
 800345e:	4630      	mov	r0, r6
 8003460:	4798      	blx	r3
 8003462:	2802      	cmp	r0, #2
 8003464:	d00e      	beq.n	8003484 <Printer_Define_UserDefined_Characters+0x80>
 8003466:	2100      	movs	r1, #0
 8003468:	792a      	ldrb	r2, [r5, #4]
 800346a:	7968      	ldrb	r0, [r5, #5]
 800346c:	70a9      	strb	r1, [r5, #2]
 800346e:	ab01      	add	r3, sp, #4
 8003470:	79a9      	ldrb	r1, [r5, #6]
 8003472:	4d0b      	ldr	r5, [pc, #44]	; (80034a0 <Printer_Define_UserDefined_Characters+0x9c>)
 8003474:	47a8      	blx	r5
 8003476:	4620      	mov	r0, r4
 8003478:	b00a      	add	sp, #40	; 0x28
 800347a:	bd70      	pop	{r4, r5, r6, pc}
 800347c:	2401      	movs	r4, #1
 800347e:	4620      	mov	r0, r4
 8003480:	b00a      	add	sp, #40	; 0x28
 8003482:	bd70      	pop	{r4, r5, r6, pc}
 8003484:	2400      	movs	r4, #0
 8003486:	4620      	mov	r0, r4
 8003488:	b00a      	add	sp, #40	; 0x28
 800348a:	bd70      	pop	{r4, r5, r6, pc}
 800348c:	1de8      	adds	r0, r5, #7
 800348e:	2000      	movs	r0, #0
 8003490:	39f5      	subs	r1, #245	; 0xf5
 8003492:	0800      	lsrs	r0, r0, #32
 8003494:	3c29      	subs	r4, #41	; 0x29
 8003496:	0800      	lsrs	r0, r0, #32
 8003498:	54ed      	strb	r5, [r5, r3]
 800349a:	0800      	lsrs	r0, r0, #32
 800349c:	3979      	subs	r1, #121	; 0x79
 800349e:	0800      	lsrs	r0, r0, #32
 80034a0:	5421      	strb	r1, [r4, r0]
 80034a2:	0800      	lsrs	r0, r0, #32

080034a4 <Printer_Select_UserDefined_Characters>:
 80034a4:	b510      	push	{r4, lr}
 80034a6:	4c08      	ldr	r4, [pc, #32]	; (80034c8 <Printer_Select_UserDefined_Characters+0x24>)
 80034a8:	4b08      	ldr	r3, [pc, #32]	; (80034cc <Printer_Select_UserDefined_Characters+0x28>)
 80034aa:	68e0      	ldr	r0, [r4, #12]
 80034ac:	1d21      	adds	r1, r4, #4
 80034ae:	4798      	blx	r3
 80034b0:	2802      	cmp	r0, #2
 80034b2:	d006      	beq.n	80034c2 <Printer_Select_UserDefined_Characters+0x1e>
 80034b4:	7920      	ldrb	r0, [r4, #4]
 80034b6:	4b06      	ldr	r3, [pc, #24]	; (80034d0 <Printer_Select_UserDefined_Characters+0x2c>)
 80034b8:	f000 0001 	and.w	r0, r0, #1
 80034bc:	4798      	blx	r3
 80034be:	2001      	movs	r0, #1
 80034c0:	bd10      	pop	{r4, pc}
 80034c2:	2000      	movs	r0, #0
 80034c4:	bd10      	pop	{r4, pc}
 80034c6:	bf00      	nop
 80034c8:	1de8      	adds	r0, r5, #7
 80034ca:	2000      	movs	r0, #0
 80034cc:	37ed      	adds	r7, #237	; 0xed
 80034ce:	0800      	lsrs	r0, r0, #32
 80034d0:	54d9      	strb	r1, [r3, r3]
 80034d2:	0800      	lsrs	r0, r0, #32

080034d4 <Printer_Set_Absolute_Print_Position>:
 80034d4:	b510      	push	{r4, lr}
 80034d6:	4c09      	ldr	r4, [pc, #36]	; (80034fc <Printer_Set_Absolute_Print_Position+0x28>)
 80034d8:	4b09      	ldr	r3, [pc, #36]	; (8003500 <Printer_Set_Absolute_Print_Position+0x2c>)
 80034da:	68e0      	ldr	r0, [r4, #12]
 80034dc:	2202      	movs	r2, #2
 80034de:	1d21      	adds	r1, r4, #4
 80034e0:	4798      	blx	r3
 80034e2:	2802      	cmp	r0, #2
 80034e4:	d008      	beq.n	80034f8 <Printer_Set_Absolute_Print_Position+0x24>
 80034e6:	7962      	ldrb	r2, [r4, #5]
 80034e8:	7920      	ldrb	r0, [r4, #4]
 80034ea:	4b06      	ldr	r3, [pc, #24]	; (8003504 <Printer_Set_Absolute_Print_Position+0x30>)
 80034ec:	eb00 2002 	add.w	r0, r0, r2, lsl #8
 80034f0:	b280      	uxth	r0, r0
 80034f2:	4798      	blx	r3
 80034f4:	2001      	movs	r0, #1
 80034f6:	bd10      	pop	{r4, pc}
 80034f8:	2000      	movs	r0, #0
 80034fa:	bd10      	pop	{r4, pc}
 80034fc:	1de8      	adds	r0, r5, #7
 80034fe:	2000      	movs	r0, #0
 8003500:	3979      	subs	r1, #121	; 0x79
 8003502:	0800      	lsrs	r0, r0, #32
 8003504:	4d59      	ldr	r5, [pc, #356]	; (800366c <escpos_cmd_main+0x38>)
 8003506:	0800      	lsrs	r0, r0, #32

08003508 <Printer_Set_Space_Between_Chars>:
 8003508:	b510      	push	{r4, lr}
 800350a:	4c07      	ldr	r4, [pc, #28]	; (8003528 <Printer_Set_Space_Between_Chars+0x20>)
 800350c:	4b07      	ldr	r3, [pc, #28]	; (800352c <Printer_Set_Space_Between_Chars+0x24>)
 800350e:	68e0      	ldr	r0, [r4, #12]
 8003510:	1d21      	adds	r1, r4, #4
 8003512:	4798      	blx	r3
 8003514:	2802      	cmp	r0, #2
 8003516:	d004      	beq.n	8003522 <Printer_Set_Space_Between_Chars+0x1a>
 8003518:	7920      	ldrb	r0, [r4, #4]
 800351a:	4b05      	ldr	r3, [pc, #20]	; (8003530 <Printer_Set_Space_Between_Chars+0x28>)
 800351c:	4798      	blx	r3
 800351e:	2001      	movs	r0, #1
 8003520:	bd10      	pop	{r4, pc}
 8003522:	2000      	movs	r0, #0
 8003524:	bd10      	pop	{r4, pc}
 8003526:	bf00      	nop
 8003528:	1de8      	adds	r0, r5, #7
 800352a:	2000      	movs	r0, #0
 800352c:	37ed      	adds	r7, #237	; 0xed
 800352e:	0800      	lsrs	r0, r0, #32
 8003530:	4a05      	ldr	r2, [pc, #20]	; (8003548 <Printer_Feed_N_Dot+0x4>)
 8003532:	0800      	lsrs	r0, r0, #32

08003534 <PrinterMemTest>:
 8003534:	2001      	movs	r0, #1
 8003536:	4770      	bx	lr

08003538 <Printer_RealTime_Request_To_Printer>:
 8003538:	2001      	movs	r0, #1
 800353a:	4770      	bx	lr

0800353c <Printer_Generate_Pulse_AT_RealTime>:
 800353c:	2001      	movs	r0, #1
 800353e:	4770      	bx	lr

08003540 <Printer_Cencel_UserDefined_Characters>:
 8003540:	2001      	movs	r0, #1
 8003542:	4770      	bx	lr

08003544 <Printer_Feed_N_Dot>:
 8003544:	b538      	push	{r3, r4, r5, lr}
 8003546:	4c17      	ldr	r4, [pc, #92]	; (80035a4 <Printer_Feed_N_Dot+0x60>)
 8003548:	78a3      	ldrb	r3, [r4, #2]
 800354a:	2b01      	cmp	r3, #1
 800354c:	d007      	beq.n	800355e <Printer_Feed_N_Dot+0x1a>
 800354e:	2b02      	cmp	r3, #2
 8003550:	d01f      	beq.n	8003592 <Printer_Feed_N_Dot+0x4e>
 8003552:	b163      	cbz	r3, 800356e <Printer_Feed_N_Dot+0x2a>
 8003554:	2300      	movs	r3, #0
 8003556:	70a3      	strb	r3, [r4, #2]
 8003558:	2501      	movs	r5, #1
 800355a:	4628      	mov	r0, r5
 800355c:	bd38      	pop	{r3, r4, r5, pc}
 800355e:	4b12      	ldr	r3, [pc, #72]	; (80035a8 <Printer_Feed_N_Dot+0x64>)
 8003560:	4798      	blx	r3
 8003562:	b108      	cbz	r0, 8003568 <Printer_Feed_N_Dot+0x24>
 8003564:	2302      	movs	r3, #2
 8003566:	70a3      	strb	r3, [r4, #2]
 8003568:	2500      	movs	r5, #0
 800356a:	4628      	mov	r0, r5
 800356c:	bd38      	pop	{r3, r4, r5, pc}
 800356e:	68e0      	ldr	r0, [r4, #12]
 8003570:	4b0e      	ldr	r3, [pc, #56]	; (80035ac <Printer_Feed_N_Dot+0x68>)
 8003572:	1d21      	adds	r1, r4, #4
 8003574:	4798      	blx	r3
 8003576:	4605      	mov	r5, r0
 8003578:	2800      	cmp	r0, #0
 800357a:	d1f5      	bne.n	8003568 <Printer_Feed_N_Dot+0x24>
 800357c:	4b0c      	ldr	r3, [pc, #48]	; (80035b0 <Printer_Feed_N_Dot+0x6c>)
 800357e:	4798      	blx	r3
 8003580:	2800      	cmp	r0, #0
 8003582:	d0ef      	beq.n	8003564 <Printer_Feed_N_Dot+0x20>
 8003584:	4b0b      	ldr	r3, [pc, #44]	; (80035b4 <Printer_Feed_N_Dot+0x70>)
 8003586:	4798      	blx	r3
 8003588:	4b0b      	ldr	r3, [pc, #44]	; (80035b8 <Printer_Feed_N_Dot+0x74>)
 800358a:	4798      	blx	r3
 800358c:	2301      	movs	r3, #1
 800358e:	70a3      	strb	r3, [r4, #2]
 8003590:	e7e3      	b.n	800355a <Printer_Feed_N_Dot+0x16>
 8003592:	7920      	ldrb	r0, [r4, #4]
 8003594:	2800      	cmp	r0, #0
 8003596:	d0dd      	beq.n	8003554 <Printer_Feed_N_Dot+0x10>
 8003598:	4b08      	ldr	r3, [pc, #32]	; (80035bc <Printer_Feed_N_Dot+0x78>)
 800359a:	2101      	movs	r1, #1
 800359c:	4798      	blx	r3
 800359e:	2800      	cmp	r0, #0
 80035a0:	d0e2      	beq.n	8003568 <Printer_Feed_N_Dot+0x24>
 80035a2:	e7d7      	b.n	8003554 <Printer_Feed_N_Dot+0x10>
 80035a4:	1de8      	adds	r0, r5, #7
 80035a6:	2000      	movs	r0, #0
 80035a8:	4d79      	ldr	r5, [pc, #484]	; (8003790 <escpos_cmd_main+0x15c>)
 80035aa:	0800      	lsrs	r0, r0, #32
 80035ac:	37ed      	adds	r7, #237	; 0xed
 80035ae:	0800      	lsrs	r0, r0, #32
 80035b0:	4d45      	ldr	r5, [pc, #276]	; (80036c8 <escpos_cmd_main+0x94>)
 80035b2:	0800      	lsrs	r0, r0, #32
 80035b4:	4d41      	ldr	r5, [pc, #260]	; (80036bc <escpos_cmd_main+0x88>)
 80035b6:	0800      	lsrs	r0, r0, #32
 80035b8:	4d9d      	ldr	r5, [pc, #628]	; (8003830 <fifo_byte_Read+0x44>)
 80035ba:	0800      	lsrs	r0, r0, #32
 80035bc:	40d1      	lsrs	r1, r2
 80035be:	0800      	lsrs	r0, r0, #32

080035c0 <Printer_Print_And_Carriage_Return>:
 80035c0:	4b14      	ldr	r3, [pc, #80]	; (8003614 <Printer_Print_And_Carriage_Return+0x54>)
 80035c2:	f993 3000 	ldrsb.w	r3, [r3]
 80035c6:	2b00      	cmp	r3, #0
 80035c8:	db01      	blt.n	80035ce <Printer_Print_And_Carriage_Return+0xe>
 80035ca:	2001      	movs	r0, #1
 80035cc:	4770      	bx	lr
 80035ce:	b510      	push	{r4, lr}
 80035d0:	4b11      	ldr	r3, [pc, #68]	; (8003618 <Printer_Print_And_Carriage_Return+0x58>)
 80035d2:	b082      	sub	sp, #8
 80035d4:	4798      	blx	r3
 80035d6:	b1a0      	cbz	r0, 8003602 <Printer_Print_And_Carriage_Return+0x42>
 80035d8:	4c10      	ldr	r4, [pc, #64]	; (800361c <Printer_Print_And_Carriage_Return+0x5c>)
 80035da:	78a0      	ldrb	r0, [r4, #2]
 80035dc:	9001      	str	r0, [sp, #4]
 80035de:	b138      	cbz	r0, 80035f0 <Printer_Print_And_Carriage_Return+0x30>
 80035e0:	4b0f      	ldr	r3, [pc, #60]	; (8003620 <Printer_Print_And_Carriage_Return+0x60>)
 80035e2:	4798      	blx	r3
 80035e4:	b110      	cbz	r0, 80035ec <Printer_Print_And_Carriage_Return+0x2c>
 80035e6:	2300      	movs	r3, #0
 80035e8:	70a3      	strb	r3, [r4, #2]
 80035ea:	2001      	movs	r0, #1
 80035ec:	b002      	add	sp, #8
 80035ee:	bd10      	pop	{r4, pc}
 80035f0:	4b0c      	ldr	r3, [pc, #48]	; (8003624 <Printer_Print_And_Carriage_Return+0x64>)
 80035f2:	4798      	blx	r3
 80035f4:	4b0c      	ldr	r3, [pc, #48]	; (8003628 <Printer_Print_And_Carriage_Return+0x68>)
 80035f6:	4798      	blx	r3
 80035f8:	9801      	ldr	r0, [sp, #4]
 80035fa:	2301      	movs	r3, #1
 80035fc:	70a3      	strb	r3, [r4, #2]
 80035fe:	b002      	add	sp, #8
 8003600:	bd10      	pop	{r4, pc}
 8003602:	4b0a      	ldr	r3, [pc, #40]	; (800362c <Printer_Print_And_Carriage_Return+0x6c>)
 8003604:	4798      	blx	r3
 8003606:	4b0a      	ldr	r3, [pc, #40]	; (8003630 <Printer_Print_And_Carriage_Return+0x70>)
 8003608:	2101      	movs	r1, #1
 800360a:	b002      	add	sp, #8
 800360c:	e8bd 4010 	ldmia.w	sp!, {r4, lr}
 8003610:	4718      	bx	r3
 8003612:	bf00      	nop
 8003614:	3224      	adds	r2, #36	; 0x24
 8003616:	2000      	movs	r0, #0
 8003618:	4d45      	ldr	r5, [pc, #276]	; (8003730 <escpos_cmd_main+0xfc>)
 800361a:	0800      	lsrs	r0, r0, #32
 800361c:	1de8      	adds	r0, r5, #7
 800361e:	2000      	movs	r0, #0
 8003620:	4d79      	ldr	r5, [pc, #484]	; (8003808 <fifo_byte_Read+0x1c>)
 8003622:	0800      	lsrs	r0, r0, #32
 8003624:	4d41      	ldr	r5, [pc, #260]	; (800372c <escpos_cmd_main+0xf8>)
 8003626:	0800      	lsrs	r0, r0, #32
 8003628:	4d9d      	ldr	r5, [pc, #628]	; (80038a0 <fifo_byte_Peek+0xc>)
 800362a:	0800      	lsrs	r0, r0, #32
 800362c:	479d      			; <UNDEFINED> instruction: 0x479d
 800362e:	0800      	lsrs	r0, r0, #32
 8003630:	40d1      	lsrs	r1, r2
 8003632:	0800      	lsrs	r0, r0, #32

08003634 <escpos_cmd_main>:
 8003634:	b530      	push	{r4, r5, lr}
 8003636:	4d53      	ldr	r5, [pc, #332]	; (8003784 <escpos_cmd_main+0x150>)
 8003638:	782c      	ldrb	r4, [r5, #0]
 800363a:	2c01      	cmp	r4, #1
 800363c:	b083      	sub	sp, #12
 800363e:	d006      	beq.n	800364e <escpos_cmd_main+0x1a>
 8003640:	2c02      	cmp	r4, #2
 8003642:	d061      	beq.n	8003708 <escpos_cmd_main+0xd4>
 8003644:	b334      	cbz	r4, 8003694 <escpos_cmd_main+0x60>
 8003646:	2401      	movs	r4, #1
 8003648:	4620      	mov	r0, r4
 800364a:	b003      	add	sp, #12
 800364c:	bd30      	pop	{r4, r5, pc}
 800364e:	68e8      	ldr	r0, [r5, #12]
 8003650:	4b4d      	ldr	r3, [pc, #308]	; (8003788 <escpos_cmd_main+0x154>)
 8003652:	f10d 0107 	add.w	r1, sp, #7
 8003656:	4798      	blx	r3
 8003658:	2802      	cmp	r0, #2
 800365a:	d017      	beq.n	800368c <escpos_cmd_main+0x58>
 800365c:	7869      	ldrb	r1, [r5, #1]
 800365e:	f89d 0007 	ldrb.w	r0, [sp, #7]
 8003662:	69ab      	ldr	r3, [r5, #24]
 8003664:	7428      	strb	r0, [r5, #16]
 8003666:	2900      	cmp	r1, #0
 8003668:	d05b      	beq.n	8003722 <escpos_cmd_main+0xee>
 800366a:	3901      	subs	r1, #1
 800366c:	b2ca      	uxtb	r2, r1
 800366e:	f103 0108 	add.w	r1, r3, #8
 8003672:	eb01 01c2 	add.w	r1, r1, r2, lsl #3
 8003676:	e002      	b.n	800367e <escpos_cmd_main+0x4a>
 8003678:	3308      	adds	r3, #8
 800367a:	428b      	cmp	r3, r1
 800367c:	d051      	beq.n	8003722 <escpos_cmd_main+0xee>
 800367e:	781a      	ldrb	r2, [r3, #0]
 8003680:	4282      	cmp	r2, r0
 8003682:	d1f9      	bne.n	8003678 <escpos_cmd_main+0x44>
 8003684:	685a      	ldr	r2, [r3, #4]
 8003686:	616a      	str	r2, [r5, #20]
 8003688:	2302      	movs	r3, #2
 800368a:	702b      	strb	r3, [r5, #0]
 800368c:	2400      	movs	r4, #0
 800368e:	4620      	mov	r0, r4
 8003690:	b003      	add	sp, #12
 8003692:	bd30      	pop	{r4, r5, pc}
 8003694:	68e8      	ldr	r0, [r5, #12]
 8003696:	4b3c      	ldr	r3, [pc, #240]	; (8003788 <escpos_cmd_main+0x154>)
 8003698:	f10d 0107 	add.w	r1, sp, #7
 800369c:	4798      	blx	r3
 800369e:	2802      	cmp	r0, #2
 80036a0:	d0d1      	beq.n	8003646 <escpos_cmd_main+0x12>
 80036a2:	f89d 3007 	ldrb.w	r3, [sp, #7]
 80036a6:	3b09      	subs	r3, #9
 80036a8:	2b14      	cmp	r3, #20
 80036aa:	d8cc      	bhi.n	8003646 <escpos_cmd_main+0x12>
 80036ac:	a201      	add	r2, pc, #4	; (adr r2, 80036b4 <escpos_cmd_main+0x80>)
 80036ae:	f852 f023 	ldr.w	pc, [r2, r3, lsl #2]
 80036b2:	bf00      	nop
 80036b4:	3779      	adds	r7, #121	; 0x79
 80036b6:	0800      	lsrs	r0, r0, #32
 80036b8:	376f      	adds	r7, #111	; 0x6f
 80036ba:	0800      	lsrs	r0, r0, #32
 80036bc:	3647      	adds	r6, #71	; 0x47
 80036be:	0800      	lsrs	r0, r0, #32
 80036c0:	3767      	adds	r7, #103	; 0x67
 80036c2:	0800      	lsrs	r0, r0, #32
 80036c4:	375d      	adds	r7, #93	; 0x5d
 80036c6:	0800      	lsrs	r0, r0, #32
 80036c8:	3647      	adds	r6, #71	; 0x47
 80036ca:	0800      	lsrs	r0, r0, #32
 80036cc:	3647      	adds	r6, #71	; 0x47
 80036ce:	0800      	lsrs	r0, r0, #32
 80036d0:	3751      	adds	r7, #81	; 0x51
 80036d2:	0800      	lsrs	r0, r0, #32
 80036d4:	3647      	adds	r6, #71	; 0x47
 80036d6:	0800      	lsrs	r0, r0, #32
 80036d8:	3647      	adds	r6, #71	; 0x47
 80036da:	0800      	lsrs	r0, r0, #32
 80036dc:	3647      	adds	r6, #71	; 0x47
 80036de:	0800      	lsrs	r0, r0, #32
 80036e0:	3647      	adds	r6, #71	; 0x47
 80036e2:	0800      	lsrs	r0, r0, #32
 80036e4:	3647      	adds	r6, #71	; 0x47
 80036e6:	0800      	lsrs	r0, r0, #32
 80036e8:	3647      	adds	r6, #71	; 0x47
 80036ea:	0800      	lsrs	r0, r0, #32
 80036ec:	3647      	adds	r6, #71	; 0x47
 80036ee:	0800      	lsrs	r0, r0, #32
 80036f0:	3647      	adds	r6, #71	; 0x47
 80036f2:	0800      	lsrs	r0, r0, #32
 80036f4:	3647      	adds	r6, #71	; 0x47
 80036f6:	0800      	lsrs	r0, r0, #32
 80036f8:	3647      	adds	r6, #71	; 0x47
 80036fa:	0800      	lsrs	r0, r0, #32
 80036fc:	3745      	adds	r7, #69	; 0x45
 80036fe:	0800      	lsrs	r0, r0, #32
 8003700:	3739      	adds	r7, #57	; 0x39
 8003702:	0800      	lsrs	r0, r0, #32
 8003704:	372d      	adds	r7, #45	; 0x2d
 8003706:	0800      	lsrs	r0, r0, #32
 8003708:	696b      	ldr	r3, [r5, #20]
 800370a:	b113      	cbz	r3, 8003712 <escpos_cmd_main+0xde>
 800370c:	4798      	blx	r3
 800370e:	2800      	cmp	r0, #0
 8003710:	d0bc      	beq.n	800368c <escpos_cmd_main+0x58>
 8003712:	4a1e      	ldr	r2, [pc, #120]	; (800378c <escpos_cmd_main+0x158>)
 8003714:	616a      	str	r2, [r5, #20]
 8003716:	2401      	movs	r4, #1
 8003718:	2300      	movs	r3, #0
 800371a:	4620      	mov	r0, r4
 800371c:	702b      	strb	r3, [r5, #0]
 800371e:	b003      	add	sp, #12
 8003720:	bd30      	pop	{r4, r5, pc}
 8003722:	2300      	movs	r3, #0
 8003724:	4620      	mov	r0, r4
 8003726:	702b      	strb	r3, [r5, #0]
 8003728:	b003      	add	sp, #12
 800372a:	bd30      	pop	{r4, r5, pc}
 800372c:	4a18      	ldr	r2, [pc, #96]	; (8003790 <escpos_cmd_main+0x15c>)
 800372e:	61aa      	str	r2, [r5, #24]
 8003730:	f240 2301 	movw	r3, #513	; 0x201
 8003734:	802b      	strh	r3, [r5, #0]
 8003736:	e787      	b.n	8003648 <escpos_cmd_main+0x14>
 8003738:	4a16      	ldr	r2, [pc, #88]	; (8003794 <escpos_cmd_main+0x160>)
 800373a:	61aa      	str	r2, [r5, #24]
 800373c:	f240 3301 	movw	r3, #769	; 0x301
 8003740:	802b      	strh	r3, [r5, #0]
 8003742:	e781      	b.n	8003648 <escpos_cmd_main+0x14>
 8003744:	4a14      	ldr	r2, [pc, #80]	; (8003798 <escpos_cmd_main+0x164>)
 8003746:	61aa      	str	r2, [r5, #24]
 8003748:	f241 4301 	movw	r3, #5121	; 0x1401
 800374c:	802b      	strh	r3, [r5, #0]
 800374e:	e77b      	b.n	8003648 <escpos_cmd_main+0x14>
 8003750:	4a12      	ldr	r2, [pc, #72]	; (800379c <escpos_cmd_main+0x168>)
 8003752:	61aa      	str	r2, [r5, #24]
 8003754:	f240 3301 	movw	r3, #769	; 0x301
 8003758:	802b      	strh	r3, [r5, #0]
 800375a:	e775      	b.n	8003648 <escpos_cmd_main+0x14>
 800375c:	4a10      	ldr	r2, [pc, #64]	; (80037a0 <escpos_cmd_main+0x16c>)
 800375e:	616a      	str	r2, [r5, #20]
 8003760:	2302      	movs	r3, #2
 8003762:	702b      	strb	r3, [r5, #0]
 8003764:	e770      	b.n	8003648 <escpos_cmd_main+0x14>
 8003766:	4b0f      	ldr	r3, [pc, #60]	; (80037a4 <escpos_cmd_main+0x170>)
 8003768:	4798      	blx	r3
 800376a:	2401      	movs	r4, #1
 800376c:	e76c      	b.n	8003648 <escpos_cmd_main+0x14>
 800376e:	4a0e      	ldr	r2, [pc, #56]	; (80037a8 <escpos_cmd_main+0x174>)
 8003770:	616a      	str	r2, [r5, #20]
 8003772:	2302      	movs	r3, #2
 8003774:	702b      	strb	r3, [r5, #0]
 8003776:	e767      	b.n	8003648 <escpos_cmd_main+0x14>
 8003778:	4a0c      	ldr	r2, [pc, #48]	; (80037ac <escpos_cmd_main+0x178>)
 800377a:	616a      	str	r2, [r5, #20]
 800377c:	2302      	movs	r3, #2
 800377e:	702b      	strb	r3, [r5, #0]
 8003780:	e762      	b.n	8003648 <escpos_cmd_main+0x14>
 8003782:	bf00      	nop
 8003784:	1de8      	adds	r0, r5, #7
 8003786:	2000      	movs	r0, #0
 8003788:	37ed      	adds	r7, #237	; 0xed
 800378a:	0800      	lsrs	r0, r0, #32
 800378c:	2d5d      	cmp	r5, #93	; 0x5d
 800378e:	0800      	lsrs	r0, r0, #32
 8003790:	7774      	strb	r4, [r6, #29]
 8003792:	0800      	lsrs	r0, r0, #32
 8003794:	775c      	strb	r4, [r3, #29]
 8003796:	0800      	lsrs	r0, r0, #32
 8003798:	76bc      	strb	r4, [r7, #26]
 800379a:	0800      	lsrs	r0, r0, #32
 800379c:	76a4      	strb	r4, [r4, #26]
 800379e:	0800      	lsrs	r0, r0, #32
 80037a0:	35c1      	adds	r5, #193	; 0xc1
 80037a2:	0800      	lsrs	r0, r0, #32
 80037a4:	44a1      	add	r9, r4
 80037a6:	0800      	lsrs	r0, r0, #32
 80037a8:	316d      	adds	r1, #109	; 0x6d
 80037aa:	0800      	lsrs	r0, r0, #32
 80037ac:	2e45      	cmp	r6, #69	; 0x45
 80037ae:	0800      	lsrs	r0, r0, #32

080037b0 <assignPointerOfreceieBuffer>:
 80037b0:	4b01      	ldr	r3, [pc, #4]	; (80037b8 <assignPointerOfreceieBuffer+0x8>)
 80037b2:	60d8      	str	r0, [r3, #12]
 80037b4:	4770      	bx	lr
 80037b6:	bf00      	nop
 80037b8:	1de8      	adds	r0, r5, #7
 80037ba:	2000      	movs	r0, #0

080037bc <escpos_cmd_init>:
 80037bc:	4b03      	ldr	r3, [pc, #12]	; (80037cc <escpos_cmd_init+0x10>)
 80037be:	4904      	ldr	r1, [pc, #16]	; (80037d0 <escpos_cmd_init+0x14>)
 80037c0:	6159      	str	r1, [r3, #20]
 80037c2:	2200      	movs	r2, #0
 80037c4:	801a      	strh	r2, [r3, #0]
 80037c6:	619a      	str	r2, [r3, #24]
 80037c8:	709a      	strb	r2, [r3, #2]
 80037ca:	4770      	bx	lr
 80037cc:	1de8      	adds	r0, r5, #7
 80037ce:	2000      	movs	r0, #0
 80037d0:	2d5d      	cmp	r5, #93	; 0x5d
 80037d2:	0800      	lsrs	r0, r0, #32

080037d4 <fifo_bytes_init>:
 80037d4:	b410      	push	{r4}
 80037d6:	2400      	movs	r4, #0
 80037d8:	4623      	mov	r3, r4
 80037da:	f362 030f 	bfi	r3, r2, #0, #16
 80037de:	f362 431f 	bfi	r3, r2, #16, #16
 80037e2:	e9c0 4300 	strd	r4, r3, [r0]
 80037e6:	6081      	str	r1, [r0, #8]
 80037e8:	bc10      	pop	{r4}
 80037ea:	4770      	bx	lr

080037ec <fifo_byte_Read>:
 80037ec:	e92d 41f0 	stmdb	sp!, {r4, r5, r6, r7, r8, lr}
 80037f0:	4604      	mov	r4, r0
 80037f2:	88c0      	ldrh	r0, [r0, #6]
 80037f4:	f8b4 c004 	ldrh.w	ip, [r4, #4]
 80037f8:	eba0 030c 	sub.w	r3, r0, ip
 80037fc:	2b00      	cmp	r3, #0
 80037fe:	dd2f      	ble.n	8003860 <fifo_byte_Read+0x74>
 8003800:	8863      	ldrh	r3, [r4, #2]
 8003802:	460e      	mov	r6, r1
 8003804:	1ac2      	subs	r2, r0, r3
 8003806:	68a1      	ldr	r1, [r4, #8]
 8003808:	2a00      	cmp	r2, #0
 800380a:	4419      	add	r1, r3
 800380c:	461d      	mov	r5, r3
 800380e:	dc17      	bgt.n	8003840 <fifo_byte_Read+0x54>
 8003810:	1c5d      	adds	r5, r3, #1
 8003812:	1a2d      	subs	r5, r5, r0
 8003814:	b2ad      	uxth	r5, r5
 8003816:	b15e      	cbz	r6, 8003830 <fifo_byte_Read+0x44>
 8003818:	b297      	uxth	r7, r2
 800381a:	f8df 804c 	ldr.w	r8, [pc, #76]	; 8003868 <fifo_byte_Read+0x7c>
 800381e:	4630      	mov	r0, r6
 8003820:	463a      	mov	r2, r7
 8003822:	47c0      	blx	r8
 8003824:	68a1      	ldr	r1, [r4, #8]
 8003826:	462a      	mov	r2, r5
 8003828:	19f0      	adds	r0, r6, r7
 800382a:	47c0      	blx	r8
 800382c:	f8b4 c004 	ldrh.w	ip, [r4, #4]
 8003830:	8065      	strh	r5, [r4, #2]
 8003832:	f10c 0c01 	add.w	ip, ip, #1
 8003836:	f8a4 c004 	strh.w	ip, [r4, #4]
 800383a:	2000      	movs	r0, #0
 800383c:	e8bd 81f0 	ldmia.w	sp!, {r4, r5, r6, r7, r8, pc}
 8003840:	b13e      	cbz	r6, 8003852 <fifo_byte_Read+0x66>
 8003842:	4630      	mov	r0, r6
 8003844:	4b08      	ldr	r3, [pc, #32]	; (8003868 <fifo_byte_Read+0x7c>)
 8003846:	2201      	movs	r2, #1
 8003848:	4798      	blx	r3
 800384a:	8865      	ldrh	r5, [r4, #2]
 800384c:	88e0      	ldrh	r0, [r4, #6]
 800384e:	f8b4 c004 	ldrh.w	ip, [r4, #4]
 8003852:	3501      	adds	r5, #1
 8003854:	fbb5 f3f0 	udiv	r3, r5, r0
 8003858:	fb00 5513 	mls	r5, r0, r3, r5
 800385c:	8065      	strh	r5, [r4, #2]
 800385e:	e7e8      	b.n	8003832 <fifo_byte_Read+0x46>
 8003860:	2002      	movs	r0, #2
 8003862:	e8bd 81f0 	ldmia.w	sp!, {r4, r5, r6, r7, r8, pc}
 8003866:	bf00      	nop
 8003868:	6a01      	ldr	r1, [r0, #32]
 800386a:	0800      	lsrs	r0, r0, #32

0800386c <fifo_byte_remove>:
 800386c:	88c2      	ldrh	r2, [r0, #6]
 800386e:	8843      	ldrh	r3, [r0, #2]
 8003870:	1ad1      	subs	r1, r2, r3
 8003872:	2900      	cmp	r1, #0
 8003874:	f103 0301 	add.w	r3, r3, #1
 8003878:	bfd2      	itee	le
 800387a:	1a9b      	suble	r3, r3, r2
 800387c:	fbb3 f1f2 	udivgt	r1, r3, r2
 8003880:	fb02 3311 	mlsgt	r3, r2, r1, r3
 8003884:	8882      	ldrh	r2, [r0, #4]
 8003886:	b29b      	uxth	r3, r3
 8003888:	8043      	strh	r3, [r0, #2]
 800388a:	1c53      	adds	r3, r2, #1
 800388c:	8083      	strh	r3, [r0, #4]
 800388e:	2000      	movs	r0, #0
 8003890:	4770      	bx	lr
 8003892:	bf00      	nop

08003894 <fifo_byte_Peek>:
 8003894:	e92d 43f8 	stmdb	sp!, {r3, r4, r5, r6, r7, r8, r9, lr}
 8003898:	88c6      	ldrh	r6, [r0, #6]
 800389a:	8883      	ldrh	r3, [r0, #4]
 800389c:	1af3      	subs	r3, r6, r3
 800389e:	b29b      	uxth	r3, r3
 80038a0:	b363      	cbz	r3, 80038fc <fifo_byte_Peek+0x68>
 80038a2:	429a      	cmp	r2, r3
 80038a4:	d230      	bcs.n	8003908 <fifo_byte_Peek+0x74>
 80038a6:	8843      	ldrh	r3, [r0, #2]
 80038a8:	460f      	mov	r7, r1
 80038aa:	6881      	ldr	r1, [r0, #8]
 80038ac:	441a      	add	r2, r3
 80038ae:	4419      	add	r1, r3
 80038b0:	fbb2 f3f6 	udiv	r3, r2, r6
 80038b4:	fb06 2213 	mls	r2, r6, r3, r2
 80038b8:	1ab3      	subs	r3, r6, r2
 80038ba:	2b00      	cmp	r3, #0
 80038bc:	4605      	mov	r5, r0
 80038be:	dd07      	ble.n	80038d0 <fifo_byte_Peek+0x3c>
 80038c0:	b1cf      	cbz	r7, 80038f6 <fifo_byte_Peek+0x62>
 80038c2:	4638      	mov	r0, r7
 80038c4:	4b12      	ldr	r3, [pc, #72]	; (8003910 <fifo_byte_Peek+0x7c>)
 80038c6:	2201      	movs	r2, #1
 80038c8:	4798      	blx	r3
 80038ca:	2000      	movs	r0, #0
 80038cc:	e8bd 83f8 	ldmia.w	sp!, {r3, r4, r5, r6, r7, r8, r9, pc}
 80038d0:	b1bf      	cbz	r7, 8003902 <fifo_byte_Peek+0x6e>
 80038d2:	b294      	uxth	r4, r2
 80038d4:	eba6 0804 	sub.w	r8, r6, r4
 80038d8:	fa1f f888 	uxth.w	r8, r8
 80038dc:	4642      	mov	r2, r8
 80038de:	4638      	mov	r0, r7
 80038e0:	f8df 902c 	ldr.w	r9, [pc, #44]	; 8003910 <fifo_byte_Peek+0x7c>
 80038e4:	47c8      	blx	r9
 80038e6:	f1c6 0201 	rsb	r2, r6, #1
 80038ea:	4422      	add	r2, r4
 80038ec:	68a9      	ldr	r1, [r5, #8]
 80038ee:	eb07 0008 	add.w	r0, r7, r8
 80038f2:	b292      	uxth	r2, r2
 80038f4:	47c8      	blx	r9
 80038f6:	2000      	movs	r0, #0
 80038f8:	e8bd 83f8 	ldmia.w	sp!, {r3, r4, r5, r6, r7, r8, r9, pc}
 80038fc:	2002      	movs	r0, #2
 80038fe:	e8bd 83f8 	ldmia.w	sp!, {r3, r4, r5, r6, r7, r8, r9, pc}
 8003902:	4638      	mov	r0, r7
 8003904:	e8bd 83f8 	ldmia.w	sp!, {r3, r4, r5, r6, r7, r8, r9, pc}
 8003908:	2003      	movs	r0, #3
 800390a:	e8bd 83f8 	ldmia.w	sp!, {r3, r4, r5, r6, r7, r8, r9, pc}
 800390e:	bf00      	nop
 8003910:	6a01      	ldr	r1, [r0, #32]
 8003912:	0800      	lsrs	r0, r0, #32

08003914 <fifo_bytes_write>:
 8003914:	8883      	ldrh	r3, [r0, #4]
 8003916:	4293      	cmp	r3, r2
 8003918:	d32a      	bcc.n	8003970 <fifo_bytes_write+0x5c>
 800391a:	e92d 47f0 	stmdb	sp!, {r4, r5, r6, r7, r8, r9, sl, lr}
 800391e:	4604      	mov	r4, r0
 8003920:	8803      	ldrh	r3, [r0, #0]
 8003922:	f8b4 9006 	ldrh.w	r9, [r4, #6]
 8003926:	6880      	ldr	r0, [r0, #8]
 8003928:	eb03 0802 	add.w	r8, r3, r2
 800392c:	45c8      	cmp	r8, r9
 800392e:	4615      	mov	r5, r2
 8003930:	4418      	add	r0, r3
 8003932:	db17      	blt.n	8003964 <fifo_bytes_write+0x50>
 8003934:	eba9 0303 	sub.w	r3, r9, r3
 8003938:	b29e      	uxth	r6, r3
 800393a:	eba8 0809 	sub.w	r8, r8, r9
 800393e:	f8df a034 	ldr.w	sl, [pc, #52]	; 8003974 <fifo_bytes_write+0x60>
 8003942:	460f      	mov	r7, r1
 8003944:	4632      	mov	r2, r6
 8003946:	fa1f f888 	uxth.w	r8, r8
 800394a:	47d0      	blx	sl
 800394c:	68a0      	ldr	r0, [r4, #8]
 800394e:	19b9      	adds	r1, r7, r6
 8003950:	4642      	mov	r2, r8
 8003952:	47d0      	blx	sl
 8003954:	f8a4 8000 	strh.w	r8, [r4]
 8003958:	88a2      	ldrh	r2, [r4, #4]
 800395a:	1b55      	subs	r5, r2, r5
 800395c:	2000      	movs	r0, #0
 800395e:	80a5      	strh	r5, [r4, #4]
 8003960:	e8bd 87f0 	ldmia.w	sp!, {r4, r5, r6, r7, r8, r9, sl, pc}
 8003964:	4b03      	ldr	r3, [pc, #12]	; (8003974 <fifo_bytes_write+0x60>)
 8003966:	4798      	blx	r3
 8003968:	8823      	ldrh	r3, [r4, #0]
 800396a:	442b      	add	r3, r5
 800396c:	8023      	strh	r3, [r4, #0]
 800396e:	e7f3      	b.n	8003958 <fifo_bytes_write+0x44>
 8003970:	2001      	movs	r0, #1
 8003972:	4770      	bx	lr
 8003974:	6a01      	ldr	r1, [r0, #32]
 8003976:	0800      	lsrs	r0, r0, #32

08003978 <fifo_bytes_read>:
 8003978:	e92d 43f8 	stmdb	sp!, {r3, r4, r5, r6, r7, r8, r9, lr}
 800397c:	4614      	mov	r4, r2
 800397e:	b1f2      	cbz	r2, 80039be <fifo_bytes_read+0x46>
 8003980:	88c3      	ldrh	r3, [r0, #6]
 8003982:	4605      	mov	r5, r0
 8003984:	8880      	ldrh	r0, [r0, #4]
 8003986:	460e      	mov	r6, r1
 8003988:	1a19      	subs	r1, r3, r0
 800398a:	4291      	cmp	r1, r2
 800398c:	db2d      	blt.n	80039ea <fifo_bytes_read+0x72>
 800398e:	f8b5 c002 	ldrh.w	ip, [r5, #2]
 8003992:	68a9      	ldr	r1, [r5, #8]
 8003994:	eba3 0e0c 	sub.w	lr, r3, ip
 8003998:	4572      	cmp	r2, lr
 800399a:	4461      	add	r1, ip
 800399c:	4667      	mov	r7, ip
 800399e:	dc11      	bgt.n	80039c4 <fifo_bytes_read+0x4c>
 80039a0:	b12e      	cbz	r6, 80039ae <fifo_bytes_read+0x36>
 80039a2:	4b13      	ldr	r3, [pc, #76]	; (80039f0 <fifo_bytes_read+0x78>)
 80039a4:	4630      	mov	r0, r6
 80039a6:	4798      	blx	r3
 80039a8:	886f      	ldrh	r7, [r5, #2]
 80039aa:	88eb      	ldrh	r3, [r5, #6]
 80039ac:	88a8      	ldrh	r0, [r5, #4]
 80039ae:	4427      	add	r7, r4
 80039b0:	fbb7 f2f3 	udiv	r2, r7, r3
 80039b4:	fb03 7712 	mls	r7, r3, r2, r7
 80039b8:	806f      	strh	r7, [r5, #2]
 80039ba:	4420      	add	r0, r4
 80039bc:	80a8      	strh	r0, [r5, #4]
 80039be:	2000      	movs	r0, #0
 80039c0:	e8bd 83f8 	ldmia.w	sp!, {r3, r4, r5, r6, r7, r8, r9, pc}
 80039c4:	1ad3      	subs	r3, r2, r3
 80039c6:	4463      	add	r3, ip
 80039c8:	b29f      	uxth	r7, r3
 80039ca:	b166      	cbz	r6, 80039e6 <fifo_bytes_read+0x6e>
 80039cc:	fa1f f88e 	uxth.w	r8, lr
 80039d0:	f8df 901c 	ldr.w	r9, [pc, #28]	; 80039f0 <fifo_bytes_read+0x78>
 80039d4:	4630      	mov	r0, r6
 80039d6:	4642      	mov	r2, r8
 80039d8:	47c8      	blx	r9
 80039da:	eb06 0008 	add.w	r0, r6, r8
 80039de:	68a9      	ldr	r1, [r5, #8]
 80039e0:	463a      	mov	r2, r7
 80039e2:	47c8      	blx	r9
 80039e4:	88a8      	ldrh	r0, [r5, #4]
 80039e6:	806f      	strh	r7, [r5, #2]
 80039e8:	e7e7      	b.n	80039ba <fifo_bytes_read+0x42>
 80039ea:	2002      	movs	r0, #2
 80039ec:	e8bd 83f8 	ldmia.w	sp!, {r3, r4, r5, r6, r7, r8, r9, pc}
 80039f0:	6a01      	ldr	r1, [r0, #32]
 80039f2:	0800      	lsrs	r0, r0, #32

080039f4 <fifo_bytes_peek>:
 80039f4:	e92d 47f0 	stmdb	sp!, {r4, r5, r6, r7, r8, r9, sl, lr}
 80039f8:	461c      	mov	r4, r3
 80039fa:	b39b      	cbz	r3, 8003a64 <fifo_bytes_peek+0x70>
 80039fc:	f8b0 8006 	ldrh.w	r8, [r0, #6]
 8003a00:	8885      	ldrh	r5, [r0, #4]
 8003a02:	eba8 0505 	sub.w	r5, r8, r5
 8003a06:	b2ad      	uxth	r5, r5
 8003a08:	4606      	mov	r6, r0
 8003a0a:	b375      	cbz	r5, 8003a6a <fifo_bytes_peek+0x76>
 8003a0c:	42aa      	cmp	r2, r5
 8003a0e:	d22f      	bcs.n	8003a70 <fifo_bytes_peek+0x7c>
 8003a10:	18d3      	adds	r3, r2, r3
 8003a12:	429d      	cmp	r5, r3
 8003a14:	db29      	blt.n	8003a6a <fifo_bytes_peek+0x76>
 8003a16:	8843      	ldrh	r3, [r0, #2]
 8003a18:	460f      	mov	r7, r1
 8003a1a:	6881      	ldr	r1, [r0, #8]
 8003a1c:	441a      	add	r2, r3
 8003a1e:	4419      	add	r1, r3
 8003a20:	fbb2 f3f8 	udiv	r3, r2, r8
 8003a24:	fb08 2213 	mls	r2, r8, r3, r2
 8003a28:	eba8 0302 	sub.w	r3, r8, r2
 8003a2c:	429c      	cmp	r4, r3
 8003a2e:	dc06      	bgt.n	8003a3e <fifo_bytes_peek+0x4a>
 8003a30:	b30f      	cbz	r7, 8003a76 <fifo_bytes_peek+0x82>
 8003a32:	4638      	mov	r0, r7
 8003a34:	4b11      	ldr	r3, [pc, #68]	; (8003a7c <fifo_bytes_peek+0x88>)
 8003a36:	4622      	mov	r2, r4
 8003a38:	4798      	blx	r3
 8003a3a:	2000      	movs	r0, #0
 8003a3c:	e013      	b.n	8003a66 <fifo_bytes_peek+0x72>
 8003a3e:	b1d7      	cbz	r7, 8003a76 <fifo_bytes_peek+0x82>
 8003a40:	b295      	uxth	r5, r2
 8003a42:	eba8 0905 	sub.w	r9, r8, r5
 8003a46:	fa1f f989 	uxth.w	r9, r9
 8003a4a:	464a      	mov	r2, r9
 8003a4c:	4638      	mov	r0, r7
 8003a4e:	f8df a02c 	ldr.w	sl, [pc, #44]	; 8003a7c <fifo_bytes_peek+0x88>
 8003a52:	eba4 0408 	sub.w	r4, r4, r8
 8003a56:	47d0      	blx	sl
 8003a58:	192a      	adds	r2, r5, r4
 8003a5a:	68b1      	ldr	r1, [r6, #8]
 8003a5c:	b292      	uxth	r2, r2
 8003a5e:	eb07 0009 	add.w	r0, r7, r9
 8003a62:	47d0      	blx	sl
 8003a64:	2000      	movs	r0, #0
 8003a66:	e8bd 87f0 	ldmia.w	sp!, {r4, r5, r6, r7, r8, r9, sl, pc}
 8003a6a:	2002      	movs	r0, #2
 8003a6c:	e8bd 87f0 	ldmia.w	sp!, {r4, r5, r6, r7, r8, r9, sl, pc}
 8003a70:	2003      	movs	r0, #3
 8003a72:	e8bd 87f0 	ldmia.w	sp!, {r4, r5, r6, r7, r8, r9, sl, pc}
 8003a76:	4638      	mov	r0, r7
 8003a78:	e8bd 87f0 	ldmia.w	sp!, {r4, r5, r6, r7, r8, r9, sl, pc}
 8003a7c:	6a01      	ldr	r1, [r0, #32]
 8003a7e:	0800      	lsrs	r0, r0, #32

08003a80 <fifo_struct_init>:
 8003a80:	b410      	push	{r4}
 8003a82:	fb13 f202 	smulbb	r2, r3, r2
 8003a86:	2400      	movs	r4, #0
 8003a88:	b292      	uxth	r2, r2
 8003a8a:	8003      	strh	r3, [r0, #0]
 8003a8c:	4623      	mov	r3, r4
 8003a8e:	f362 030f 	bfi	r3, r2, #0, #16
 8003a92:	f362 431f 	bfi	r3, r2, #16, #16
 8003a96:	e9c0 4301 	strd	r4, r3, [r0, #4]
 8003a9a:	60c1      	str	r1, [r0, #12]
 8003a9c:	bc10      	pop	{r4}
 8003a9e:	4770      	bx	lr

08003aa0 <fifo_struct_write>:
 8003aa0:	e92d 47f0 	stmdb	sp!, {r4, r5, r6, r7, r8, r9, sl, lr}
 8003aa4:	8903      	ldrh	r3, [r0, #8]
 8003aa6:	8805      	ldrh	r5, [r0, #0]
 8003aa8:	42ab      	cmp	r3, r5
 8003aaa:	d328      	bcc.n	8003afe <fifo_struct_write+0x5e>
 8003aac:	4604      	mov	r4, r0
 8003aae:	8882      	ldrh	r2, [r0, #4]
 8003ab0:	f8b4 900a 	ldrh.w	r9, [r4, #10]
 8003ab4:	68c0      	ldr	r0, [r0, #12]
 8003ab6:	eb02 0805 	add.w	r8, r2, r5
 8003aba:	45c8      	cmp	r8, r9
 8003abc:	4410      	add	r0, r2
 8003abe:	db17      	blt.n	8003af0 <fifo_struct_write+0x50>
 8003ac0:	eba9 0202 	sub.w	r2, r9, r2
 8003ac4:	b296      	uxth	r6, r2
 8003ac6:	eba8 0809 	sub.w	r8, r8, r9
 8003aca:	f8df a038 	ldr.w	sl, [pc, #56]	; 8003b04 <fifo_struct_write+0x64>
 8003ace:	460f      	mov	r7, r1
 8003ad0:	4632      	mov	r2, r6
 8003ad2:	fa1f f888 	uxth.w	r8, r8
 8003ad6:	47d0      	blx	sl
 8003ad8:	68e0      	ldr	r0, [r4, #12]
 8003ada:	19b9      	adds	r1, r7, r6
 8003adc:	4642      	mov	r2, r8
 8003ade:	47d0      	blx	sl
 8003ae0:	f8a4 8004 	strh.w	r8, [r4, #4]
 8003ae4:	8923      	ldrh	r3, [r4, #8]
 8003ae6:	1b5d      	subs	r5, r3, r5
 8003ae8:	2000      	movs	r0, #0
 8003aea:	8125      	strh	r5, [r4, #8]
 8003aec:	e8bd 87f0 	ldmia.w	sp!, {r4, r5, r6, r7, r8, r9, sl, pc}
 8003af0:	4b04      	ldr	r3, [pc, #16]	; (8003b04 <fifo_struct_write+0x64>)
 8003af2:	462a      	mov	r2, r5
 8003af4:	4798      	blx	r3
 8003af6:	88a3      	ldrh	r3, [r4, #4]
 8003af8:	442b      	add	r3, r5
 8003afa:	80a3      	strh	r3, [r4, #4]
 8003afc:	e7f2      	b.n	8003ae4 <fifo_struct_write+0x44>
 8003afe:	2001      	movs	r0, #1
 8003b00:	e8bd 87f0 	ldmia.w	sp!, {r4, r5, r6, r7, r8, r9, sl, pc}
 8003b04:	6a01      	ldr	r1, [r0, #32]
 8003b06:	0800      	lsrs	r0, r0, #32

08003b08 <fifo_struct_Read>:
 8003b08:	e92d 43f8 	stmdb	sp!, {r3, r4, r5, r6, r7, r8, r9, lr}
 8003b0c:	8805      	ldrh	r5, [r0, #0]
 8003b0e:	b31d      	cbz	r5, 8003b58 <fifo_struct_Read+0x50>
 8003b10:	f8b0 e00a 	ldrh.w	lr, [r0, #10]
 8003b14:	f8b0 c008 	ldrh.w	ip, [r0, #8]
 8003b18:	ebae 030c 	sub.w	r3, lr, ip
 8003b1c:	42ab      	cmp	r3, r5
 8003b1e:	4604      	mov	r4, r0
 8003b20:	db32      	blt.n	8003b88 <fifo_struct_Read+0x80>
 8003b22:	88c3      	ldrh	r3, [r0, #6]
 8003b24:	460f      	mov	r7, r1
 8003b26:	ebae 0203 	sub.w	r2, lr, r3
 8003b2a:	68c1      	ldr	r1, [r0, #12]
 8003b2c:	4295      	cmp	r5, r2
 8003b2e:	4419      	add	r1, r3
 8003b30:	461e      	mov	r6, r3
 8003b32:	dc14      	bgt.n	8003b5e <fifo_struct_Read+0x56>
 8003b34:	b147      	cbz	r7, 8003b48 <fifo_struct_Read+0x40>
 8003b36:	4b16      	ldr	r3, [pc, #88]	; (8003b90 <fifo_struct_Read+0x88>)
 8003b38:	462a      	mov	r2, r5
 8003b3a:	4638      	mov	r0, r7
 8003b3c:	4798      	blx	r3
 8003b3e:	88e6      	ldrh	r6, [r4, #6]
 8003b40:	f8b4 e00a 	ldrh.w	lr, [r4, #10]
 8003b44:	f8b4 c008 	ldrh.w	ip, [r4, #8]
 8003b48:	442e      	add	r6, r5
 8003b4a:	fbb6 f3fe 	udiv	r3, r6, lr
 8003b4e:	fb0e 6613 	mls	r6, lr, r3, r6
 8003b52:	80e6      	strh	r6, [r4, #6]
 8003b54:	4465      	add	r5, ip
 8003b56:	8125      	strh	r5, [r4, #8]
 8003b58:	2000      	movs	r0, #0
 8003b5a:	e8bd 83f8 	ldmia.w	sp!, {r3, r4, r5, r6, r7, r8, r9, pc}
 8003b5e:	18ee      	adds	r6, r5, r3
 8003b60:	eba6 060e 	sub.w	r6, r6, lr
 8003b64:	b2b6      	uxth	r6, r6
 8003b66:	b16f      	cbz	r7, 8003b84 <fifo_struct_Read+0x7c>
 8003b68:	fa1f f882 	uxth.w	r8, r2
 8003b6c:	f8df 9020 	ldr.w	r9, [pc, #32]	; 8003b90 <fifo_struct_Read+0x88>
 8003b70:	4638      	mov	r0, r7
 8003b72:	4642      	mov	r2, r8
 8003b74:	47c8      	blx	r9
 8003b76:	68e1      	ldr	r1, [r4, #12]
 8003b78:	4632      	mov	r2, r6
 8003b7a:	eb07 0008 	add.w	r0, r7, r8
 8003b7e:	47c8      	blx	r9
 8003b80:	f8b4 c008 	ldrh.w	ip, [r4, #8]
 8003b84:	80e6      	strh	r6, [r4, #6]
 8003b86:	e7e5      	b.n	8003b54 <fifo_struct_Read+0x4c>
 8003b88:	2002      	movs	r0, #2
 8003b8a:	e8bd 83f8 	ldmia.w	sp!, {r3, r4, r5, r6, r7, r8, r9, pc}
 8003b8e:	bf00      	nop
 8003b90:	6a01      	ldr	r1, [r0, #32]
 8003b92:	0800      	lsrs	r0, r0, #32

08003b94 <fifo_struct_peek>:
 8003b94:	e92d 43f0 	stmdb	sp!, {r4, r5, r6, r7, r8, r9, lr}
 8003b98:	8806      	ldrh	r6, [r0, #0]
 8003b9a:	b083      	sub	sp, #12
 8003b9c:	b386      	cbz	r6, 8003c00 <fifo_struct_peek+0x6c>
 8003b9e:	4605      	mov	r5, r0
 8003ba0:	4610      	mov	r0, r2
 8003ba2:	896f      	ldrh	r7, [r5, #10]
 8003ba4:	892a      	ldrh	r2, [r5, #8]
 8003ba6:	1aba      	subs	r2, r7, r2
 8003ba8:	b292      	uxth	r2, r2
 8003baa:	b36a      	cbz	r2, 8003c08 <fifo_struct_peek+0x74>
 8003bac:	0049      	lsls	r1, r1, #1
 8003bae:	b28b      	uxth	r3, r1
 8003bb0:	4293      	cmp	r3, r2
 8003bb2:	d22d      	bcs.n	8003c10 <fifo_struct_peek+0x7c>
 8003bb4:	1999      	adds	r1, r3, r6
 8003bb6:	428a      	cmp	r2, r1
 8003bb8:	db26      	blt.n	8003c08 <fifo_struct_peek+0x74>
 8003bba:	88ea      	ldrh	r2, [r5, #6]
 8003bbc:	68e9      	ldr	r1, [r5, #12]
 8003bbe:	4413      	add	r3, r2
 8003bc0:	4411      	add	r1, r2
 8003bc2:	fbb3 f2f7 	udiv	r2, r3, r7
 8003bc6:	fb07 3312 	mls	r3, r7, r2, r3
 8003bca:	1afa      	subs	r2, r7, r3
 8003bcc:	4296      	cmp	r6, r2
 8003bce:	dc05      	bgt.n	8003bdc <fifo_struct_peek+0x48>
 8003bd0:	b1b8      	cbz	r0, 8003c02 <fifo_struct_peek+0x6e>
 8003bd2:	4b11      	ldr	r3, [pc, #68]	; (8003c18 <fifo_struct_peek+0x84>)
 8003bd4:	4632      	mov	r2, r6
 8003bd6:	4798      	blx	r3
 8003bd8:	2000      	movs	r0, #0
 8003bda:	e012      	b.n	8003c02 <fifo_struct_peek+0x6e>
 8003bdc:	b188      	cbz	r0, 8003c02 <fifo_struct_peek+0x6e>
 8003bde:	b29c      	uxth	r4, r3
 8003be0:	eba7 0804 	sub.w	r8, r7, r4
 8003be4:	fa1f f888 	uxth.w	r8, r8
 8003be8:	4642      	mov	r2, r8
 8003bea:	f8df 902c 	ldr.w	r9, [pc, #44]	; 8003c18 <fifo_struct_peek+0x84>
 8003bee:	9001      	str	r0, [sp, #4]
 8003bf0:	1bf6      	subs	r6, r6, r7
 8003bf2:	47c8      	blx	r9
 8003bf4:	9801      	ldr	r0, [sp, #4]
 8003bf6:	68e9      	ldr	r1, [r5, #12]
 8003bf8:	4426      	add	r6, r4
 8003bfa:	b2b2      	uxth	r2, r6
 8003bfc:	4440      	add	r0, r8
 8003bfe:	47c8      	blx	r9
 8003c00:	2000      	movs	r0, #0
 8003c02:	b003      	add	sp, #12
 8003c04:	e8bd 83f0 	ldmia.w	sp!, {r4, r5, r6, r7, r8, r9, pc}
 8003c08:	2002      	movs	r0, #2
 8003c0a:	b003      	add	sp, #12
 8003c0c:	e8bd 83f0 	ldmia.w	sp!, {r4, r5, r6, r7, r8, r9, pc}
 8003c10:	2003      	movs	r0, #3
 8003c12:	b003      	add	sp, #12
 8003c14:	e8bd 83f0 	ldmia.w	sp!, {r4, r5, r6, r7, r8, r9, pc}
 8003c18:	6a01      	ldr	r1, [r0, #32]
 8003c1a:	0800      	lsrs	r0, r0, #32

08003c1c <fifo_UsedSpace>:
 8003c1c:	88c3      	ldrh	r3, [r0, #6]
 8003c1e:	8880      	ldrh	r0, [r0, #4]
 8003c20:	1a18      	subs	r0, r3, r0
 8003c22:	b280      	uxth	r0, r0
 8003c24:	4770      	bx	lr
 8003c26:	bf00      	nop

08003c28 <fifo_bytes_remove>:
 8003c28:	b161      	cbz	r1, 8003c44 <fifo_bytes_remove+0x1c>
 8003c2a:	88c2      	ldrh	r2, [r0, #6]
 8003c2c:	8843      	ldrh	r3, [r0, #2]
 8003c2e:	eba2 0c03 	sub.w	ip, r2, r3
 8003c32:	458c      	cmp	ip, r1
 8003c34:	da08      	bge.n	8003c48 <fifo_bytes_remove+0x20>
 8003c36:	1a8a      	subs	r2, r1, r2
 8003c38:	4413      	add	r3, r2
 8003c3a:	b29b      	uxth	r3, r3
 8003c3c:	8882      	ldrh	r2, [r0, #4]
 8003c3e:	8043      	strh	r3, [r0, #2]
 8003c40:	4411      	add	r1, r2
 8003c42:	8081      	strh	r1, [r0, #4]
 8003c44:	2000      	movs	r0, #0
 8003c46:	4770      	bx	lr
 8003c48:	440b      	add	r3, r1
 8003c4a:	fbb3 fcf2 	udiv	ip, r3, r2
 8003c4e:	fb02 331c 	mls	r3, r2, ip, r3
 8003c52:	b29b      	uxth	r3, r3
 8003c54:	e7f2      	b.n	8003c3c <fifo_bytes_remove+0x14>
 8003c56:	bf00      	nop

08003c58 <fifo_struct_IsEmpty>:
 8003c58:	8902      	ldrh	r2, [r0, #8]
 8003c5a:	8940      	ldrh	r0, [r0, #10]
 8003c5c:	1a10      	subs	r0, r2, r0
 8003c5e:	fab0 f080 	clz	r0, r0
 8003c62:	0940      	lsrs	r0, r0, #5
 8003c64:	4770      	bx	lr
 8003c66:	bf00      	nop

08003c68 <printhead_timer1_isr>:
 8003c68:	4a09      	ldr	r2, [pc, #36]	; (8003c90 <printhead_timer1_isr+0x28>)
 8003c6a:	f04f 4380 	mov.w	r3, #1073741824	; 0x40000000
 8003c6e:	2110      	movs	r1, #16
 8003c70:	f8c2 1c14 	str.w	r1, [r2, #3092]	; 0xc14
 8003c74:	68da      	ldr	r2, [r3, #12]
 8003c76:	f022 0201 	bic.w	r2, r2, #1
 8003c7a:	60da      	str	r2, [r3, #12]
 8003c7c:	691a      	ldr	r2, [r3, #16]
 8003c7e:	f022 0201 	bic.w	r2, r2, #1
 8003c82:	611a      	str	r2, [r3, #16]
 8003c84:	681a      	ldr	r2, [r3, #0]
 8003c86:	f022 0201 	bic.w	r2, r2, #1
 8003c8a:	601a      	str	r2, [r3, #0]
 8003c8c:	4770      	bx	lr
 8003c8e:	bf00      	nop
 8003c90:	0000      	movs	r0, r0
 8003c92:	4001      	ands	r1, r0

08003c94 <printhead_timer2_isr>:
 8003c94:	b5f8      	push	{r3, r4, r5, r6, r7, lr}
 8003c96:	4cad      	ldr	r4, [pc, #692]	; (8003f4c <printhead_timer2_isr+0x2b8>)
 8003c98:	4ead      	ldr	r6, [pc, #692]	; (8003f50 <printhead_timer2_isr+0x2bc>)
 8003c9a:	47b0      	blx	r6
 8003c9c:	f9b4 3006 	ldrsh.w	r3, [r4, #6]
 8003ca0:	f9b4 2008 	ldrsh.w	r2, [r4, #8]
 8003ca4:	429a      	cmp	r2, r3
 8003ca6:	4605      	mov	r5, r0
 8003ca8:	7ca3      	ldrb	r3, [r4, #18]
 8003caa:	db02      	blt.n	8003cb2 <printhead_timer2_isr+0x1e>
 8003cac:	2b01      	cmp	r3, #1
 8003cae:	f000 80fd 	beq.w	8003eac <printhead_timer2_isr+0x218>
 8003cb2:	2b00      	cmp	r3, #0
 8003cb4:	f000 80c2 	beq.w	8003e3c <printhead_timer2_isr+0x1a8>
 8003cb8:	2b02      	cmp	r3, #2
 8003cba:	d079      	beq.n	8003db0 <printhead_timer2_isr+0x11c>
 8003cbc:	f894 2035 	ldrb.w	r2, [r4, #53]	; 0x35
 8003cc0:	2a03      	cmp	r2, #3
 8003cc2:	f200 80a6 	bhi.w	8003e12 <printhead_timer2_isr+0x17e>
 8003cc6:	4ba3      	ldr	r3, [pc, #652]	; (8003f54 <printhead_timer2_isr+0x2c0>)
 8003cc8:	f813 2012 	ldrb.w	r2, [r3, r2, lsl #1]
 8003ccc:	2a00      	cmp	r2, #0
 8003cce:	f040 80a4 	bne.w	8003e1a <printhead_timer2_isr+0x186>
 8003cd2:	4aa1      	ldr	r2, [pc, #644]	; (8003f58 <printhead_timer2_isr+0x2c4>)
 8003cd4:	f44f 5100 	mov.w	r1, #8192	; 0x2000
 8003cd8:	6151      	str	r1, [r2, #20]
 8003cda:	f894 2035 	ldrb.w	r2, [r4, #53]	; 0x35
 8003cde:	eb03 0342 	add.w	r3, r3, r2, lsl #1
 8003ce2:	785b      	ldrb	r3, [r3, #1]
 8003ce4:	2b00      	cmp	r3, #0
 8003ce6:	f000 80a4 	beq.w	8003e32 <printhead_timer2_isr+0x19e>
 8003cea:	4b9b      	ldr	r3, [pc, #620]	; (8003f58 <printhead_timer2_isr+0x2c4>)
 8003cec:	f44f 4280 	mov.w	r2, #16384	; 0x4000
 8003cf0:	611a      	str	r2, [r3, #16]
 8003cf2:	f894 3035 	ldrb.w	r3, [r4, #53]	; 0x35
 8003cf6:	7be2      	ldrb	r2, [r4, #15]
 8003cf8:	3301      	adds	r3, #1
 8003cfa:	f884 3035 	strb.w	r3, [r4, #53]	; 0x35
 8003cfe:	2a00      	cmp	r2, #0
 8003d00:	f040 8144 	bne.w	8003f8c <printhead_timer2_isr+0x2f8>
 8003d04:	47b0      	blx	r6
 8003d06:	f9b4 3008 	ldrsh.w	r3, [r4, #8]
 8003d0a:	7ba2      	ldrb	r2, [r4, #14]
 8003d0c:	eb04 0183 	add.w	r1, r4, r3, lsl #2
 8003d10:	1b45      	subs	r5, r0, r5
 8003d12:	3301      	adds	r3, #1
 8003d14:	638d      	str	r5, [r1, #56]	; 0x38
 8003d16:	8123      	strh	r3, [r4, #8]
 8003d18:	2a00      	cmp	r2, #0
 8003d1a:	d148      	bne.n	8003dae <printhead_timer2_isr+0x11a>
 8003d1c:	6822      	ldr	r2, [r4, #0]
 8003d1e:	8961      	ldrh	r1, [r4, #10]
 8003d20:	4b8e      	ldr	r3, [pc, #568]	; (8003f5c <printhead_timer2_isr+0x2c8>)
 8003d22:	fbb3 f3f1 	udiv	r3, r3, r1
 8003d26:	429a      	cmp	r2, r3
 8003d28:	f240 80d1 	bls.w	8003ece <printhead_timer2_isr+0x23a>
 8003d2c:	f04f 4380 	mov.w	r3, #1073741824	; 0x40000000
 8003d30:	f8d4 00b0 	ldr.w	r0, [r4, #176]	; 0xb0
 8003d34:	f8d3 1400 	ldr.w	r1, [r3, #1024]	; 0x400
 8003d38:	f021 0101 	bic.w	r1, r1, #1
 8003d3c:	f8c3 1400 	str.w	r1, [r3, #1024]	; 0x400
 8003d40:	f8d3 140c 	ldr.w	r1, [r3, #1036]	; 0x40c
 8003d44:	f021 0101 	bic.w	r1, r1, #1
 8003d48:	f8c3 140c 	str.w	r1, [r3, #1036]	; 0x40c
 8003d4c:	f8d3 1410 	ldr.w	r1, [r3, #1040]	; 0x410
 8003d50:	fb00 f202 	mul.w	r2, r0, r2
 8003d54:	3a01      	subs	r2, #1
 8003d56:	f021 0101 	bic.w	r1, r1, #1
 8003d5a:	f8c3 1410 	str.w	r1, [r3, #1040]	; 0x410
 8003d5e:	f8c3 242c 	str.w	r2, [r3, #1068]	; 0x42c
 8003d62:	f8d3 2400 	ldr.w	r2, [r3, #1024]	; 0x400
 8003d66:	f022 0280 	bic.w	r2, r2, #128	; 0x80
 8003d6a:	f8c3 2400 	str.w	r2, [r3, #1024]	; 0x400
 8003d6e:	f8d3 240c 	ldr.w	r2, [r3, #1036]	; 0x40c
 8003d72:	f042 0201 	orr.w	r2, r2, #1
 8003d76:	f8c3 240c 	str.w	r2, [r3, #1036]	; 0x40c
 8003d7a:	f8d3 2400 	ldr.w	r2, [r3, #1024]	; 0x400
 8003d7e:	f042 0201 	orr.w	r2, r2, #1
 8003d82:	f8c3 2400 	str.w	r2, [r3, #1024]	; 0x400
 8003d86:	8e62      	ldrh	r2, [r4, #50]	; 0x32
 8003d88:	6820      	ldr	r0, [r4, #0]
 8003d8a:	3201      	adds	r2, #1
 8003d8c:	b292      	uxth	r2, r2
 8003d8e:	0093      	lsls	r3, r2, #2
 8003d90:	1c59      	adds	r1, r3, #1
 8003d92:	0043      	lsls	r3, r0, #1
 8003d94:	fbb3 f3f1 	udiv	r3, r3, r1
 8003d98:	1ac0      	subs	r0, r0, r3
 8003d9a:	8e23      	ldrh	r3, [r4, #48]	; 0x30
 8003d9c:	8662      	strh	r2, [r4, #50]	; 0x32
 8003d9e:	eb03 0340 	add.w	r3, r3, r0, lsl #1
 8003da2:	fb93 f2f1 	sdiv	r2, r3, r1
 8003da6:	fb01 3312 	mls	r3, r1, r2, r3
 8003daa:	6020      	str	r0, [r4, #0]
 8003dac:	8623      	strh	r3, [r4, #48]	; 0x30
 8003dae:	bdf8      	pop	{r3, r4, r5, r6, r7, pc}
 8003db0:	7c22      	ldrb	r2, [r4, #16]
 8003db2:	2a00      	cmp	r2, #0
 8003db4:	f000 8084 	beq.w	8003ec0 <printhead_timer2_isr+0x22c>
 8003db8:	2200      	movs	r2, #0
 8003dba:	7422      	strb	r2, [r4, #16]
 8003dbc:	74e3      	strb	r3, [r4, #19]
 8003dbe:	f04f 4380 	mov.w	r3, #1073741824	; 0x40000000
 8003dc2:	f894 2034 	ldrb.w	r2, [r4, #52]	; 0x34
 8003dc6:	f8d3 040c 	ldr.w	r0, [r3, #1036]	; 0x40c
 8003dca:	f020 0001 	bic.w	r0, r0, #1
 8003dce:	f8c3 040c 	str.w	r0, [r3, #1036]	; 0x40c
 8003dd2:	f8d3 0410 	ldr.w	r0, [r3, #1040]	; 0x410
 8003dd6:	2100      	movs	r1, #0
 8003dd8:	f020 0001 	bic.w	r0, r0, #1
 8003ddc:	73a1      	strb	r1, [r4, #14]
 8003dde:	f8c3 0410 	str.w	r0, [r3, #1040]	; 0x410
 8003de2:	f8d3 0400 	ldr.w	r0, [r3, #1024]	; 0x400
 8003de6:	74a1      	strb	r1, [r4, #18]
 8003de8:	f020 0001 	bic.w	r0, r0, #1
 8003dec:	f8c3 0400 	str.w	r0, [r3, #1024]	; 0x400
 8003df0:	f641 056a 	movw	r5, #6250	; 0x186a
 8003df4:	4b5a      	ldr	r3, [pc, #360]	; (8003f60 <printhead_timer2_isr+0x2cc>)
 8003df6:	8621      	strh	r1, [r4, #48]	; 0x30
 8003df8:	8661      	strh	r1, [r4, #50]	; 0x32
 8003dfa:	4857      	ldr	r0, [pc, #348]	; (8003f58 <printhead_timer2_isr+0x2c4>)
 8003dfc:	6025      	str	r5, [r4, #0]
 8003dfe:	f44f 7180 	mov.w	r1, #256	; 0x100
 8003e02:	4798      	blx	r3
 8003e04:	f894 3034 	ldrb.w	r3, [r4, #52]	; 0x34
 8003e08:	f083 0301 	eor.w	r3, r3, #1
 8003e0c:	f884 3034 	strb.w	r3, [r4, #52]	; 0x34
 8003e10:	bdf8      	pop	{r3, r4, r5, r6, r7, pc}
 8003e12:	2200      	movs	r2, #0
 8003e14:	4b4f      	ldr	r3, [pc, #316]	; (8003f54 <printhead_timer2_isr+0x2c0>)
 8003e16:	f884 2035 	strb.w	r2, [r4, #53]	; 0x35
 8003e1a:	4a4f      	ldr	r2, [pc, #316]	; (8003f58 <printhead_timer2_isr+0x2c4>)
 8003e1c:	f44f 5100 	mov.w	r1, #8192	; 0x2000
 8003e20:	6111      	str	r1, [r2, #16]
 8003e22:	f894 2035 	ldrb.w	r2, [r4, #53]	; 0x35
 8003e26:	eb03 0342 	add.w	r3, r3, r2, lsl #1
 8003e2a:	785b      	ldrb	r3, [r3, #1]
 8003e2c:	2b00      	cmp	r3, #0
 8003e2e:	f47f af5c 	bne.w	8003cea <printhead_timer2_isr+0x56>
 8003e32:	4b49      	ldr	r3, [pc, #292]	; (8003f58 <printhead_timer2_isr+0x2c4>)
 8003e34:	f44f 4280 	mov.w	r2, #16384	; 0x4000
 8003e38:	615a      	str	r2, [r3, #20]
 8003e3a:	e75a      	b.n	8003cf2 <printhead_timer2_isr+0x5e>
 8003e3c:	4949      	ldr	r1, [pc, #292]	; (8003f64 <printhead_timer2_isr+0x2d0>)
 8003e3e:	4b4a      	ldr	r3, [pc, #296]	; (8003f68 <printhead_timer2_isr+0x2d4>)
 8003e40:	2700      	movs	r7, #0
 8003e42:	1d08      	adds	r0, r1, #4
 8003e44:	8127      	strh	r7, [r4, #8]
 8003e46:	4798      	blx	r3
 8003e48:	2802      	cmp	r0, #2
 8003e4a:	f000 8123 	beq.w	8004094 <printhead_timer2_isr+0x400>
 8003e4e:	7f27      	ldrb	r7, [r4, #28]
 8003e50:	8be3      	ldrh	r3, [r4, #30]
 8003e52:	80e3      	strh	r3, [r4, #6]
 8003e54:	2f01      	cmp	r7, #1
 8003e56:	d077      	beq.n	8003f48 <printhead_timer2_isr+0x2b4>
 8003e58:	2f02      	cmp	r7, #2
 8003e5a:	d067      	beq.n	8003f2c <printhead_timer2_isr+0x298>
 8003e5c:	2f00      	cmp	r7, #0
 8003e5e:	f47f af2d 	bne.w	8003cbc <printhead_timer2_isr+0x28>
 8003e62:	2701      	movs	r7, #1
 8003e64:	4b41      	ldr	r3, [pc, #260]	; (8003f6c <printhead_timer2_isr+0x2d8>)
 8003e66:	73e7      	strb	r7, [r4, #15]
 8003e68:	74a7      	strb	r7, [r4, #18]
 8003e6a:	4798      	blx	r3
 8003e6c:	2800      	cmp	r0, #0
 8003e6e:	f040 811d 	bne.w	80040ac <printhead_timer2_isr+0x418>
 8003e72:	4a3f      	ldr	r2, [pc, #252]	; (8003f70 <printhead_timer2_isr+0x2dc>)
 8003e74:	7460      	strb	r0, [r4, #17]
 8003e76:	6813      	ldr	r3, [r2, #0]
 8003e78:	f023 0380 	bic.w	r3, r3, #128	; 0x80
 8003e7c:	6013      	str	r3, [r2, #0]
 8003e7e:	2202      	movs	r2, #2
 8003e80:	4b3c      	ldr	r3, [pc, #240]	; (8003f74 <printhead_timer2_isr+0x2e0>)
 8003e82:	7522      	strb	r2, [r4, #20]
 8003e84:	4798      	blx	r3
 8003e86:	88e7      	ldrh	r7, [r4, #6]
 8003e88:	1bc7      	subs	r7, r0, r7
 8003e8a:	b2bf      	uxth	r7, r7
 8003e8c:	4b3a      	ldr	r3, [pc, #232]	; (8003f78 <printhead_timer2_isr+0x2e4>)
 8003e8e:	4798      	blx	r3
 8003e90:	7d23      	ldrb	r3, [r4, #20]
 8003e92:	f3c0 02cf 	ubfx	r2, r0, #3, #16
 8003e96:	f1c3 0350 	rsb	r3, r3, #80	; 0x50
 8003e9a:	1a9b      	subs	r3, r3, r2
 8003e9c:	7563      	strb	r3, [r4, #21]
 8003e9e:	b2f8      	uxtb	r0, r7
 8003ea0:	4b36      	ldr	r3, [pc, #216]	; (8003f7c <printhead_timer2_isr+0x2e8>)
 8003ea2:	81a2      	strh	r2, [r4, #12]
 8003ea4:	4798      	blx	r3
 8003ea6:	3801      	subs	r0, #1
 8003ea8:	61a0      	str	r0, [r4, #24]
 8003eaa:	e707      	b.n	8003cbc <printhead_timer2_isr+0x28>
 8003eac:	7be3      	ldrb	r3, [r4, #15]
 8003eae:	2700      	movs	r7, #0
 8003eb0:	74a7      	strb	r7, [r4, #18]
 8003eb2:	2b00      	cmp	r3, #0
 8003eb4:	d0c2      	beq.n	8003e3c <printhead_timer2_isr+0x1a8>
 8003eb6:	4b32      	ldr	r3, [pc, #200]	; (8003f80 <printhead_timer2_isr+0x2ec>)
 8003eb8:	4798      	blx	r3
 8003eba:	7ca3      	ldrb	r3, [r4, #18]
 8003ebc:	73e7      	strb	r7, [r4, #15]
 8003ebe:	e6f8      	b.n	8003cb2 <printhead_timer2_isr+0x1e>
 8003ec0:	4b30      	ldr	r3, [pc, #192]	; (8003f84 <printhead_timer2_isr+0x2f0>)
 8003ec2:	74e2      	strb	r2, [r4, #19]
 8003ec4:	f44f 4180 	mov.w	r1, #16384	; 0x4000
 8003ec8:	f8c3 1c14 	str.w	r1, [r3, #3092]	; 0xc14
 8003ecc:	e777      	b.n	8003dbe <printhead_timer2_isr+0x12a>
 8003ece:	f04f 4280 	mov.w	r2, #1073741824	; 0x40000000
 8003ed2:	6023      	str	r3, [r4, #0]
 8003ed4:	f8d2 1400 	ldr.w	r1, [r2, #1024]	; 0x400
 8003ed8:	f8d4 00b0 	ldr.w	r0, [r4, #176]	; 0xb0
 8003edc:	f021 0101 	bic.w	r1, r1, #1
 8003ee0:	f8c2 1400 	str.w	r1, [r2, #1024]	; 0x400
 8003ee4:	f8d2 140c 	ldr.w	r1, [r2, #1036]	; 0x40c
 8003ee8:	f021 0101 	bic.w	r1, r1, #1
 8003eec:	f8c2 140c 	str.w	r1, [r2, #1036]	; 0x40c
 8003ef0:	f8d2 1410 	ldr.w	r1, [r2, #1040]	; 0x410
 8003ef4:	fb00 f303 	mul.w	r3, r0, r3
 8003ef8:	3b01      	subs	r3, #1
 8003efa:	f021 0101 	bic.w	r1, r1, #1
 8003efe:	f8c2 1410 	str.w	r1, [r2, #1040]	; 0x410
 8003f02:	f8c2 342c 	str.w	r3, [r2, #1068]	; 0x42c
 8003f06:	f8d2 3400 	ldr.w	r3, [r2, #1024]	; 0x400
 8003f0a:	f043 0380 	orr.w	r3, r3, #128	; 0x80
 8003f0e:	f8c2 3400 	str.w	r3, [r2, #1024]	; 0x400
 8003f12:	f8d2 340c 	ldr.w	r3, [r2, #1036]	; 0x40c
 8003f16:	2101      	movs	r1, #1
 8003f18:	430b      	orrs	r3, r1
 8003f1a:	73a1      	strb	r1, [r4, #14]
 8003f1c:	f8c2 340c 	str.w	r3, [r2, #1036]	; 0x40c
 8003f20:	f8d2 3400 	ldr.w	r3, [r2, #1024]	; 0x400
 8003f24:	430b      	orrs	r3, r1
 8003f26:	f8c2 3400 	str.w	r3, [r2, #1024]	; 0x400
 8003f2a:	e72c      	b.n	8003d86 <printhead_timer2_isr+0xf2>
 8003f2c:	4b16      	ldr	r3, [pc, #88]	; (8003f88 <printhead_timer2_isr+0x2f4>)
 8003f2e:	4798      	blx	r3
 8003f30:	4a09      	ldr	r2, [pc, #36]	; (8003f58 <printhead_timer2_isr+0x2c4>)
 8003f32:	4b14      	ldr	r3, [pc, #80]	; (8003f84 <printhead_timer2_isr+0x2f0>)
 8003f34:	2101      	movs	r1, #1
 8003f36:	7421      	strb	r1, [r4, #16]
 8003f38:	f44f 4100 	mov.w	r1, #32768	; 0x8000
 8003f3c:	6151      	str	r1, [r2, #20]
 8003f3e:	2210      	movs	r2, #16
 8003f40:	74a7      	strb	r7, [r4, #18]
 8003f42:	f8c3 2810 	str.w	r2, [r3, #2064]	; 0x810
 8003f46:	bdf8      	pop	{r3, r4, r5, r6, r7, pc}
 8003f48:	74a7      	strb	r7, [r4, #18]
 8003f4a:	e6b7      	b.n	8003cbc <printhead_timer2_isr+0x28>
 8003f4c:	1e04      	subs	r4, r0, #0
 8003f4e:	2000      	movs	r0, #0
 8003f50:	17b9      	asrs	r1, r7, #30
 8003f52:	0800      	lsrs	r0, r0, #32
 8003f54:	7784      	strb	r4, [r0, #30]
 8003f56:	0800      	lsrs	r0, r0, #32
 8003f58:	1000      	asrs	r0, r0, #32
 8003f5a:	4001      	ands	r1, r0
 8003f5c:	e848 0001 	strex	r0, r0, [r8, #4]
 8003f60:	0b79      	lsrs	r1, r7, #13
 8003f62:	0800      	lsrs	r0, r0, #32
 8003f64:	1e20      	subs	r0, r4, #0
 8003f66:	2000      	movs	r0, #0
 8003f68:	3b09      	subs	r3, #9
 8003f6a:	0800      	lsrs	r0, r0, #32
 8003f6c:	4725      	bx	r4
 8003f6e:	0800      	lsrs	r0, r0, #32
 8003f70:	3000      	adds	r0, #0
 8003f72:	4001      	ands	r1, r0
 8003f74:	4dd9      	ldr	r5, [pc, #868]	; (80042dc <printhead_init+0xf8>)
 8003f76:	0800      	lsrs	r0, r0, #32
 8003f78:	47a9      			; <UNDEFINED> instruction: 0x47a9
 8003f7a:	0800      	lsrs	r0, r0, #32
 8003f7c:	49e9      	ldr	r1, [pc, #932]	; (8004324 <printhead_init+0x140>)
 8003f7e:	0800      	lsrs	r0, r0, #32
 8003f80:	4db9      	ldr	r5, [pc, #740]	; (8004268 <printhead_init+0x84>)
 8003f82:	0800      	lsrs	r0, r0, #32
 8003f84:	0000      	movs	r0, r0
 8003f86:	4001      	ands	r1, r0
 8003f88:	6641      	str	r1, [r0, #100]	; 0x64
 8003f8a:	0800      	lsrs	r0, r0, #32
 8003f8c:	4b4d      	ldr	r3, [pc, #308]	; (80040c4 <printhead_timer2_isr+0x430>)
 8003f8e:	2204      	movs	r2, #4
 8003f90:	f8c3 2414 	str.w	r2, [r3, #1044]	; 0x414
 8003f94:	f8c3 2410 	str.w	r2, [r3, #1040]	; 0x410
 8003f98:	f5a3 5380 	sub.w	r3, r3, #4096	; 0x1000
 8003f9c:	2210      	movs	r2, #16
 8003f9e:	f8c3 2c10 	str.w	r2, [r3, #3088]	; 0xc10
 8003fa2:	f04f 4380 	mov.w	r3, #1073741824	; 0x40000000
 8003fa6:	f06f 0201 	mvn.w	r2, #1
 8003faa:	611a      	str	r2, [r3, #16]
 8003fac:	68da      	ldr	r2, [r3, #12]
 8003fae:	f042 0201 	orr.w	r2, r2, #1
 8003fb2:	60da      	str	r2, [r3, #12]
 8003fb4:	681a      	ldr	r2, [r3, #0]
 8003fb6:	f042 0201 	orr.w	r2, r2, #1
 8003fba:	601a      	str	r2, [r3, #0]
 8003fbc:	7c61      	ldrb	r1, [r4, #17]
 8003fbe:	2900      	cmp	r1, #0
 8003fc0:	d036      	beq.n	8004030 <printhead_timer2_isr+0x39c>
 8003fc2:	7d20      	ldrb	r0, [r4, #20]
 8003fc4:	b150      	cbz	r0, 8003fdc <printhead_timer2_isr+0x348>
 8003fc6:	2100      	movs	r1, #0
 8003fc8:	4a3f      	ldr	r2, [pc, #252]	; (80040c8 <printhead_timer2_isr+0x434>)
 8003fca:	460f      	mov	r7, r1
 8003fcc:	6893      	ldr	r3, [r2, #8]
 8003fce:	079b      	lsls	r3, r3, #30
 8003fd0:	d5fc      	bpl.n	8003fcc <printhead_timer2_isr+0x338>
 8003fd2:	3101      	adds	r1, #1
 8003fd4:	b2cb      	uxtb	r3, r1
 8003fd6:	4298      	cmp	r0, r3
 8003fd8:	60d7      	str	r7, [r2, #12]
 8003fda:	d8f7      	bhi.n	8003fcc <printhead_timer2_isr+0x338>
 8003fdc:	89a2      	ldrh	r2, [r4, #12]
 8003fde:	f012 03ff 	ands.w	r3, r2, #255	; 0xff
 8003fe2:	d012      	beq.n	800400a <printhead_timer2_isr+0x376>
 8003fe4:	1e59      	subs	r1, r3, #1
 8003fe6:	fa5f fc81 	uxtb.w	ip, r1
 8003fea:	3b02      	subs	r3, #2
 8003fec:	4a36      	ldr	r2, [pc, #216]	; (80040c8 <printhead_timer2_isr+0x434>)
 8003fee:	eba3 0c0c 	sub.w	ip, r3, ip
 8003ff2:	2700      	movs	r7, #0
 8003ff4:	6893      	ldr	r3, [r2, #8]
 8003ff6:	0798      	lsls	r0, r3, #30
 8003ff8:	d5fc      	bpl.n	8003ff4 <printhead_timer2_isr+0x360>
 8003ffa:	69a3      	ldr	r3, [r4, #24]
 8003ffc:	5c58      	ldrb	r0, [r3, r1]
 8003ffe:	60d0      	str	r0, [r2, #12]
 8004000:	545f      	strb	r7, [r3, r1]
 8004002:	3901      	subs	r1, #1
 8004004:	458c      	cmp	ip, r1
 8004006:	d1f5      	bne.n	8003ff4 <printhead_timer2_isr+0x360>
 8004008:	89a2      	ldrh	r2, [r4, #12]
 800400a:	69a3      	ldr	r3, [r4, #24]
 800400c:	7d60      	ldrb	r0, [r4, #21]
 800400e:	1a9b      	subs	r3, r3, r2
 8004010:	61a3      	str	r3, [r4, #24]
 8004012:	2800      	cmp	r0, #0
 8004014:	f43f ae76 	beq.w	8003d04 <printhead_timer2_isr+0x70>
 8004018:	2100      	movs	r1, #0
 800401a:	4a2b      	ldr	r2, [pc, #172]	; (80040c8 <printhead_timer2_isr+0x434>)
 800401c:	460f      	mov	r7, r1
 800401e:	6893      	ldr	r3, [r2, #8]
 8004020:	079b      	lsls	r3, r3, #30
 8004022:	d5fc      	bpl.n	800401e <printhead_timer2_isr+0x38a>
 8004024:	3101      	adds	r1, #1
 8004026:	b2cb      	uxtb	r3, r1
 8004028:	4298      	cmp	r0, r3
 800402a:	60d7      	str	r7, [r2, #12]
 800402c:	d8f7      	bhi.n	800401e <printhead_timer2_isr+0x38a>
 800402e:	e669      	b.n	8003d04 <printhead_timer2_isr+0x70>
 8004030:	7d27      	ldrb	r7, [r4, #20]
 8004032:	b15f      	cbz	r7, 800404c <printhead_timer2_isr+0x3b8>
 8004034:	4a24      	ldr	r2, [pc, #144]	; (80040c8 <printhead_timer2_isr+0x434>)
 8004036:	4608      	mov	r0, r1
 8004038:	468c      	mov	ip, r1
 800403a:	6893      	ldr	r3, [r2, #8]
 800403c:	079b      	lsls	r3, r3, #30
 800403e:	d5fc      	bpl.n	800403a <printhead_timer2_isr+0x3a6>
 8004040:	3001      	adds	r0, #1
 8004042:	b2c3      	uxtb	r3, r0
 8004044:	429f      	cmp	r7, r3
 8004046:	f8c2 c00c 	str.w	ip, [r2, #12]
 800404a:	d8f6      	bhi.n	800403a <printhead_timer2_isr+0x3a6>
 800404c:	89a3      	ldrh	r3, [r4, #12]
 800404e:	b173      	cbz	r3, 800406e <printhead_timer2_isr+0x3da>
 8004050:	4a1d      	ldr	r2, [pc, #116]	; (80040c8 <printhead_timer2_isr+0x434>)
 8004052:	2700      	movs	r7, #0
 8004054:	6893      	ldr	r3, [r2, #8]
 8004056:	0798      	lsls	r0, r3, #30
 8004058:	d5fc      	bpl.n	8004054 <printhead_timer2_isr+0x3c0>
 800405a:	69a3      	ldr	r3, [r4, #24]
 800405c:	5c58      	ldrb	r0, [r3, r1]
 800405e:	60d0      	str	r0, [r2, #12]
 8004060:	545f      	strb	r7, [r3, r1]
 8004062:	3101      	adds	r1, #1
 8004064:	89a3      	ldrh	r3, [r4, #12]
 8004066:	b2c8      	uxtb	r0, r1
 8004068:	4298      	cmp	r0, r3
 800406a:	4601      	mov	r1, r0
 800406c:	d3f2      	bcc.n	8004054 <printhead_timer2_isr+0x3c0>
 800406e:	69a2      	ldr	r2, [r4, #24]
 8004070:	7d60      	ldrb	r0, [r4, #21]
 8004072:	4413      	add	r3, r2
 8004074:	61a3      	str	r3, [r4, #24]
 8004076:	2800      	cmp	r0, #0
 8004078:	f43f ae44 	beq.w	8003d04 <printhead_timer2_isr+0x70>
 800407c:	2100      	movs	r1, #0
 800407e:	4a12      	ldr	r2, [pc, #72]	; (80040c8 <printhead_timer2_isr+0x434>)
 8004080:	460f      	mov	r7, r1
 8004082:	6893      	ldr	r3, [r2, #8]
 8004084:	079b      	lsls	r3, r3, #30
 8004086:	d5fc      	bpl.n	8004082 <printhead_timer2_isr+0x3ee>
 8004088:	3101      	adds	r1, #1
 800408a:	b2cb      	uxtb	r3, r1
 800408c:	4298      	cmp	r0, r3
 800408e:	60d7      	str	r7, [r2, #12]
 8004090:	d8f7      	bhi.n	8004082 <printhead_timer2_isr+0x3ee>
 8004092:	e637      	b.n	8003d04 <printhead_timer2_isr+0x70>
 8004094:	4b0b      	ldr	r3, [pc, #44]	; (80040c4 <printhead_timer2_isr+0x430>)
 8004096:	f44f 4200 	mov.w	r2, #32768	; 0x8000
 800409a:	615a      	str	r2, [r3, #20]
 800409c:	f5a3 5380 	sub.w	r3, r3, #4096	; 0x1000
 80040a0:	2210      	movs	r2, #16
 80040a2:	74a0      	strb	r0, [r4, #18]
 80040a4:	7427      	strb	r7, [r4, #16]
 80040a6:	f8c3 2810 	str.w	r2, [r3, #2064]	; 0x810
 80040aa:	bdf8      	pop	{r3, r4, r5, r6, r7, pc}
 80040ac:	4a06      	ldr	r2, [pc, #24]	; (80040c8 <printhead_timer2_isr+0x434>)
 80040ae:	7467      	strb	r7, [r4, #17]
 80040b0:	6813      	ldr	r3, [r2, #0]
 80040b2:	f043 0380 	orr.w	r3, r3, #128	; 0x80
 80040b6:	6013      	str	r3, [r2, #0]
 80040b8:	2206      	movs	r2, #6
 80040ba:	4b04      	ldr	r3, [pc, #16]	; (80040cc <printhead_timer2_isr+0x438>)
 80040bc:	7522      	strb	r2, [r4, #20]
 80040be:	4798      	blx	r3
 80040c0:	4607      	mov	r7, r0
 80040c2:	e6e3      	b.n	8003e8c <printhead_timer2_isr+0x1f8>
 80040c4:	1000      	asrs	r0, r0, #32
 80040c6:	4001      	ands	r1, r0
 80040c8:	3000      	adds	r0, #0
 80040ca:	4001      	ands	r1, r0
 80040cc:	4dd9      	ldr	r5, [pc, #868]	; (8004434 <printhead_init+0x250>)
 80040ce:	0800      	lsrs	r0, r0, #32

080040d0 <PutAction>:
 80040d0:	b500      	push	{lr}
 80040d2:	b083      	sub	sp, #12
 80040d4:	4602      	mov	r2, r0
 80040d6:	468c      	mov	ip, r1
 80040d8:	4b06      	ldr	r3, [pc, #24]	; (80040f4 <PutAction+0x24>)
 80040da:	4807      	ldr	r0, [pc, #28]	; (80040f8 <PutAction+0x28>)
 80040dc:	f88d c004 	strb.w	ip, [sp, #4]
 80040e0:	a901      	add	r1, sp, #4
 80040e2:	f8ad 2006 	strh.w	r2, [sp, #6]
 80040e6:	4798      	blx	r3
 80040e8:	3801      	subs	r0, #1
 80040ea:	bf18      	it	ne
 80040ec:	2001      	movne	r0, #1
 80040ee:	b003      	add	sp, #12
 80040f0:	f85d fb04 	ldr.w	pc, [sp], #4
 80040f4:	3aa1      	subs	r2, #161	; 0xa1
 80040f6:	0800      	lsrs	r0, r0, #32
 80040f8:	1e24      	subs	r4, r4, #0
 80040fa:	2000      	movs	r0, #0

080040fc <RunActions>:
 80040fc:	b510      	push	{r4, lr}
 80040fe:	4c30      	ldr	r4, [pc, #192]	; (80041c0 <RunActions+0xc4>)
 8004100:	7ce1      	ldrb	r1, [r4, #19]
 8004102:	b161      	cbz	r1, 800411e <RunActions+0x22>
 8004104:	2902      	cmp	r1, #2
 8004106:	d109      	bne.n	800411c <RunActions+0x20>
 8004108:	4b2e      	ldr	r3, [pc, #184]	; (80041c4 <RunActions+0xc8>)
 800410a:	4798      	blx	r3
 800410c:	b130      	cbz	r0, 800411c <RunActions+0x20>
 800410e:	4b2e      	ldr	r3, [pc, #184]	; (80041c8 <RunActions+0xcc>)
 8004110:	2100      	movs	r1, #0
 8004112:	f44f 4280 	mov.w	r2, #16384	; 0x4000
 8004116:	74e1      	strb	r1, [r4, #19]
 8004118:	f8c3 2c14 	str.w	r2, [r3, #3092]	; 0xc14
 800411c:	bd10      	pop	{r4, pc}
 800411e:	4b2b      	ldr	r3, [pc, #172]	; (80041cc <RunActions+0xd0>)
 8004120:	f104 021c 	add.w	r2, r4, #28
 8004124:	f104 0020 	add.w	r0, r4, #32
 8004128:	4798      	blx	r3
 800412a:	2802      	cmp	r0, #2
 800412c:	d0f6      	beq.n	800411c <RunActions+0x20>
 800412e:	4928      	ldr	r1, [pc, #160]	; (80041d0 <RunActions+0xd4>)
 8004130:	4a25      	ldr	r2, [pc, #148]	; (80041c8 <RunActions+0xcc>)
 8004132:	f44f 4000 	mov.w	r0, #32768	; 0x8000
 8004136:	6108      	str	r0, [r1, #16]
 8004138:	f04f 4380 	mov.w	r3, #1073741824	; 0x40000000
 800413c:	2010      	movs	r0, #16
 800413e:	f44f 4180 	mov.w	r1, #16384	; 0x4000
 8004142:	f8c2 0814 	str.w	r0, [r2, #2068]	; 0x814
 8004146:	f8c2 1c10 	str.w	r1, [r2, #3088]	; 0xc10
 800414a:	68da      	ldr	r2, [r3, #12]
 800414c:	f8d4 10b0 	ldr.w	r1, [r4, #176]	; 0xb0
 8004150:	f022 0201 	bic.w	r2, r2, #1
 8004154:	60da      	str	r2, [r3, #12]
 8004156:	6918      	ldr	r0, [r3, #16]
 8004158:	88a2      	ldrh	r2, [r4, #4]
 800415a:	f020 0001 	bic.w	r0, r0, #1
 800415e:	6118      	str	r0, [r3, #16]
 8004160:	6818      	ldr	r0, [r3, #0]
 8004162:	fb01 f202 	mul.w	r2, r1, r2
 8004166:	f020 0001 	bic.w	r0, r0, #1
 800416a:	3a01      	subs	r2, #1
 800416c:	6018      	str	r0, [r3, #0]
 800416e:	62da      	str	r2, [r3, #44]	; 0x2c
 8004170:	f8d3 2400 	ldr.w	r2, [r3, #1024]	; 0x400
 8004174:	f022 0201 	bic.w	r2, r2, #1
 8004178:	f8c3 2400 	str.w	r2, [r3, #1024]	; 0x400
 800417c:	f8d3 240c 	ldr.w	r2, [r3, #1036]	; 0x40c
 8004180:	f022 0201 	bic.w	r2, r2, #1
 8004184:	f8c3 240c 	str.w	r2, [r3, #1036]	; 0x40c
 8004188:	f8d3 2410 	ldr.w	r2, [r3, #1040]	; 0x410
 800418c:	2001      	movs	r0, #1
 800418e:	f022 0201 	bic.w	r2, r2, #1
 8004192:	3901      	subs	r1, #1
 8004194:	74e0      	strb	r0, [r4, #19]
 8004196:	f8c3 2410 	str.w	r2, [r3, #1040]	; 0x410
 800419a:	f8c3 142c 	str.w	r1, [r3, #1068]	; 0x42c
 800419e:	f8d3 2400 	ldr.w	r2, [r3, #1024]	; 0x400
 80041a2:	f022 0280 	bic.w	r2, r2, #128	; 0x80
 80041a6:	f8c3 2400 	str.w	r2, [r3, #1024]	; 0x400
 80041aa:	f8d3 240c 	ldr.w	r2, [r3, #1036]	; 0x40c
 80041ae:	4302      	orrs	r2, r0
 80041b0:	f8c3 240c 	str.w	r2, [r3, #1036]	; 0x40c
 80041b4:	f8d3 2400 	ldr.w	r2, [r3, #1024]	; 0x400
 80041b8:	4302      	orrs	r2, r0
 80041ba:	f8c3 2400 	str.w	r2, [r3, #1024]	; 0x400
 80041be:	bd10      	pop	{r4, pc}
 80041c0:	1e04      	subs	r4, r0, #0
 80041c2:	2000      	movs	r0, #0
 80041c4:	6849      	ldr	r1, [r1, #4]
 80041c6:	0800      	lsrs	r0, r0, #32
 80041c8:	0000      	movs	r0, r0
 80041ca:	4001      	ands	r1, r0
 80041cc:	3b95      	subs	r3, #149	; 0x95
 80041ce:	0800      	lsrs	r0, r0, #32
 80041d0:	1000      	asrs	r0, r0, #32
 80041d2:	4001      	ands	r1, r0

080041d4 <checkTheActionBufferIsemptyOrNot>:
 80041d4:	4801      	ldr	r0, [pc, #4]	; (80041dc <checkTheActionBufferIsemptyOrNot+0x8>)
 80041d6:	4b02      	ldr	r3, [pc, #8]	; (80041e0 <checkTheActionBufferIsemptyOrNot+0xc>)
 80041d8:	4718      	bx	r3
 80041da:	bf00      	nop
 80041dc:	1e24      	subs	r4, r4, #0
 80041de:	2000      	movs	r0, #0
 80041e0:	3c59      	subs	r4, #89	; 0x59
 80041e2:	0800      	lsrs	r0, r0, #32

080041e4 <printhead_init>:
 80041e4:	e92d 4ff0 	stmdb	sp!, {r4, r5, r6, r7, r8, r9, sl, fp, lr}
 80041e8:	4b86      	ldr	r3, [pc, #536]	; (8004404 <printhead_init+0x220>)
 80041ea:	b089      	sub	sp, #36	; 0x24
 80041ec:	2000      	movs	r0, #0
 80041ee:	4798      	blx	r3
 80041f0:	4b85      	ldr	r3, [pc, #532]	; (8004408 <printhead_init+0x224>)
 80041f2:	4298      	cmp	r0, r3
 80041f4:	f000 8100 	beq.w	80043f8 <printhead_init+0x214>
 80041f8:	f103 73b7 	add.w	r3, r3, #23986176	; 0x16e0000
 80041fc:	f503 5358 	add.w	r3, r3, #13824	; 0x3600
 8004200:	4298      	cmp	r0, r3
 8004202:	f000 80f6 	beq.w	80043f2 <printhead_init+0x20e>
 8004206:	4b81      	ldr	r3, [pc, #516]	; (800440c <printhead_init+0x228>)
 8004208:	4298      	cmp	r0, r3
 800420a:	f000 80f8 	beq.w	80043fe <printhead_init+0x21a>
 800420e:	f103 73b7 	add.w	r3, r3, #23986176	; 0x16e0000
 8004212:	f503 5358 	add.w	r3, r3, #13824	; 0x3600
 8004216:	4298      	cmp	r0, r3
 8004218:	bf15      	itete	ne
 800421a:	2100      	movne	r1, #0
 800421c:	2109      	moveq	r1, #9
 800421e:	2201      	movne	r2, #1
 8004220:	220a      	moveq	r2, #10
 8004222:	4b7b      	ldr	r3, [pc, #492]	; (8004410 <printhead_init+0x22c>)
 8004224:	4e7b      	ldr	r6, [pc, #492]	; (8004414 <printhead_init+0x230>)
 8004226:	f8ad 1000 	strh.w	r1, [sp]
 800422a:	fba3 1300 	umull	r1, r3, r3, r0
 800422e:	2500      	movs	r5, #0
 8004230:	f8df a1e4 	ldr.w	sl, [pc, #484]	; 8004418 <printhead_init+0x234>
 8004234:	f8ad 5002 	strh.w	r5, [sp, #2]
 8004238:	f44f 60e0 	mov.w	r0, #1792	; 0x700
 800423c:	0c9b      	lsrs	r3, r3, #18
 800423e:	fbb3 f3f2 	udiv	r3, r3, r2
 8004242:	1e5a      	subs	r2, r3, #1
 8004244:	f8c6 30b0 	str.w	r3, [r6, #176]	; 0xb0
 8004248:	9202      	str	r2, [sp, #8]
 800424a:	9501      	str	r5, [sp, #4]
 800424c:	f88d 500c 	strb.w	r5, [sp, #12]
 8004250:	47d0      	blx	sl
 8004252:	f240 7001 	movw	r0, #1793	; 0x701
 8004256:	f04f 4480 	mov.w	r4, #1073741824	; 0x40000000
 800425a:	47d0      	blx	sl
 800425c:	4f6f      	ldr	r7, [pc, #444]	; (800441c <printhead_init+0x238>)
 800425e:	f8df 81c0 	ldr.w	r8, [pc, #448]	; 8004420 <printhead_init+0x23c>
 8004262:	f8df 91c0 	ldr.w	r9, [pc, #448]	; 8004424 <printhead_init+0x240>
 8004266:	462a      	mov	r2, r5
 8004268:	4629      	mov	r1, r5
 800426a:	201c      	movs	r0, #28
 800426c:	47b8      	blx	r7
 800426e:	462a      	mov	r2, r5
 8004270:	4629      	mov	r1, r5
 8004272:	201d      	movs	r0, #29
 8004274:	47b8      	blx	r7
 8004276:	6823      	ldr	r3, [r4, #0]
 8004278:	4f6b      	ldr	r7, [pc, #428]	; (8004428 <printhead_init+0x244>)
 800427a:	f023 0301 	bic.w	r3, r3, #1
 800427e:	6023      	str	r3, [r4, #0]
 8004280:	f8d4 3400 	ldr.w	r3, [r4, #1024]	; 0x400
 8004284:	f023 0301 	bic.w	r3, r3, #1
 8004288:	f8c4 3400 	str.w	r3, [r4, #1024]	; 0x400
 800428c:	4620      	mov	r0, r4
 800428e:	4669      	mov	r1, sp
 8004290:	47b8      	blx	r7
 8004292:	4669      	mov	r1, sp
 8004294:	4865      	ldr	r0, [pc, #404]	; (800442c <printhead_init+0x248>)
 8004296:	47b8      	blx	r7
 8004298:	6823      	ldr	r3, [r4, #0]
 800429a:	4865      	ldr	r0, [pc, #404]	; (8004430 <printhead_init+0x24c>)
 800429c:	f023 0380 	bic.w	r3, r3, #128	; 0x80
 80042a0:	6023      	str	r3, [r4, #0]
 80042a2:	f8d4 3400 	ldr.w	r3, [r4, #1024]	; 0x400
 80042a6:	f023 0380 	bic.w	r3, r3, #128	; 0x80
 80042aa:	f8c4 3400 	str.w	r3, [r4, #1024]	; 0x400
 80042ae:	68e3      	ldr	r3, [r4, #12]
 80042b0:	f023 0301 	bic.w	r3, r3, #1
 80042b4:	60e3      	str	r3, [r4, #12]
 80042b6:	f8d4 340c 	ldr.w	r3, [r4, #1036]	; 0x40c
 80042ba:	f023 0301 	bic.w	r3, r3, #1
 80042be:	f8c4 340c 	str.w	r3, [r4, #1036]	; 0x40c
 80042c2:	f44f 4b80 	mov.w	fp, #16384	; 0x4000
 80042c6:	f06f 0301 	mvn.w	r3, #1
 80042ca:	6123      	str	r3, [r4, #16]
 80042cc:	2204      	movs	r2, #4
 80042ce:	f8c4 3410 	str.w	r3, [r4, #1040]	; 0x410
 80042d2:	2110      	movs	r1, #16
 80042d4:	4c57      	ldr	r4, [pc, #348]	; (8004434 <printhead_init+0x250>)
 80042d6:	465b      	mov	r3, fp
 80042d8:	47a0      	blx	r4
 80042da:	f8c9 bc14 	str.w	fp, [r9, #3092]	; 0xc14
 80042de:	4640      	mov	r0, r8
 80042e0:	f44f 4300 	mov.w	r3, #32768	; 0x8000
 80042e4:	2204      	movs	r2, #4
 80042e6:	2110      	movs	r1, #16
 80042e8:	47a0      	blx	r4
 80042ea:	2310      	movs	r3, #16
 80042ec:	f44f 4200 	mov.w	r2, #32768	; 0x8000
 80042f0:	461f      	mov	r7, r3
 80042f2:	f8c8 2014 	str.w	r2, [r8, #20]
 80042f6:	4619      	mov	r1, r3
 80042f8:	484f      	ldr	r0, [pc, #316]	; (8004438 <printhead_init+0x254>)
 80042fa:	2204      	movs	r2, #4
 80042fc:	47a0      	blx	r4
 80042fe:	f8c9 7810 	str.w	r7, [r9, #2064]	; 0x810
 8004302:	4639      	mov	r1, r7
 8004304:	4640      	mov	r0, r8
 8004306:	2204      	movs	r2, #4
 8004308:	f44f 5300 	mov.w	r3, #8192	; 0x2000
 800430c:	47a0      	blx	r4
 800430e:	465b      	mov	r3, fp
 8004310:	4639      	mov	r1, r7
 8004312:	4640      	mov	r0, r8
 8004314:	2204      	movs	r2, #4
 8004316:	47a0      	blx	r4
 8004318:	4640      	mov	r0, r8
 800431a:	4b48      	ldr	r3, [pc, #288]	; (800443c <printhead_init+0x258>)
 800431c:	2201      	movs	r2, #1
 800431e:	f44f 5100 	mov.w	r1, #8192	; 0x2000
 8004322:	4798      	blx	r3
 8004324:	4659      	mov	r1, fp
 8004326:	4640      	mov	r0, r8
 8004328:	4b44      	ldr	r3, [pc, #272]	; (800443c <printhead_init+0x258>)
 800432a:	2201      	movs	r2, #1
 800432c:	4798      	blx	r3
 800432e:	4639      	mov	r1, r7
 8004330:	483f      	ldr	r0, [pc, #252]	; (8004430 <printhead_init+0x24c>)
 8004332:	2380      	movs	r3, #128	; 0x80
 8004334:	2204      	movs	r2, #4
 8004336:	47a0      	blx	r4
 8004338:	2304      	movs	r3, #4
 800433a:	2280      	movs	r2, #128	; 0x80
 800433c:	469b      	mov	fp, r3
 800433e:	f8c9 2c10 	str.w	r2, [r9, #3088]	; 0xc10
 8004342:	4639      	mov	r1, r7
 8004344:	461a      	mov	r2, r3
 8004346:	483e      	ldr	r0, [pc, #248]	; (8004440 <printhead_init+0x25c>)
 8004348:	47a0      	blx	r4
 800434a:	463b      	mov	r3, r7
 800434c:	465a      	mov	r2, fp
 800434e:	4639      	mov	r1, r7
 8004350:	4837      	ldr	r0, [pc, #220]	; (8004430 <printhead_init+0x24c>)
 8004352:	f8c8 b410 	str.w	fp, [r8, #1040]	; 0x410
 8004356:	47a0      	blx	r4
 8004358:	f8c9 7c14 	str.w	r7, [r9, #3092]	; 0xc14
 800435c:	f240 600c 	movw	r0, #1548	; 0x60c
 8004360:	47d0      	blx	sl
 8004362:	2101      	movs	r1, #1
 8004364:	4f37      	ldr	r7, [pc, #220]	; (8004444 <printhead_init+0x260>)
 8004366:	4608      	mov	r0, r1
 8004368:	47b8      	blx	r7
 800436a:	4837      	ldr	r0, [pc, #220]	; (8004448 <printhead_init+0x264>)
 800436c:	2101      	movs	r1, #1
 800436e:	47b8      	blx	r7
 8004370:	465a      	mov	r2, fp
 8004372:	482f      	ldr	r0, [pc, #188]	; (8004430 <printhead_init+0x24c>)
 8004374:	4f35      	ldr	r7, [pc, #212]	; (800444c <printhead_init+0x268>)
 8004376:	2308      	movs	r3, #8
 8004378:	2118      	movs	r1, #24
 800437a:	47a0      	blx	r4
 800437c:	465a      	mov	r2, fp
 800437e:	482c      	ldr	r0, [pc, #176]	; (8004430 <printhead_init+0x24c>)
 8004380:	2320      	movs	r3, #32
 8004382:	2118      	movs	r1, #24
 8004384:	47a0      	blx	r4
 8004386:	2308      	movs	r3, #8
 8004388:	9306      	str	r3, [sp, #24]
 800438a:	f44f 7282 	mov.w	r2, #260	; 0x104
 800438e:	f44f 4340 	mov.w	r3, #49152	; 0xc000
 8004392:	e9cd 2300 	strd	r2, r3, [sp]
 8004396:	2200      	movs	r2, #0
 8004398:	f44f 7300 	mov.w	r3, #512	; 0x200
 800439c:	e9cd 2302 	strd	r2, r3, [sp, #8]
 80043a0:	2200      	movs	r2, #0
 80043a2:	2300      	movs	r3, #0
 80043a4:	e9cd 2304 	strd	r2, r3, [sp, #16]
 80043a8:	4669      	mov	r1, sp
 80043aa:	4829      	ldr	r0, [pc, #164]	; (8004450 <printhead_init+0x26c>)
 80043ac:	4c29      	ldr	r4, [pc, #164]	; (8004454 <printhead_init+0x270>)
 80043ae:	47b8      	blx	r7
 80043b0:	4827      	ldr	r0, [pc, #156]	; (8004450 <printhead_init+0x26c>)
 80043b2:	2101      	movs	r1, #1
 80043b4:	47a0      	blx	r4
 80043b6:	4629      	mov	r1, r5
 80043b8:	4825      	ldr	r0, [pc, #148]	; (8004450 <printhead_init+0x26c>)
 80043ba:	47a0      	blx	r4
 80043bc:	4824      	ldr	r0, [pc, #144]	; (8004450 <printhead_init+0x26c>)
 80043be:	4b26      	ldr	r3, [pc, #152]	; (8004458 <printhead_init+0x274>)
 80043c0:	4c26      	ldr	r4, [pc, #152]	; (800445c <printhead_init+0x278>)
 80043c2:	4798      	blx	r3
 80043c4:	465b      	mov	r3, fp
 80043c6:	f106 01b4 	add.w	r1, r6, #180	; 0xb4
 80043ca:	f106 0020 	add.w	r0, r6, #32
 80043ce:	2240      	movs	r2, #64	; 0x40
 80043d0:	47a0      	blx	r4
 80043d2:	4629      	mov	r1, r5
 80043d4:	4b22      	ldr	r3, [pc, #136]	; (8004460 <printhead_init+0x27c>)
 80043d6:	221c      	movs	r2, #28
 80043d8:	4630      	mov	r0, r6
 80043da:	4798      	blx	r3
 80043dc:	f641 016a 	movw	r1, #6250	; 0x186a
 80043e0:	22fa      	movs	r2, #250	; 0xfa
 80043e2:	f44f 73c8 	mov.w	r3, #400	; 0x190
 80043e6:	6031      	str	r1, [r6, #0]
 80043e8:	8172      	strh	r2, [r6, #10]
 80043ea:	80b3      	strh	r3, [r6, #4]
 80043ec:	b009      	add	sp, #36	; 0x24
 80043ee:	e8bd 8ff0 	ldmia.w	sp!, {r4, r5, r6, r7, r8, r9, sl, fp, pc}
 80043f2:	2105      	movs	r1, #5
 80043f4:	2206      	movs	r2, #6
 80043f6:	e714      	b.n	8004222 <printhead_init+0x3e>
 80043f8:	2103      	movs	r1, #3
 80043fa:	2204      	movs	r2, #4
 80043fc:	e711      	b.n	8004222 <printhead_init+0x3e>
 80043fe:	2107      	movs	r1, #7
 8004400:	2208      	movs	r2, #8
 8004402:	e70e      	b.n	8004222 <printhead_init+0x3e>
 8004404:	0edd      	lsrs	r5, r3, #27
 8004406:	0800      	lsrs	r0, r0, #32
 8004408:	6c00      	ldr	r0, [r0, #64]	; 0x40
 800440a:	02dc      	lsls	r4, r3, #11
 800440c:	d800      	bhi.n	8004410 <printhead_init+0x22c>
 800440e:	05b8      	lsls	r0, r7, #22
 8004410:	de83      	udf	#131	; 0x83
 8004412:	431b      	orrs	r3, r3
 8004414:	1e04      	subs	r4, r0, #0
 8004416:	2000      	movs	r0, #0
 8004418:	0e1d      	lsrs	r5, r3, #24
 800441a:	0800      	lsrs	r0, r0, #32
 800441c:	0c81      	lsrs	r1, r0, #18
 800441e:	0800      	lsrs	r0, r0, #32
 8004420:	1000      	asrs	r0, r0, #32
 8004422:	4001      	ands	r1, r0
 8004424:	0000      	movs	r0, r0
 8004426:	4001      	ands	r1, r0
 8004428:	1369      	asrs	r1, r5, #13
 800442a:	0800      	lsrs	r0, r0, #32
 800442c:	0400      	lsls	r0, r0, #16
 800442e:	4000      	ands	r0, r0
 8004430:	0c00      	lsrs	r0, r0, #16
 8004432:	4001      	ands	r1, r0
 8004434:	07b9      	lsls	r1, r7, #30
 8004436:	0800      	lsrs	r0, r0, #32
 8004438:	0800      	lsrs	r0, r0, #32
 800443a:	4001      	ands	r1, r0
 800443c:	0b79      	lsrs	r1, r7, #13
 800443e:	0800      	lsrs	r0, r0, #32
 8004440:	1400      	asrs	r0, r0, #16
 8004442:	4001      	ands	r1, r0
 8004444:	0b91      	lsrs	r1, r2, #14
 8004446:	0800      	lsrs	r0, r0, #32
 8004448:	0400      	lsls	r0, r0, #16
 800444a:	0030      	movs	r0, r6
 800444c:	10a9      	asrs	r1, r5, #2
 800444e:	0800      	lsrs	r0, r0, #32
 8004450:	3000      	adds	r0, #0
 8004452:	4001      	ands	r1, r0
 8004454:	112d      	asrs	r5, r5, #4
 8004456:	0800      	lsrs	r0, r0, #32
 8004458:	10dd      	asrs	r5, r3, #3
 800445a:	0800      	lsrs	r0, r0, #32
 800445c:	3a81      	subs	r2, #129	; 0x81
 800445e:	0800      	lsrs	r0, r0, #32
 8004460:	6a75      	ldr	r5, [r6, #36]	; 0x24
 8004462:	0800      	lsrs	r0, r0, #32

08004464 <Printer_Deneisty>:
 8004464:	f5b0 7f1c 	cmp.w	r0, #624	; 0x270
 8004468:	4b05      	ldr	r3, [pc, #20]	; (8004480 <Printer_Deneisty+0x1c>)
 800446a:	d805      	bhi.n	8004478 <Printer_Deneisty+0x14>
 800446c:	28c8      	cmp	r0, #200	; 0xc8
 800446e:	bf9a      	itte	ls
 8004470:	22c8      	movls	r2, #200	; 0xc8
 8004472:	809a      	strhls	r2, [r3, #4]
 8004474:	8098      	strhhi	r0, [r3, #4]
 8004476:	4770      	bx	lr
 8004478:	f240 2271 	movw	r2, #625	; 0x271
 800447c:	809a      	strh	r2, [r3, #4]
 800447e:	4770      	bx	lr
 8004480:	1e04      	subs	r4, r0, #0
 8004482:	2000      	movs	r0, #0

08004484 <Printer_Speed>:
 8004484:	28f9      	cmp	r0, #249	; 0xf9
 8004486:	4b05      	ldr	r3, [pc, #20]	; (800449c <Printer_Speed+0x18>)
 8004488:	d805      	bhi.n	8004496 <Printer_Speed+0x12>
 800448a:	2832      	cmp	r0, #50	; 0x32
 800448c:	bf9a      	itte	ls
 800448e:	2232      	movls	r2, #50	; 0x32
 8004490:	815a      	strhls	r2, [r3, #10]
 8004492:	8158      	strhhi	r0, [r3, #10]
 8004494:	4770      	bx	lr
 8004496:	22fa      	movs	r2, #250	; 0xfa
 8004498:	815a      	strh	r2, [r3, #10]
 800449a:	4770      	bx	lr
 800449c:	1e04      	subs	r4, r0, #0
 800449e:	2000      	movs	r0, #0

080044a0 <Print_Time>:
 80044a0:	e92d 41f0 	stmdb	sp!, {r4, r5, r6, r7, r8, lr}
 80044a4:	4c08      	ldr	r4, [pc, #32]	; (80044c8 <Print_Time+0x28>)
 80044a6:	4f09      	ldr	r7, [pc, #36]	; (80044cc <Print_Time+0x2c>)
 80044a8:	4e09      	ldr	r6, [pc, #36]	; (80044d0 <Print_Time+0x30>)
 80044aa:	f104 0578 	add.w	r5, r4, #120	; 0x78
 80044ae:	f854 0f04 	ldr.w	r0, [r4, #4]!
 80044b2:	47b8      	blx	r7
 80044b4:	2020      	movs	r0, #32
 80044b6:	47b0      	blx	r6
 80044b8:	42ac      	cmp	r4, r5
 80044ba:	d1f8      	bne.n	80044ae <Print_Time+0xe>
 80044bc:	e8bd 41f0 	ldmia.w	sp!, {r4, r5, r6, r7, r8, lr}
 80044c0:	4b04      	ldr	r3, [pc, #16]	; (80044d4 <Print_Time+0x34>)
 80044c2:	200a      	movs	r0, #10
 80044c4:	4718      	bx	r3
 80044c6:	bf00      	nop
 80044c8:	1e38      	subs	r0, r7, #0
 80044ca:	2000      	movs	r0, #0
 80044cc:	6551      	str	r1, [r2, #84]	; 0x54
 80044ce:	0800      	lsrs	r0, r0, #32
 80044d0:	6579      	str	r1, [r7, #84]	; 0x54
 80044d2:	0800      	lsrs	r0, r0, #32
 80044d4:	65a5      	str	r5, [r4, #88]	; 0x58
 80044d6:	0800      	lsrs	r0, r0, #32

080044d8 <DrawBitmapMSB>:
 80044d8:	e92d 4ff0 	stmdb	sp!, {r4, r5, r6, r7, r8, r9, sl, fp, lr}
 80044dc:	469a      	mov	sl, r3
 80044de:	b087      	sub	sp, #28
 80044e0:	fb01 0303 	mla	r3, r1, r3, r0
 80044e4:	492f      	ldr	r1, [pc, #188]	; (80045a4 <DrawBitmapMSB+0xcc>)
 80044e6:	f89d 5040 	ldrb.w	r5, [sp, #64]	; 0x40
 80044ea:	9003      	str	r0, [sp, #12]
 80044ec:	4606      	mov	r6, r0
 80044ee:	8b88      	ldrh	r0, [r1, #28]
 80044f0:	9504      	str	r5, [sp, #16]
 80044f2:	fb02 0e15 	mls	lr, r2, r5, r0
 80044f6:	f102 0b07 	add.w	fp, r2, #7
 80044fa:	8b4a      	ldrh	r2, [r1, #26]
 80044fc:	3207      	adds	r2, #7
 80044fe:	10d5      	asrs	r5, r2, #3
 8004500:	4586      	cmp	lr, r0
 8004502:	9502      	str	r5, [sp, #8]
 8004504:	d24b      	bcs.n	800459e <DrawBitmapMSB+0xc6>
 8004506:	42b3      	cmp	r3, r6
 8004508:	f891 202b 	ldrb.w	r2, [r1, #43]	; 0x2b
 800450c:	d947      	bls.n	800459e <DrawBitmapMSB+0xc6>
 800450e:	3201      	adds	r2, #1
 8004510:	1b9b      	subs	r3, r3, r6
 8004512:	f851 4032 	ldr.w	r4, [r1, r2, lsl #3]
 8004516:	9300      	str	r3, [sp, #0]
 8004518:	eba0 020e 	sub.w	r2, r0, lr
 800451c:	2300      	movs	r3, #0
 800451e:	9301      	str	r3, [sp, #4]
 8004520:	ea4f 0beb 	mov.w	fp, fp, asr #3
 8004524:	9205      	str	r2, [sp, #20]
 8004526:	fb05 fe0e 	mul.w	lr, r5, lr
 800452a:	2380      	movs	r3, #128	; 0x80
 800452c:	9a01      	ldr	r2, [sp, #4]
 800452e:	9904      	ldr	r1, [sp, #16]
 8004530:	fbb2 f8f1 	udiv	r8, r2, r1
 8004534:	9a11      	ldr	r2, [sp, #68]	; 0x44
 8004536:	f008 0907 	and.w	r9, r8, #7
 800453a:	fa43 f909 	asr.w	r9, r3, r9
 800453e:	eb02 08d8 	add.w	r8, r2, r8, lsr #3
 8004542:	2000      	movs	r0, #0
 8004544:	9a03      	ldr	r2, [sp, #12]
 8004546:	e008      	b.n	800455a <DrawBitmapMSB+0x82>
 8004548:	5de5      	ldrb	r5, [r4, r7]
 800454a:	4329      	orrs	r1, r5
 800454c:	55e1      	strb	r1, [r4, r7]
 800454e:	9900      	ldr	r1, [sp, #0]
 8004550:	3001      	adds	r0, #1
 8004552:	4288      	cmp	r0, r1
 8004554:	f102 0201 	add.w	r2, r2, #1
 8004558:	d019      	beq.n	800458e <DrawBitmapMSB+0xb6>
 800455a:	fbb0 f1fa 	udiv	r1, r0, sl
 800455e:	fb0b f101 	mul.w	r1, fp, r1
 8004562:	eb0e 07d2 	add.w	r7, lr, r2, lsr #3
 8004566:	f818 c001 	ldrb.w	ip, [r8, r1]
 800456a:	f002 0107 	and.w	r1, r2, #7
 800456e:	fa43 f101 	asr.w	r1, r3, r1
 8004572:	ea1c 0f09 	tst.w	ip, r9
 8004576:	460d      	mov	r5, r1
 8004578:	d1e6      	bne.n	8004548 <DrawBitmapMSB+0x70>
 800457a:	5de1      	ldrb	r1, [r4, r7]
 800457c:	ea21 0505 	bic.w	r5, r1, r5
 8004580:	9900      	ldr	r1, [sp, #0]
 8004582:	55e5      	strb	r5, [r4, r7]
 8004584:	3001      	adds	r0, #1
 8004586:	4288      	cmp	r0, r1
 8004588:	f102 0201 	add.w	r2, r2, #1
 800458c:	d1e5      	bne.n	800455a <DrawBitmapMSB+0x82>
 800458e:	9902      	ldr	r1, [sp, #8]
 8004590:	9a01      	ldr	r2, [sp, #4]
 8004592:	448e      	add	lr, r1
 8004594:	9905      	ldr	r1, [sp, #20]
 8004596:	3201      	adds	r2, #1
 8004598:	428a      	cmp	r2, r1
 800459a:	9201      	str	r2, [sp, #4]
 800459c:	d1c6      	bne.n	800452c <DrawBitmapMSB+0x54>
 800459e:	b007      	add	sp, #28
 80045a0:	e8bd 8ff0 	ldmia.w	sp!, {r4, r5, r6, r7, r8, r9, sl, fp, pc}
 80045a4:	1fb8      	subs	r0, r7, #6
 80045a6:	2000      	movs	r0, #0

080045a8 <DrawImagBitWithInChar>:
 80045a8:	b570      	push	{r4, r5, r6, lr}
 80045aa:	4c25      	ldr	r4, [pc, #148]	; (8004640 <DrawImagBitWithInChar+0x98>)
 80045ac:	f894 3034 	ldrb.w	r3, [r4, #52]	; 0x34
 80045b0:	2b01      	cmp	r3, #1
 80045b2:	b082      	sub	sp, #8
 80045b4:	d02c      	beq.n	8004610 <DrawImagBitWithInChar+0x68>
 80045b6:	2b20      	cmp	r3, #32
 80045b8:	d037      	beq.n	800462a <DrawImagBitWithInChar+0x82>
 80045ba:	2b21      	cmp	r3, #33	; 0x21
 80045bc:	d01a      	beq.n	80045f4 <DrawImagBitWithInChar+0x4c>
 80045be:	8ee1      	ldrh	r1, [r4, #54]	; 0x36
 80045c0:	6b22      	ldr	r2, [r4, #48]	; 0x30
 80045c2:	8be5      	ldrh	r5, [r4, #30]
 80045c4:	4e1f      	ldr	r6, [pc, #124]	; (8004644 <DrawImagBitWithInChar+0x9c>)
 80045c6:	0049      	lsls	r1, r1, #1
 80045c8:	2301      	movs	r3, #1
 80045ca:	e9cd 3200 	strd	r3, r2, [sp]
 80045ce:	b289      	uxth	r1, r1
 80045d0:	2208      	movs	r2, #8
 80045d2:	4628      	mov	r0, r5
 80045d4:	47b0      	blx	r6
 80045d6:	8ee0      	ldrh	r0, [r4, #54]	; 0x36
 80045d8:	eb05 0540 	add.w	r5, r5, r0, lsl #1
 80045dc:	83e5      	strh	r5, [r4, #30]
 80045de:	8c23      	ldrh	r3, [r4, #32]
 80045e0:	6b20      	ldr	r0, [r4, #48]	; 0x30
 80045e2:	4a19      	ldr	r2, [pc, #100]	; (8004648 <DrawImagBitWithInChar+0xa0>)
 80045e4:	2b18      	cmp	r3, #24
 80045e6:	bf38      	it	cc
 80045e8:	2318      	movcc	r3, #24
 80045ea:	8423      	strh	r3, [r4, #32]
 80045ec:	b002      	add	sp, #8
 80045ee:	e8bd 4070 	ldmia.w	sp!, {r4, r5, r6, lr}
 80045f2:	4710      	bx	r2
 80045f4:	8be5      	ldrh	r5, [r4, #30]
 80045f6:	6b22      	ldr	r2, [r4, #48]	; 0x30
 80045f8:	8ee1      	ldrh	r1, [r4, #54]	; 0x36
 80045fa:	4e12      	ldr	r6, [pc, #72]	; (8004644 <DrawImagBitWithInChar+0x9c>)
 80045fc:	2301      	movs	r3, #1
 80045fe:	4628      	mov	r0, r5
 8004600:	e9cd 3200 	strd	r3, r2, [sp]
 8004604:	2218      	movs	r2, #24
 8004606:	47b0      	blx	r6
 8004608:	8ee0      	ldrh	r0, [r4, #54]	; 0x36
 800460a:	4405      	add	r5, r0
 800460c:	83e5      	strh	r5, [r4, #30]
 800460e:	e7e6      	b.n	80045de <DrawImagBitWithInChar+0x36>
 8004610:	8be5      	ldrh	r5, [r4, #30]
 8004612:	6b22      	ldr	r2, [r4, #48]	; 0x30
 8004614:	8ee1      	ldrh	r1, [r4, #54]	; 0x36
 8004616:	4e0b      	ldr	r6, [pc, #44]	; (8004644 <DrawImagBitWithInChar+0x9c>)
 8004618:	4628      	mov	r0, r5
 800461a:	e9cd 3200 	strd	r3, r2, [sp]
 800461e:	2208      	movs	r2, #8
 8004620:	47b0      	blx	r6
 8004622:	8ee0      	ldrh	r0, [r4, #54]	; 0x36
 8004624:	4405      	add	r5, r0
 8004626:	83e5      	strh	r5, [r4, #30]
 8004628:	e7d9      	b.n	80045de <DrawImagBitWithInChar+0x36>
 800462a:	8ee1      	ldrh	r1, [r4, #54]	; 0x36
 800462c:	6b22      	ldr	r2, [r4, #48]	; 0x30
 800462e:	8be5      	ldrh	r5, [r4, #30]
 8004630:	4e04      	ldr	r6, [pc, #16]	; (8004644 <DrawImagBitWithInChar+0x9c>)
 8004632:	0049      	lsls	r1, r1, #1
 8004634:	2301      	movs	r3, #1
 8004636:	e9cd 3200 	strd	r3, r2, [sp]
 800463a:	b289      	uxth	r1, r1
 800463c:	2218      	movs	r2, #24
 800463e:	e7c8      	b.n	80045d2 <DrawImagBitWithInChar+0x2a>
 8004640:	1fb8      	subs	r0, r7, #6
 8004642:	2000      	movs	r0, #0
 8004644:	44d9      	add	r9, fp
 8004646:	0800      	lsrs	r0, r0, #32
 8004648:	6ae5      	ldr	r5, [r4, #44]	; 0x2c
 800464a:	0800      	lsrs	r0, r0, #32

0800464c <PixelBufferInit>:
 800464c:	e92d 47f0 	stmdb	sp!, {r4, r5, r6, r7, r8, r9, sl, lr}
 8004650:	1dc5      	adds	r5, r0, #7
 8004652:	4c1b      	ldr	r4, [pc, #108]	; (80046c0 <PixelBufferInit+0x74>)
 8004654:	f8df 906c 	ldr.w	r9, [pc, #108]	; 80046c4 <PixelBufferInit+0x78>
 8004658:	8360      	strh	r0, [r4, #26]
 800465a:	10ed      	asrs	r5, r5, #3
 800465c:	fb01 f505 	mul.w	r5, r1, r5
 8004660:	2600      	movs	r6, #0
 8004662:	231e      	movs	r3, #30
 8004664:	f44f 7288 	mov.w	r2, #272	; 0x110
 8004668:	4628      	mov	r0, r5
 800466a:	83a1      	strh	r1, [r4, #28]
 800466c:	8323      	strh	r3, [r4, #24]
 800466e:	6223      	str	r3, [r4, #32]
 8004670:	6022      	str	r2, [r4, #0]
 8004672:	83e6      	strh	r6, [r4, #30]
 8004674:	f884 6024 	strb.w	r6, [r4, #36]	; 0x24
 8004678:	47c8      	blx	r9
 800467a:	4607      	mov	r7, r0
 800467c:	60a0      	str	r0, [r4, #8]
 800467e:	4628      	mov	r0, r5
 8004680:	47c8      	blx	r9
 8004682:	fa1f f885 	uxth.w	r8, r5
 8004686:	4603      	mov	r3, r0
 8004688:	6123      	str	r3, [r4, #16]
 800468a:	4d0f      	ldr	r5, [pc, #60]	; (80046c8 <PixelBufferInit+0x7c>)
 800468c:	4638      	mov	r0, r7
 800468e:	4642      	mov	r2, r8
 8004690:	4631      	mov	r1, r6
 8004692:	47a8      	blx	r5
 8004694:	6920      	ldr	r0, [r4, #16]
 8004696:	4642      	mov	r2, r8
 8004698:	4631      	mov	r1, r6
 800469a:	47a8      	blx	r5
 800469c:	4631      	mov	r1, r6
 800469e:	480b      	ldr	r0, [pc, #44]	; (80046cc <PixelBufferInit+0x80>)
 80046a0:	7326      	strb	r6, [r4, #12]
 80046a2:	f44f 5290 	mov.w	r2, #4608	; 0x1200
 80046a6:	7526      	strb	r6, [r4, #20]
 80046a8:	47a8      	blx	r5
 80046aa:	4631      	mov	r1, r6
 80046ac:	f104 0038 	add.w	r0, r4, #56	; 0x38
 80046b0:	62a6      	str	r6, [r4, #40]	; 0x28
 80046b2:	f884 602c 	strb.w	r6, [r4, #44]	; 0x2c
 80046b6:	4b06      	ldr	r3, [pc, #24]	; (80046d0 <PixelBufferInit+0x84>)
 80046b8:	e8bd 47f0 	ldmia.w	sp!, {r4, r5, r6, r7, r8, r9, sl, lr}
 80046bc:	2220      	movs	r2, #32
 80046be:	4718      	bx	r3
 80046c0:	1fb8      	subs	r0, r7, #6
 80046c2:	2000      	movs	r0, #0
 80046c4:	6ad5      	ldr	r5, [r2, #44]	; 0x2c
 80046c6:	0800      	lsrs	r0, r0, #32
 80046c8:	6a75      	ldr	r5, [r6, #36]	; 0x24
 80046ca:	0800      	lsrs	r0, r0, #32
 80046cc:	2024      	movs	r0, #36	; 0x24
 80046ce:	2000      	movs	r0, #0
 80046d0:	7055      	strb	r5, [r2, #1]
 80046d2:	0800      	lsrs	r0, r0, #32

080046d4 <getCurrentFont>:
 80046d4:	4b02      	ldr	r3, [pc, #8]	; (80046e0 <getCurrentFont+0xc>)
 80046d6:	7898      	ldrb	r0, [r3, #2]
 80046d8:	f3c0 0040 	ubfx	r0, r0, #1, #1
 80046dc:	4770      	bx	lr
 80046de:	bf00      	nop
 80046e0:	1fb8      	subs	r0, r7, #6
 80046e2:	2000      	movs	r0, #0

080046e4 <setDrawingSizeX>:
 80046e4:	4b02      	ldr	r3, [pc, #8]	; (80046f0 <setDrawingSizeX+0xc>)
 80046e6:	781a      	ldrb	r2, [r3, #0]
 80046e8:	f360 1207 	bfi	r2, r0, #4, #4
 80046ec:	701a      	strb	r2, [r3, #0]
 80046ee:	4770      	bx	lr
 80046f0:	1fb8      	subs	r0, r7, #6
 80046f2:	2000      	movs	r0, #0

080046f4 <setDrawingSizeY>:
 80046f4:	4b02      	ldr	r3, [pc, #8]	; (8004700 <setDrawingSizeY+0xc>)
 80046f6:	785a      	ldrb	r2, [r3, #1]
 80046f8:	f360 0203 	bfi	r2, r0, #0, #4
 80046fc:	705a      	strb	r2, [r3, #1]
 80046fe:	4770      	bx	lr
 8004700:	1fb8      	subs	r0, r7, #6
 8004702:	2000      	movs	r0, #0

08004704 <setDoubleStrike>:
 8004704:	4b02      	ldr	r3, [pc, #8]	; (8004710 <setDoubleStrike+0xc>)
 8004706:	789a      	ldrb	r2, [r3, #2]
 8004708:	f360 0200 	bfi	r2, r0, #0, #1
 800470c:	709a      	strb	r2, [r3, #2]
 800470e:	4770      	bx	lr
 8004710:	1fb8      	subs	r0, r7, #6
 8004712:	2000      	movs	r0, #0

08004714 <SetupSideDown>:
 8004714:	4b02      	ldr	r3, [pc, #8]	; (8004720 <SetupSideDown+0xc>)
 8004716:	789a      	ldrb	r2, [r3, #2]
 8004718:	f360 1204 	bfi	r2, r0, #4, #1
 800471c:	709a      	strb	r2, [r3, #2]
 800471e:	4770      	bx	lr
 8004720:	1fb8      	subs	r0, r7, #6
 8004722:	2000      	movs	r0, #0

08004724 <getupSizeDown>:
 8004724:	4b02      	ldr	r3, [pc, #8]	; (8004730 <getupSizeDown+0xc>)
 8004726:	7898      	ldrb	r0, [r3, #2]
 8004728:	f3c0 1000 	ubfx	r0, r0, #4, #1
 800472c:	4770      	bx	lr
 800472e:	bf00      	nop
 8004730:	1fb8      	subs	r0, r7, #6
 8004732:	2000      	movs	r0, #0

08004734 <setJustification>:
 8004734:	4b02      	ldr	r3, [pc, #8]	; (8004740 <setJustification+0xc>)
 8004736:	785a      	ldrb	r2, [r3, #1]
 8004738:	f360 1205 	bfi	r2, r0, #4, #2
 800473c:	705a      	strb	r2, [r3, #1]
 800473e:	4770      	bx	lr
 8004740:	1fb8      	subs	r0, r7, #6
 8004742:	2000      	movs	r0, #0

08004744 <setDrawingRotaion90>:
 8004744:	4b02      	ldr	r3, [pc, #8]	; (8004750 <setDrawingRotaion90+0xc>)
 8004746:	781a      	ldrb	r2, [r3, #0]
 8004748:	f360 02c3 	bfi	r2, r0, #3, #1
 800474c:	701a      	strb	r2, [r3, #0]
 800474e:	4770      	bx	lr
 8004750:	1fb8      	subs	r0, r7, #6
 8004752:	2000      	movs	r0, #0

08004754 <setDefaultLineSpace>:
 8004754:	4b01      	ldr	r3, [pc, #4]	; (800475c <setDefaultLineSpace+0x8>)
 8004756:	221e      	movs	r2, #30
 8004758:	831a      	strh	r2, [r3, #24]
 800475a:	4770      	bx	lr
 800475c:	1fb8      	subs	r0, r7, #6
 800475e:	2000      	movs	r0, #0

08004760 <setLineSpace>:
 8004760:	4b01      	ldr	r3, [pc, #4]	; (8004768 <setLineSpace+0x8>)
 8004762:	8318      	strh	r0, [r3, #24]
 8004764:	4770      	bx	lr
 8004766:	bf00      	nop
 8004768:	1fb8      	subs	r0, r7, #6
 800476a:	2000      	movs	r0, #0

0800476c <setCurrentFont>:
 800476c:	4b02      	ldr	r3, [pc, #8]	; (8004778 <setCurrentFont+0xc>)
 800476e:	789a      	ldrb	r2, [r3, #2]
 8004770:	f360 0242 	bfi	r2, r0, #1, #2
 8004774:	709a      	strb	r2, [r3, #2]
 8004776:	4770      	bx	lr
 8004778:	1fb8      	subs	r0, r7, #6
 800477a:	2000      	movs	r0, #0

0800477c <setCurrentUnderLine>:
 800477c:	4b02      	ldr	r3, [pc, #8]	; (8004788 <setCurrentUnderLine+0xc>)
 800477e:	781a      	ldrb	r2, [r3, #0]
 8004780:	f360 0201 	bfi	r2, r0, #0, #2
 8004784:	701a      	strb	r2, [r3, #0]
 8004786:	4770      	bx	lr
 8004788:	1fb8      	subs	r0, r7, #6
 800478a:	2000      	movs	r0, #0

0800478c <setCurrentBold>:
 800478c:	4b02      	ldr	r3, [pc, #8]	; (8004798 <setCurrentBold+0xc>)
 800478e:	781a      	ldrb	r2, [r3, #0]
 8004790:	f360 0282 	bfi	r2, r0, #2, #1
 8004794:	701a      	strb	r2, [r3, #0]
 8004796:	4770      	bx	lr
 8004798:	1fb8      	subs	r0, r7, #6
 800479a:	2000      	movs	r0, #0

0800479c <getLineSpace>:
 800479c:	4b01      	ldr	r3, [pc, #4]	; (80047a4 <getLineSpace+0x8>)
 800479e:	8b18      	ldrh	r0, [r3, #24]
 80047a0:	4770      	bx	lr
 80047a2:	bf00      	nop
 80047a4:	1fb8      	subs	r0, r7, #6
 80047a6:	2000      	movs	r0, #0

080047a8 <getMaxDotPerLine>:
 80047a8:	4b01      	ldr	r3, [pc, #4]	; (80047b0 <getMaxDotPerLine+0x8>)
 80047aa:	8b58      	ldrh	r0, [r3, #26]
 80047ac:	4770      	bx	lr
 80047ae:	bf00      	nop
 80047b0:	1fb8      	subs	r0, r7, #6
 80047b2:	2000      	movs	r0, #0

080047b4 <WriteChar>:
 80047b4:	4a83      	ldr	r2, [pc, #524]	; (80049c4 <WriteChar+0x210>)
 80047b6:	f892 302b 	ldrb.w	r3, [r2, #43]	; 0x2b
 80047ba:	eb02 03c3 	add.w	r3, r2, r3, lsl #3
 80047be:	7b1b      	ldrb	r3, [r3, #12]
 80047c0:	2b00      	cmp	r3, #0
 80047c2:	f040 80fd 	bne.w	80049c0 <WriteChar+0x20c>
 80047c6:	e92d 4ff0 	stmdb	sp!, {r4, r5, r6, r7, r8, r9, sl, fp, lr}
 80047ca:	f892 2035 	ldrb.w	r2, [r2, #53]	; 0x35
 80047ce:	b08b      	sub	sp, #44	; 0x2c
 80047d0:	4604      	mov	r4, r0
 80047d2:	2a00      	cmp	r2, #0
 80047d4:	f040 80c9 	bne.w	800496a <WriteChar+0x1b6>
 80047d8:	4b7b      	ldr	r3, [pc, #492]	; (80049c8 <WriteChar+0x214>)
 80047da:	4d7a      	ldr	r5, [pc, #488]	; (80049c4 <WriteChar+0x210>)
 80047dc:	4620      	mov	r0, r4
 80047de:	4798      	blx	r3
 80047e0:	2800      	cmp	r0, #0
 80047e2:	f000 80a5 	beq.w	8004930 <WriteChar+0x17c>
 80047e6:	6869      	ldr	r1, [r5, #4]
 80047e8:	4b78      	ldr	r3, [pc, #480]	; (80049cc <WriteChar+0x218>)
 80047ea:	4620      	mov	r0, r4
 80047ec:	4798      	blx	r3
 80047ee:	4b78      	ldr	r3, [pc, #480]	; (80049d0 <WriteChar+0x21c>)
 80047f0:	4798      	blx	r3
 80047f2:	686b      	ldr	r3, [r5, #4]
 80047f4:	9308      	str	r3, [sp, #32]
 80047f6:	4d73      	ldr	r5, [pc, #460]	; (80049c4 <WriteChar+0x210>)
 80047f8:	782b      	ldrb	r3, [r5, #0]
 80047fa:	071a      	lsls	r2, r3, #28
 80047fc:	f140 80aa 	bpl.w	8004954 <WriteChar+0x1a0>
 8004800:	786b      	ldrb	r3, [r5, #1]
 8004802:	f003 020f 	and.w	r2, r3, #15
 8004806:	9b08      	ldr	r3, [sp, #32]
 8004808:	f9b3 1008 	ldrsh.w	r1, [r3, #8]
 800480c:	f895 3024 	ldrb.w	r3, [r5, #36]	; 0x24
 8004810:	fb01 3302 	mla	r3, r1, r2, r3
 8004814:	b29b      	uxth	r3, r3
 8004816:	496b      	ldr	r1, [pc, #428]	; (80049c4 <WriteChar+0x210>)
 8004818:	8bcd      	ldrh	r5, [r1, #30]
 800481a:	9503      	str	r5, [sp, #12]
 800481c:	195a      	adds	r2, r3, r5
 800481e:	8b4b      	ldrh	r3, [r1, #26]
 8004820:	9209      	str	r2, [sp, #36]	; 0x24
 8004822:	429a      	cmp	r2, r3
 8004824:	f300 80ae 	bgt.w	8004984 <WriteChar+0x1d0>
 8004828:	9f08      	ldr	r7, [sp, #32]
 800482a:	784a      	ldrb	r2, [r1, #1]
 800482c:	f891 b000 	ldrb.w	fp, [r1]
 8004830:	f8b7 a004 	ldrh.w	sl, [r7, #4]
 8004834:	3307      	adds	r3, #7
 8004836:	f002 0e0f 	and.w	lr, r2, #15
 800483a:	10de      	asrs	r6, r3, #3
 800483c:	68fa      	ldr	r2, [r7, #12]
 800483e:	68bb      	ldr	r3, [r7, #8]
 8004840:	9606      	str	r6, [sp, #24]
 8004842:	1a20      	subs	r0, r4, r0
 8004844:	fa1f fc83 	uxth.w	ip, r3
 8004848:	fb02 f200 	mul.w	r2, r2, r0
 800484c:	460c      	mov	r4, r1
 800484e:	8b89      	ldrh	r1, [r1, #28]
 8004850:	9205      	str	r2, [sp, #20]
 8004852:	f10c 0207 	add.w	r2, ip, #7
 8004856:	10d2      	asrs	r2, r2, #3
 8004858:	fb0c 1c1e 	mls	ip, ip, lr, r1
 800485c:	ea4f 1b1b 	mov.w	fp, fp, lsr #4
 8004860:	9200      	str	r2, [sp, #0]
 8004862:	4561      	cmp	r1, ip
 8004864:	683a      	ldr	r2, [r7, #0]
 8004866:	f8cd e008 	str.w	lr, [sp, #8]
 800486a:	fb0b 5a0a 	mla	sl, fp, sl, r5
 800486e:	9204      	str	r2, [sp, #16]
 8004870:	d94e      	bls.n	8004910 <WriteChar+0x15c>
 8004872:	45aa      	cmp	sl, r5
 8004874:	f894 202b 	ldrb.w	r2, [r4, #43]	; 0x2b
 8004878:	d94a      	bls.n	8004910 <WriteChar+0x15c>
 800487a:	3201      	adds	r2, #1
 800487c:	eba1 030c 	sub.w	r3, r1, ip
 8004880:	9307      	str	r3, [sp, #28]
 8004882:	f854 4032 	ldr.w	r4, [r4, r2, lsl #3]
 8004886:	2300      	movs	r3, #0
 8004888:	fb06 fc0c 	mul.w	ip, r6, ip
 800488c:	ebaa 0a05 	sub.w	sl, sl, r5
 8004890:	9301      	str	r3, [sp, #4]
 8004892:	f04f 0e80 	mov.w	lr, #128	; 0x80
 8004896:	e9dd 3201 	ldrd	r3, r2, [sp, #4]
 800489a:	fbb3 f8f2 	udiv	r8, r3, r2
 800489e:	9b05      	ldr	r3, [sp, #20]
 80048a0:	f008 0907 	and.w	r9, r8, #7
 80048a4:	eb03 08d8 	add.w	r8, r3, r8, lsr #3
 80048a8:	2301      	movs	r3, #1
 80048aa:	fa03 f909 	lsl.w	r9, r3, r9
 80048ae:	9b04      	ldr	r3, [sp, #16]
 80048b0:	2100      	movs	r1, #0
 80048b2:	4498      	add	r8, r3
 80048b4:	9b03      	ldr	r3, [sp, #12]
 80048b6:	e007      	b.n	80048c8 <WriteChar+0x114>
 80048b8:	5da0      	ldrb	r0, [r4, r6]
 80048ba:	3101      	adds	r1, #1
 80048bc:	4302      	orrs	r2, r0
 80048be:	4551      	cmp	r1, sl
 80048c0:	55a2      	strb	r2, [r4, r6]
 80048c2:	f103 0301 	add.w	r3, r3, #1
 80048c6:	d019      	beq.n	80048fc <WriteChar+0x148>
 80048c8:	fbb1 f2fb 	udiv	r2, r1, fp
 80048cc:	9800      	ldr	r0, [sp, #0]
 80048ce:	fb00 f202 	mul.w	r2, r0, r2
 80048d2:	eb0c 06d3 	add.w	r6, ip, r3, lsr #3
 80048d6:	f818 7002 	ldrb.w	r7, [r8, r2]
 80048da:	f003 0207 	and.w	r2, r3, #7
 80048de:	fa4e f202 	asr.w	r2, lr, r2
 80048e2:	ea17 0f09 	tst.w	r7, r9
 80048e6:	4610      	mov	r0, r2
 80048e8:	d1e6      	bne.n	80048b8 <WriteChar+0x104>
 80048ea:	5da2      	ldrb	r2, [r4, r6]
 80048ec:	3101      	adds	r1, #1
 80048ee:	ea22 0000 	bic.w	r0, r2, r0
 80048f2:	4551      	cmp	r1, sl
 80048f4:	55a0      	strb	r0, [r4, r6]
 80048f6:	f103 0301 	add.w	r3, r3, #1
 80048fa:	d1e5      	bne.n	80048c8 <WriteChar+0x114>
 80048fc:	9a06      	ldr	r2, [sp, #24]
 80048fe:	9b01      	ldr	r3, [sp, #4]
 8004900:	4494      	add	ip, r2
 8004902:	9a07      	ldr	r2, [sp, #28]
 8004904:	3301      	adds	r3, #1
 8004906:	4293      	cmp	r3, r2
 8004908:	9301      	str	r3, [sp, #4]
 800490a:	d1c4      	bne.n	8004896 <WriteChar+0xe2>
 800490c:	9b08      	ldr	r3, [sp, #32]
 800490e:	689b      	ldr	r3, [r3, #8]
 8004910:	482c      	ldr	r0, [pc, #176]	; (80049c4 <WriteChar+0x210>)
 8004912:	9902      	ldr	r1, [sp, #8]
 8004914:	8c02      	ldrh	r2, [r0, #32]
 8004916:	fb01 f303 	mul.w	r3, r1, r3
 800491a:	4293      	cmp	r3, r2
 800491c:	bf38      	it	cc
 800491e:	4613      	movcc	r3, r2
 8004920:	9909      	ldr	r1, [sp, #36]	; 0x24
 8004922:	4a2c      	ldr	r2, [pc, #176]	; (80049d4 <WriteChar+0x220>)
 8004924:	83c1      	strh	r1, [r0, #30]
 8004926:	8403      	strh	r3, [r0, #32]
 8004928:	b00b      	add	sp, #44	; 0x2c
 800492a:	e8bd 4ff0 	ldmia.w	sp!, {r4, r5, r6, r7, r8, r9, sl, fp, lr}
 800492e:	4710      	bx	r2
 8004930:	78a8      	ldrb	r0, [r5, #2]
 8004932:	4b29      	ldr	r3, [pc, #164]	; (80049d8 <WriteChar+0x224>)
 8004934:	f3c0 0041 	ubfx	r0, r0, #1, #2
 8004938:	4798      	blx	r3
 800493a:	f1a4 0320 	sub.w	r3, r4, #32
 800493e:	2b5f      	cmp	r3, #95	; 0x5f
 8004940:	9008      	str	r0, [sp, #32]
 8004942:	6068      	str	r0, [r5, #4]
 8004944:	d833      	bhi.n	80049ae <WriteChar+0x1fa>
 8004946:	4d1f      	ldr	r5, [pc, #124]	; (80049c4 <WriteChar+0x210>)
 8004948:	782b      	ldrb	r3, [r5, #0]
 800494a:	071a      	lsls	r2, r3, #28
 800494c:	f04f 0020 	mov.w	r0, #32
 8004950:	f53f af56 	bmi.w	8004800 <WriteChar+0x4c>
 8004954:	091a      	lsrs	r2, r3, #4
 8004956:	9b08      	ldr	r3, [sp, #32]
 8004958:	f9b3 1004 	ldrsh.w	r1, [r3, #4]
 800495c:	4b19      	ldr	r3, [pc, #100]	; (80049c4 <WriteChar+0x210>)
 800495e:	f893 3024 	ldrb.w	r3, [r3, #36]	; 0x24
 8004962:	fb01 3302 	mla	r3, r1, r2, r3
 8004966:	b29b      	uxth	r3, r3
 8004968:	e755      	b.n	8004816 <WriteChar+0x62>
 800496a:	4916      	ldr	r1, [pc, #88]	; (80049c4 <WriteChar+0x210>)
 800496c:	4a1b      	ldr	r2, [pc, #108]	; (80049dc <WriteChar+0x228>)
 800496e:	f881 3035 	strb.w	r3, [r1, #53]	; 0x35
 8004972:	4790      	blx	r2
 8004974:	4b14      	ldr	r3, [pc, #80]	; (80049c8 <WriteChar+0x214>)
 8004976:	4d13      	ldr	r5, [pc, #76]	; (80049c4 <WriteChar+0x210>)
 8004978:	4620      	mov	r0, r4
 800497a:	4798      	blx	r3
 800497c:	2800      	cmp	r0, #0
 800497e:	f47f af32 	bne.w	80047e6 <WriteChar+0x32>
 8004982:	e7d5      	b.n	8004930 <WriteChar+0x17c>
 8004984:	4c0f      	ldr	r4, [pc, #60]	; (80049c4 <WriteChar+0x210>)
 8004986:	f894 302b 	ldrb.w	r3, [r4, #43]	; 0x2b
 800498a:	eb04 02c3 	add.w	r2, r4, r3, lsl #3
 800498e:	2001      	movs	r0, #1
 8004990:	7310      	strb	r0, [r2, #12]
 8004992:	2100      	movs	r1, #0
 8004994:	f083 0301 	eor.w	r3, r3, #1
 8004998:	8c20      	ldrh	r0, [r4, #32]
 800499a:	4a11      	ldr	r2, [pc, #68]	; (80049e0 <WriteChar+0x22c>)
 800499c:	f884 1028 	strb.w	r1, [r4, #40]	; 0x28
 80049a0:	f884 302b 	strb.w	r3, [r4, #43]	; 0x2b
 80049a4:	4790      	blx	r2
 80049a6:	b930      	cbnz	r0, 80049b6 <WriteChar+0x202>
 80049a8:	b00b      	add	sp, #44	; 0x2c
 80049aa:	e8bd 8ff0 	ldmia.w	sp!, {r4, r5, r6, r7, r8, r9, sl, fp, pc}
 80049ae:	4b0d      	ldr	r3, [pc, #52]	; (80049e4 <WriteChar+0x230>)
 80049b0:	6003      	str	r3, [r0, #0]
 80049b2:	2080      	movs	r0, #128	; 0x80
 80049b4:	e71f      	b.n	80047f6 <WriteChar+0x42>
 80049b6:	8c62      	ldrh	r2, [r4, #34]	; 0x22
 80049b8:	8b23      	ldrh	r3, [r4, #24]
 80049ba:	83e2      	strh	r2, [r4, #30]
 80049bc:	8423      	strh	r3, [r4, #32]
 80049be:	e7f3      	b.n	80049a8 <WriteChar+0x1f4>
 80049c0:	4770      	bx	lr
 80049c2:	bf00      	nop
 80049c4:	1fb8      	subs	r0, r7, #6
 80049c6:	2000      	movs	r0, #0
 80049c8:	550d      	strb	r5, [r1, r4]
 80049ca:	0800      	lsrs	r0, r0, #32
 80049cc:	53e1      	strh	r1, [r4, r7]
 80049ce:	0800      	lsrs	r0, r0, #32
 80049d0:	5415      	strb	r5, [r2, r0]
 80049d2:	0800      	lsrs	r0, r0, #32
 80049d4:	2cb1      	cmp	r4, #177	; 0xb1
 80049d6:	0800      	lsrs	r0, r0, #32
 80049d8:	6a81      	ldr	r1, [r0, #40]	; 0x28
 80049da:	0800      	lsrs	r0, r0, #32
 80049dc:	45a9      	cmp	r9, r5
 80049de:	0800      	lsrs	r0, r0, #32
 80049e0:	40d1      	lsrs	r1, r2
 80049e2:	0800      	lsrs	r0, r0, #32
 80049e4:	2024      	movs	r0, #36	; 0x24
 80049e6:	2000      	movs	r0, #0

080049e8 <getLineFromPuffer>:
 80049e8:	4a05      	ldr	r2, [pc, #20]	; (8004a00 <getLineFromPuffer+0x18>)
 80049ea:	f892 102c 	ldrb.w	r1, [r2, #44]	; 0x2c
 80049ee:	8b53      	ldrh	r3, [r2, #26]
 80049f0:	3101      	adds	r1, #1
 80049f2:	f3c3 03c7 	ubfx	r3, r3, #3, #8
 80049f6:	f852 2031 	ldr.w	r2, [r2, r1, lsl #3]
 80049fa:	fb03 2000 	mla	r0, r3, r0, r2
 80049fe:	4770      	bx	lr
 8004a00:	1fb8      	subs	r0, r7, #6
 8004a02:	2000      	movs	r0, #0

08004a04 <setSpaceBetweenChar>:
 8004a04:	4b04      	ldr	r3, [pc, #16]	; (8004a18 <setSpaceBetweenChar+0x14>)
 8004a06:	781a      	ldrb	r2, [r3, #0]
 8004a08:	2a1f      	cmp	r2, #31
 8004a0a:	bf84      	itt	hi
 8004a0c:	0040      	lslhi	r0, r0, #1
 8004a0e:	b2c0      	uxtbhi	r0, r0
 8004a10:	f883 0024 	strb.w	r0, [r3, #36]	; 0x24
 8004a14:	4770      	bx	lr
 8004a16:	bf00      	nop
 8004a18:	1fb8      	subs	r0, r7, #6
 8004a1a:	2000      	movs	r0, #0

08004a1c <WriteBitImage>:
 8004a1c:	e92d 4ff0 	stmdb	sp!, {r4, r5, r6, r7, r8, r9, sl, fp, lr}
 8004a20:	f1a0 0320 	sub.w	r3, r0, #32
 8004a24:	b085      	sub	sp, #20
 8004a26:	2b01      	cmp	r3, #1
 8004a28:	9002      	str	r0, [sp, #8]
 8004a2a:	9101      	str	r1, [sp, #4]
 8004a2c:	4615      	mov	r5, r2
 8004a2e:	f240 811f 	bls.w	8004c70 <WriteBitImage+0x254>
 8004a32:	2601      	movs	r6, #1
 8004a34:	4637      	mov	r7, r6
 8004a36:	2800      	cmp	r0, #0
 8004a38:	f040 811c 	bne.w	8004c74 <WriteBitImage+0x258>
 8004a3c:	9603      	str	r6, [sp, #12]
 8004a3e:	f8dd 8004 	ldr.w	r8, [sp, #4]
 8004a42:	4b93      	ldr	r3, [pc, #588]	; (8004c90 <WriteBitImage+0x274>)
 8004a44:	4c93      	ldr	r4, [pc, #588]	; (8004c94 <WriteBitImage+0x278>)
 8004a46:	fb06 f008 	mul.w	r0, r6, r8
 8004a4a:	4798      	blx	r3
 8004a4c:	6320      	str	r0, [r4, #48]	; 0x30
 8004a4e:	2800      	cmp	r0, #0
 8004a50:	f000 811a 	beq.w	8004c88 <WriteBitImage+0x26c>
 8004a54:	4643      	mov	r3, r8
 8004a56:	2b00      	cmp	r3, #0
 8004a58:	f000 80ee 	beq.w	8004c38 <WriteBitImage+0x21c>
 8004a5c:	f106 3eff 	add.w	lr, r6, #4294967295
 8004a60:	2202      	movs	r2, #2
 8004a62:	f04f 0800 	mov.w	r8, #0
 8004a66:	e0cc      	b.n	8004c02 <WriteBitImage+0x1e6>
 8004a68:	f04f 0940 	mov.w	r9, #64	; 0x40
 8004a6c:	46cb      	mov	fp, r9
 8004a6e:	469c      	mov	ip, r3
 8004a70:	f001 0a02 	and.w	sl, r1, #2
 8004a74:	f1ba 0f00 	cmp.w	sl, #0
 8004a78:	bf1c      	itt	ne
 8004a7a:	46dc      	movne	ip, fp
 8004a7c:	464b      	movne	r3, r9
 8004a7e:	f011 0f04 	tst.w	r1, #4
 8004a82:	d004      	beq.n	8004a8e <WriteBitImage+0x72>
 8004a84:	f04c 0320 	orr.w	r3, ip, #32
 8004a88:	fa4f fc83 	sxtb.w	ip, r3
 8004a8c:	b2db      	uxtb	r3, r3
 8004a8e:	f011 0f08 	tst.w	r1, #8
 8004a92:	d004      	beq.n	8004a9e <WriteBitImage+0x82>
 8004a94:	f04c 0310 	orr.w	r3, ip, #16
 8004a98:	fa4f fc83 	sxtb.w	ip, r3
 8004a9c:	b2db      	uxtb	r3, r3
 8004a9e:	f011 0f10 	tst.w	r1, #16
 8004aa2:	d004      	beq.n	8004aae <WriteBitImage+0x92>
 8004aa4:	f04c 0308 	orr.w	r3, ip, #8
 8004aa8:	fa4f fc83 	sxtb.w	ip, r3
 8004aac:	b2db      	uxtb	r3, r3
 8004aae:	f011 0f20 	tst.w	r1, #32
 8004ab2:	d004      	beq.n	8004abe <WriteBitImage+0xa2>
 8004ab4:	f04c 0304 	orr.w	r3, ip, #4
 8004ab8:	fa4f fc83 	sxtb.w	ip, r3
 8004abc:	b2db      	uxtb	r3, r3
 8004abe:	f011 0f40 	tst.w	r1, #64	; 0x40
 8004ac2:	d004      	beq.n	8004ace <WriteBitImage+0xb2>
 8004ac4:	f04c 0302 	orr.w	r3, ip, #2
 8004ac8:	fa4f fc83 	sxtb.w	ip, r3
 8004acc:	b2db      	uxtb	r3, r3
 8004ace:	09c9      	lsrs	r1, r1, #7
 8004ad0:	bf18      	it	ne
 8004ad2:	f04c 0301 	orrne.w	r3, ip, #1
 8004ad6:	4410      	add	r0, r2
 8004ad8:	bf18      	it	ne
 8004ada:	b2db      	uxtbne	r3, r3
 8004adc:	2f01      	cmp	r7, #1
 8004ade:	f800 3c02 	strb.w	r3, [r0, #-2]
 8004ae2:	f000 8084 	beq.w	8004bee <WriteBitImage+0x1d2>
 8004ae6:	68ab      	ldr	r3, [r5, #8]
 8004ae8:	f8d4 c030 	ldr.w	ip, [r4, #48]	; 0x30
 8004aec:	4473      	add	r3, lr
 8004aee:	f813 1c01 	ldrb.w	r1, [r3, #-1]
 8004af2:	f011 0301 	ands.w	r3, r1, #1
 8004af6:	f040 8093 	bne.w	8004c20 <WriteBitImage+0x204>
 8004afa:	f04f 0940 	mov.w	r9, #64	; 0x40
 8004afe:	46ca      	mov	sl, r9
 8004b00:	4618      	mov	r0, r3
 8004b02:	f001 0b02 	and.w	fp, r1, #2
 8004b06:	f1bb 0f00 	cmp.w	fp, #0
 8004b0a:	bf1c      	itt	ne
 8004b0c:	4650      	movne	r0, sl
 8004b0e:	464b      	movne	r3, r9
 8004b10:	f011 0f04 	tst.w	r1, #4
 8004b14:	d003      	beq.n	8004b1e <WriteBitImage+0x102>
 8004b16:	f040 0320 	orr.w	r3, r0, #32
 8004b1a:	b258      	sxtb	r0, r3
 8004b1c:	b2db      	uxtb	r3, r3
 8004b1e:	f011 0f08 	tst.w	r1, #8
 8004b22:	d003      	beq.n	8004b2c <WriteBitImage+0x110>
 8004b24:	f040 0310 	orr.w	r3, r0, #16
 8004b28:	b258      	sxtb	r0, r3
 8004b2a:	b2db      	uxtb	r3, r3
 8004b2c:	f011 0f10 	tst.w	r1, #16
 8004b30:	d003      	beq.n	8004b3a <WriteBitImage+0x11e>
 8004b32:	f040 0308 	orr.w	r3, r0, #8
 8004b36:	b258      	sxtb	r0, r3
 8004b38:	b2db      	uxtb	r3, r3
 8004b3a:	f011 0f20 	tst.w	r1, #32
 8004b3e:	d003      	beq.n	8004b48 <WriteBitImage+0x12c>
 8004b40:	f040 0304 	orr.w	r3, r0, #4
 8004b44:	b258      	sxtb	r0, r3
 8004b46:	b2db      	uxtb	r3, r3
 8004b48:	f011 0f40 	tst.w	r1, #64	; 0x40
 8004b4c:	d003      	beq.n	8004b56 <WriteBitImage+0x13a>
 8004b4e:	f040 0302 	orr.w	r3, r0, #2
 8004b52:	b258      	sxtb	r0, r3
 8004b54:	b2db      	uxtb	r3, r3
 8004b56:	09c9      	lsrs	r1, r1, #7
 8004b58:	bf18      	it	ne
 8004b5a:	f040 0301 	orrne.w	r3, r0, #1
 8004b5e:	4494      	add	ip, r2
 8004b60:	bf18      	it	ne
 8004b62:	b2db      	uxtbne	r3, r3
 8004b64:	2f03      	cmp	r7, #3
 8004b66:	f80c 3c01 	strb.w	r3, [ip, #-1]
 8004b6a:	d140      	bne.n	8004bee <WriteBitImage+0x1d2>
 8004b6c:	68ab      	ldr	r3, [r5, #8]
 8004b6e:	f8d4 9030 	ldr.w	r9, [r4, #48]	; 0x30
 8004b72:	4473      	add	r3, lr
 8004b74:	f813 1c02 	ldrb.w	r1, [r3, #-2]
 8004b78:	f011 0c01 	ands.w	ip, r1, #1
 8004b7c:	d058      	beq.n	8004c30 <WriteBitImage+0x214>
 8004b7e:	23c0      	movs	r3, #192	; 0xc0
 8004b80:	f06f 003f 	mvn.w	r0, #63	; 0x3f
 8004b84:	f06f 0a7f 	mvn.w	sl, #127	; 0x7f
 8004b88:	f04f 0c80 	mov.w	ip, #128	; 0x80
 8004b8c:	f001 0b02 	and.w	fp, r1, #2
 8004b90:	f1bb 0f00 	cmp.w	fp, #0
 8004b94:	bf04      	itt	eq
 8004b96:	4650      	moveq	r0, sl
 8004b98:	4663      	moveq	r3, ip
 8004b9a:	f011 0f04 	tst.w	r1, #4
 8004b9e:	d003      	beq.n	8004ba8 <WriteBitImage+0x18c>
 8004ba0:	f040 0320 	orr.w	r3, r0, #32
 8004ba4:	b258      	sxtb	r0, r3
 8004ba6:	b2db      	uxtb	r3, r3
 8004ba8:	f011 0f08 	tst.w	r1, #8
 8004bac:	d003      	beq.n	8004bb6 <WriteBitImage+0x19a>
 8004bae:	f040 0310 	orr.w	r3, r0, #16
 8004bb2:	b258      	sxtb	r0, r3
 8004bb4:	b2db      	uxtb	r3, r3
 8004bb6:	f011 0f10 	tst.w	r1, #16
 8004bba:	d003      	beq.n	8004bc4 <WriteBitImage+0x1a8>
 8004bbc:	f040 0308 	orr.w	r3, r0, #8
 8004bc0:	b258      	sxtb	r0, r3
 8004bc2:	b2db      	uxtb	r3, r3
 8004bc4:	f011 0f20 	tst.w	r1, #32
 8004bc8:	d003      	beq.n	8004bd2 <WriteBitImage+0x1b6>
 8004bca:	f040 0304 	orr.w	r3, r0, #4
 8004bce:	b258      	sxtb	r0, r3
 8004bd0:	b2db      	uxtb	r3, r3
 8004bd2:	f011 0f40 	tst.w	r1, #64	; 0x40
 8004bd6:	d003      	beq.n	8004be0 <WriteBitImage+0x1c4>
 8004bd8:	f040 0302 	orr.w	r3, r0, #2
 8004bdc:	b258      	sxtb	r0, r3
 8004bde:	b2db      	uxtb	r3, r3
 8004be0:	09c9      	lsrs	r1, r1, #7
 8004be2:	bf1c      	itt	ne
 8004be4:	f040 0301 	orrne.w	r3, r0, #1
 8004be8:	b2db      	uxtbne	r3, r3
 8004bea:	f809 3002 	strb.w	r3, [r9, r2]
 8004bee:	9901      	ldr	r1, [sp, #4]
 8004bf0:	f108 0801 	add.w	r8, r8, #1
 8004bf4:	fa1f f388 	uxth.w	r3, r8
 8004bf8:	4299      	cmp	r1, r3
 8004bfa:	44b6      	add	lr, r6
 8004bfc:	4432      	add	r2, r6
 8004bfe:	d91b      	bls.n	8004c38 <WriteBitImage+0x21c>
 8004c00:	6b20      	ldr	r0, [r4, #48]	; 0x30
 8004c02:	68ab      	ldr	r3, [r5, #8]
 8004c04:	f813 100e 	ldrb.w	r1, [r3, lr]
 8004c08:	f011 0301 	ands.w	r3, r1, #1
 8004c0c:	f43f af2c 	beq.w	8004a68 <WriteBitImage+0x4c>
 8004c10:	f04f 09c0 	mov.w	r9, #192	; 0xc0
 8004c14:	f06f 0b3f 	mvn.w	fp, #63	; 0x3f
 8004c18:	f06f 0c7f 	mvn.w	ip, #127	; 0x7f
 8004c1c:	2380      	movs	r3, #128	; 0x80
 8004c1e:	e727      	b.n	8004a70 <WriteBitImage+0x54>
 8004c20:	f04f 09c0 	mov.w	r9, #192	; 0xc0
 8004c24:	f06f 0a3f 	mvn.w	sl, #63	; 0x3f
 8004c28:	f06f 007f 	mvn.w	r0, #127	; 0x7f
 8004c2c:	2380      	movs	r3, #128	; 0x80
 8004c2e:	e768      	b.n	8004b02 <WriteBitImage+0xe6>
 8004c30:	2340      	movs	r3, #64	; 0x40
 8004c32:	4618      	mov	r0, r3
 8004c34:	46e2      	mov	sl, ip
 8004c36:	e7a9      	b.n	8004b8c <WriteBitImage+0x170>
 8004c38:	9e01      	ldr	r6, [sp, #4]
 8004c3a:	4b17      	ldr	r3, [pc, #92]	; (8004c98 <WriteBitImage+0x27c>)
 8004c3c:	fb17 f106 	smulbb	r1, r7, r6
 8004c40:	b289      	uxth	r1, r1
 8004c42:	4628      	mov	r0, r5
 8004c44:	4798      	blx	r3
 8004c46:	9902      	ldr	r1, [sp, #8]
 8004c48:	9b03      	ldr	r3, [sp, #12]
 8004c4a:	f884 1034 	strb.w	r1, [r4, #52]	; 0x34
 8004c4e:	8be1      	ldrh	r1, [r4, #30]
 8004c50:	86e6      	strh	r6, [r4, #54]	; 0x36
 8004c52:	fa06 f303 	lsl.w	r3, r6, r3
 8004c56:	fa11 f383 	uxtah	r3, r1, r3
 8004c5a:	8b61      	ldrh	r1, [r4, #26]
 8004c5c:	2200      	movs	r2, #0
 8004c5e:	428b      	cmp	r3, r1
 8004c60:	f884 2035 	strb.w	r2, [r4, #53]	; 0x35
 8004c64:	dc0e      	bgt.n	8004c84 <WriteBitImage+0x268>
 8004c66:	4b0d      	ldr	r3, [pc, #52]	; (8004c9c <WriteBitImage+0x280>)
 8004c68:	b005      	add	sp, #20
 8004c6a:	e8bd 4ff0 	ldmia.w	sp!, {r4, r5, r6, r7, r8, r9, sl, fp, lr}
 8004c6e:	4718      	bx	r3
 8004c70:	2603      	movs	r6, #3
 8004c72:	4637      	mov	r7, r6
 8004c74:	4603      	mov	r3, r0
 8004c76:	f1a3 0320 	sub.w	r3, r3, #32
 8004c7a:	fab3 f383 	clz	r3, r3
 8004c7e:	095b      	lsrs	r3, r3, #5
 8004c80:	9303      	str	r3, [sp, #12]
 8004c82:	e6dc      	b.n	8004a3e <WriteBitImage+0x22>
 8004c84:	f884 2028 	strb.w	r2, [r4, #40]	; 0x28
 8004c88:	b005      	add	sp, #20
 8004c8a:	e8bd 8ff0 	ldmia.w	sp!, {r4, r5, r6, r7, r8, r9, sl, fp, pc}
 8004c8e:	bf00      	nop
 8004c90:	6ad5      	ldr	r5, [r2, #44]	; 0x2c
 8004c92:	0800      	lsrs	r0, r0, #32
 8004c94:	1fb8      	subs	r0, r7, #6
 8004c96:	2000      	movs	r0, #0
 8004c98:	3c29      	subs	r4, #41	; 0x29
 8004c9a:	0800      	lsrs	r0, r0, #32
 8004c9c:	45a9      	cmp	r9, r5
 8004c9e:	0800      	lsrs	r0, r0, #32

08004ca0 <fillTabBuffer>:
 8004ca0:	291f      	cmp	r1, #31
 8004ca2:	d80a      	bhi.n	8004cba <fillTabBuffer+0x1a>
 8004ca4:	2820      	cmp	r0, #32
 8004ca6:	d808      	bhi.n	8004cba <fillTabBuffer+0x1a>
 8004ca8:	4b05      	ldr	r3, [pc, #20]	; (8004cc0 <fillTabBuffer+0x20>)
 8004caa:	1c4a      	adds	r2, r1, #1
 8004cac:	4419      	add	r1, r3
 8004cae:	f883 2029 	strb.w	r2, [r3, #41]	; 0x29
 8004cb2:	f881 0038 	strb.w	r0, [r1, #56]	; 0x38
 8004cb6:	2001      	movs	r0, #1
 8004cb8:	4770      	bx	lr
 8004cba:	2000      	movs	r0, #0
 8004cbc:	4770      	bx	lr
 8004cbe:	bf00      	nop
 8004cc0:	1fb8      	subs	r0, r7, #6
 8004cc2:	2000      	movs	r0, #0

08004cc4 <TabPorcess>:
 8004cc4:	b430      	push	{r4, r5}
 8004cc6:	4b17      	ldr	r3, [pc, #92]	; (8004d24 <TabPorcess+0x60>)
 8004cc8:	f893 4029 	ldrb.w	r4, [r3, #41]	; 0x29
 8004ccc:	f893 0028 	ldrb.w	r0, [r3, #40]	; 0x28
 8004cd0:	bb24      	cbnz	r4, 8004d1c <TabPorcess+0x58>
 8004cd2:	00c2      	lsls	r2, r0, #3
 8004cd4:	3208      	adds	r2, #8
 8004cd6:	2420      	movs	r4, #32
 8004cd8:	b2d1      	uxtb	r1, r2
 8004cda:	b1c1      	cbz	r1, 8004d0e <TabPorcess+0x4a>
 8004cdc:	685a      	ldr	r2, [r3, #4]
 8004cde:	6855      	ldr	r5, [r2, #4]
 8004ce0:	781a      	ldrb	r2, [r3, #0]
 8004ce2:	ea4f 1c12 	mov.w	ip, r2, lsr #4
 8004ce6:	f893 2024 	ldrb.w	r2, [r3, #36]	; 0x24
 8004cea:	fb05 220c 	mla	r2, r5, ip, r2
 8004cee:	fb12 f201 	smulbb	r2, r2, r1
 8004cf2:	8bd9      	ldrh	r1, [r3, #30]
 8004cf4:	b292      	uxth	r2, r2
 8004cf6:	4291      	cmp	r1, r2
 8004cf8:	d20b      	bcs.n	8004d12 <TabPorcess+0x4e>
 8004cfa:	8c59      	ldrh	r1, [r3, #34]	; 0x22
 8004cfc:	3001      	adds	r0, #1
 8004cfe:	440a      	add	r2, r1
 8004d00:	fbb0 f1f4 	udiv	r1, r0, r4
 8004d04:	fb04 0011 	mls	r0, r4, r1, r0
 8004d08:	83da      	strh	r2, [r3, #30]
 8004d0a:	f883 0028 	strb.w	r0, [r3, #40]	; 0x28
 8004d0e:	bc30      	pop	{r4, r5}
 8004d10:	4770      	bx	lr
 8004d12:	2200      	movs	r2, #0
 8004d14:	f883 2028 	strb.w	r2, [r3, #40]	; 0x28
 8004d18:	bc30      	pop	{r4, r5}
 8004d1a:	4770      	bx	lr
 8004d1c:	181a      	adds	r2, r3, r0
 8004d1e:	f892 1038 	ldrb.w	r1, [r2, #56]	; 0x38
 8004d22:	e7da      	b.n	8004cda <TabPorcess+0x16>
 8004d24:	1fb8      	subs	r0, r7, #6
 8004d26:	2000      	movs	r0, #0

08004d28 <Default_Tab_set>:
 8004d28:	4b03      	ldr	r3, [pc, #12]	; (8004d38 <Default_Tab_set+0x10>)
 8004d2a:	2100      	movs	r1, #0
 8004d2c:	f103 0038 	add.w	r0, r3, #56	; 0x38
 8004d30:	8519      	strh	r1, [r3, #40]	; 0x28
 8004d32:	2220      	movs	r2, #32
 8004d34:	4b01      	ldr	r3, [pc, #4]	; (8004d3c <Default_Tab_set+0x14>)
 8004d36:	4718      	bx	r3
 8004d38:	1fb8      	subs	r0, r7, #6
 8004d3a:	2000      	movs	r0, #0
 8004d3c:	7055      	strb	r5, [r2, #1]
 8004d3e:	0800      	lsrs	r0, r0, #32

08004d40 <JustificationOperation>:
 8004d40:	4770      	bx	lr
 8004d42:	bf00      	nop

08004d44 <PrintBufferHasData>:
 8004d44:	4b03      	ldr	r3, [pc, #12]	; (8004d54 <PrintBufferHasData+0x10>)
 8004d46:	8bd8      	ldrh	r0, [r3, #30]
 8004d48:	8c5b      	ldrh	r3, [r3, #34]	; 0x22
 8004d4a:	4298      	cmp	r0, r3
 8004d4c:	bf94      	ite	ls
 8004d4e:	2000      	movls	r0, #0
 8004d50:	2001      	movhi	r0, #1
 8004d52:	4770      	bx	lr
 8004d54:	1fb8      	subs	r0, r7, #6
 8004d56:	2000      	movs	r0, #0

08004d58 <setAbsoluteXPostion>:
 8004d58:	4b02      	ldr	r3, [pc, #8]	; (8004d64 <setAbsoluteXPostion+0xc>)
 8004d5a:	8c5a      	ldrh	r2, [r3, #34]	; 0x22
 8004d5c:	4410      	add	r0, r2
 8004d5e:	83d8      	strh	r0, [r3, #30]
 8004d60:	4770      	bx	lr
 8004d62:	bf00      	nop
 8004d64:	1fb8      	subs	r0, r7, #6
 8004d66:	2000      	movs	r0, #0

08004d68 <setRelativeXPostion>:
 8004d68:	4b02      	ldr	r3, [pc, #8]	; (8004d74 <setRelativeXPostion+0xc>)
 8004d6a:	8bda      	ldrh	r2, [r3, #30]
 8004d6c:	4410      	add	r0, r2
 8004d6e:	83d8      	strh	r0, [r3, #30]
 8004d70:	4770      	bx	lr
 8004d72:	bf00      	nop
 8004d74:	1fb8      	subs	r0, r7, #6
 8004d76:	2000      	movs	r0, #0

08004d78 <putDataAction>:
 8004d78:	b510      	push	{r4, lr}
 8004d7a:	4c06      	ldr	r4, [pc, #24]	; (8004d94 <putDataAction+0x1c>)
 8004d7c:	4b06      	ldr	r3, [pc, #24]	; (8004d98 <putDataAction+0x20>)
 8004d7e:	8c20      	ldrh	r0, [r4, #32]
 8004d80:	2100      	movs	r1, #0
 8004d82:	4798      	blx	r3
 8004d84:	b900      	cbnz	r0, 8004d88 <putDataAction+0x10>
 8004d86:	bd10      	pop	{r4, pc}
 8004d88:	8c62      	ldrh	r2, [r4, #34]	; 0x22
 8004d8a:	8b23      	ldrh	r3, [r4, #24]
 8004d8c:	83e2      	strh	r2, [r4, #30]
 8004d8e:	8423      	strh	r3, [r4, #32]
 8004d90:	2001      	movs	r0, #1
 8004d92:	bd10      	pop	{r4, pc}
 8004d94:	1fb8      	subs	r0, r7, #6
 8004d96:	2000      	movs	r0, #0
 8004d98:	40d1      	lsrs	r1, r2
 8004d9a:	0800      	lsrs	r0, r0, #32

08004d9c <switchWriteIndex>:
 8004d9c:	4a05      	ldr	r2, [pc, #20]	; (8004db4 <switchWriteIndex+0x18>)
 8004d9e:	f892 302b 	ldrb.w	r3, [r2, #43]	; 0x2b
 8004da2:	2001      	movs	r0, #1
 8004da4:	eb02 01c3 	add.w	r1, r2, r3, lsl #3
 8004da8:	4043      	eors	r3, r0
 8004daa:	7308      	strb	r0, [r1, #12]
 8004dac:	f882 302b 	strb.w	r3, [r2, #43]	; 0x2b
 8004db0:	4770      	bx	lr
 8004db2:	bf00      	nop
 8004db4:	1fb8      	subs	r0, r7, #6
 8004db6:	2000      	movs	r0, #0

08004db8 <switchReadIndex>:
 8004db8:	4a06      	ldr	r2, [pc, #24]	; (8004dd4 <switchReadIndex+0x1c>)
 8004dba:	f892 302c 	ldrb.w	r3, [r2, #44]	; 0x2c
 8004dbe:	1c59      	adds	r1, r3, #1
 8004dc0:	eb02 01c1 	add.w	r1, r2, r1, lsl #3
 8004dc4:	2000      	movs	r0, #0
 8004dc6:	f083 0301 	eor.w	r3, r3, #1
 8004dca:	7108      	strb	r0, [r1, #4]
 8004dcc:	f882 302c 	strb.w	r3, [r2, #44]	; 0x2c
 8004dd0:	4770      	bx	lr
 8004dd2:	bf00      	nop
 8004dd4:	1fb8      	subs	r0, r7, #6
 8004dd6:	2000      	movs	r0, #0

08004dd8 <getMaxLine>:
 8004dd8:	4b01      	ldr	r3, [pc, #4]	; (8004de0 <getMaxLine+0x8>)
 8004dda:	8b98      	ldrh	r0, [r3, #28]
 8004ddc:	4770      	bx	lr
 8004dde:	bf00      	nop
 8004de0:	1fb8      	subs	r0, r7, #6
 8004de2:	2000      	movs	r0, #0

08004de4 <ImagesInit>:
 8004de4:	b510      	push	{r4, lr}
 8004de6:	4c07      	ldr	r4, [pc, #28]	; (8004e04 <ImagesInit+0x20>)
 8004de8:	4b07      	ldr	r3, [pc, #28]	; (8004e08 <ImagesInit+0x24>)
 8004dea:	220c      	movs	r2, #12
 8004dec:	2100      	movs	r1, #0
 8004dee:	f104 0058 	add.w	r0, r4, #88	; 0x58
 8004df2:	4798      	blx	r3
 8004df4:	2300      	movs	r3, #0
 8004df6:	2201      	movs	r2, #1
 8004df8:	f884 306a 	strb.w	r3, [r4, #106]	; 0x6a
 8004dfc:	6663      	str	r3, [r4, #100]	; 0x64
 8004dfe:	f8a4 2068 	strh.w	r2, [r4, #104]	; 0x68
 8004e02:	bd10      	pop	{r4, pc}
 8004e04:	1fb8      	subs	r0, r7, #6
 8004e06:	2000      	movs	r0, #0
 8004e08:	6a75      	ldr	r5, [r6, #36]	; 0x24
 8004e0a:	0800      	lsrs	r0, r0, #32

08004e0c <saveNvImage>:
 8004e0c:	b5f8      	push	{r3, r4, r5, r6, r7, lr}
 8004e0e:	4b72      	ldr	r3, [pc, #456]	; (8004fd8 <saveNvImage+0x1cc>)
 8004e10:	4606      	mov	r6, r0
 8004e12:	4798      	blx	r3
 8004e14:	b1a8      	cbz	r0, 8004e42 <saveNvImage+0x36>
 8004e16:	4d71      	ldr	r5, [pc, #452]	; (8004fdc <saveNvImage+0x1d0>)
 8004e18:	f895 4069 	ldrb.w	r4, [r5, #105]	; 0x69
 8004e1c:	2c08      	cmp	r4, #8
 8004e1e:	f200 80d4 	bhi.w	8004fca <saveNvImage+0x1be>
 8004e22:	e8df f004 	tbb	[pc, r4]
 8004e26:	7621      	strb	r1, [r4, #24]
 8004e28:	655a      	str	r2, [r3, #84]	; 0x54
 8004e2a:	2e05      	cmp	r6, #5
 8004e2c:	113e      	asrs	r6, r7, #4
 8004e2e:	0017      	movs	r7, r2
 8004e30:	4b6b      	ldr	r3, [pc, #428]	; (8004fe0 <saveNvImage+0x1d4>)
 8004e32:	f8b5 2064 	ldrh.w	r2, [r5, #100]	; 0x64
 8004e36:	6da9      	ldr	r1, [r5, #88]	; 0x58
 8004e38:	486a      	ldr	r0, [pc, #424]	; (8004fe4 <saveNvImage+0x1d8>)
 8004e3a:	4798      	blx	r3
 8004e3c:	2305      	movs	r3, #5
 8004e3e:	f885 3069 	strb.w	r3, [r5, #105]	; 0x69
 8004e42:	2400      	movs	r4, #0
 8004e44:	4620      	mov	r0, r4
 8004e46:	bdf8      	pop	{r3, r4, r5, r6, r7, pc}
 8004e48:	4967      	ldr	r1, [pc, #412]	; (8004fe8 <saveNvImage+0x1dc>)
 8004e4a:	4868      	ldr	r0, [pc, #416]	; (8004fec <saveNvImage+0x1e0>)
 8004e4c:	4b64      	ldr	r3, [pc, #400]	; (8004fe0 <saveNvImage+0x1d4>)
 8004e4e:	f44f 720d 	mov.w	r2, #564	; 0x234
 8004e52:	4798      	blx	r3
 8004e54:	2200      	movs	r2, #0
 8004e56:	4b66      	ldr	r3, [pc, #408]	; (8004ff0 <saveNvImage+0x1e4>)
 8004e58:	f885 2069 	strb.w	r2, [r5, #105]	; 0x69
 8004e5c:	4798      	blx	r3
 8004e5e:	2800      	cmp	r0, #0
 8004e60:	d163      	bne.n	8004f2a <saveNvImage+0x11e>
 8004e62:	2401      	movs	r4, #1
 8004e64:	4620      	mov	r0, r4
 8004e66:	bdf8      	pop	{r3, r4, r5, r6, r7, pc}
 8004e68:	f895 206a 	ldrb.w	r2, [r5, #106]	; 0x6a
 8004e6c:	f895 306b 	ldrb.w	r3, [r5, #107]	; 0x6b
 8004e70:	429a      	cmp	r2, r3
 8004e72:	d35e      	bcc.n	8004f32 <saveNvImage+0x126>
 8004e74:	2200      	movs	r2, #0
 8004e76:	2307      	movs	r3, #7
 8004e78:	f885 206b 	strb.w	r2, [r5, #107]	; 0x6b
 8004e7c:	f8a5 3069 	strh.w	r3, [r5, #105]	; 0x69
 8004e80:	e7e0      	b.n	8004e44 <saveNvImage+0x38>
 8004e82:	4b5b      	ldr	r3, [pc, #364]	; (8004ff0 <saveNvImage+0x1e4>)
 8004e84:	4798      	blx	r3
 8004e86:	4604      	mov	r4, r0
 8004e88:	2800      	cmp	r0, #0
 8004e8a:	d14e      	bne.n	8004f2a <saveNvImage+0x11e>
 8004e8c:	f8b5 1064 	ldrh.w	r1, [r5, #100]	; 0x64
 8004e90:	6dab      	ldr	r3, [r5, #88]	; 0x58
 8004e92:	f8a5 0064 	strh.w	r0, [r5, #100]	; 0x64
 8004e96:	2201      	movs	r2, #1
 8004e98:	440b      	add	r3, r1
 8004e9a:	65ab      	str	r3, [r5, #88]	; 0x58
 8004e9c:	f885 2069 	strb.w	r2, [r5, #105]	; 0x69
 8004ea0:	e7d0      	b.n	8004e44 <saveNvImage+0x38>
 8004ea2:	f895 306a 	ldrb.w	r3, [r5, #106]	; 0x6a
 8004ea6:	4a4f      	ldr	r2, [pc, #316]	; (8004fe4 <saveNvImage+0x1d8>)
 8004ea8:	6e28      	ldr	r0, [r5, #96]	; 0x60
 8004eaa:	eb03 0143 	add.w	r1, r3, r3, lsl #1
 8004eae:	3301      	adds	r3, #1
 8004eb0:	b2db      	uxtb	r3, r3
 8004eb2:	eb02 0681 	add.w	r6, r2, r1, lsl #2
 8004eb6:	f885 306a 	strb.w	r3, [r5, #106]	; 0x6a
 8004eba:	eb03 0343 	add.w	r3, r3, r3, lsl #1
 8004ebe:	eb02 0383 	add.w	r3, r2, r3, lsl #2
 8004ec2:	2400      	movs	r4, #0
 8004ec4:	6daa      	ldr	r2, [r5, #88]	; 0x58
 8004ec6:	f8c6 0dcc 	str.w	r0, [r6, #3532]	; 0xdcc
 8004eca:	6de8      	ldr	r0, [r5, #92]	; 0x5c
 8004ecc:	f8c6 0dc8 	str.w	r0, [r6, #3528]	; 0xdc8
 8004ed0:	f885 4069 	strb.w	r4, [r5, #105]	; 0x69
 8004ed4:	f8c3 2dc4 	str.w	r2, [r3, #3524]	; 0xdc4
 8004ed8:	e7b4      	b.n	8004e44 <saveNvImage+0x38>
 8004eda:	4b41      	ldr	r3, [pc, #260]	; (8004fe0 <saveNvImage+0x1d4>)
 8004edc:	6da9      	ldr	r1, [r5, #88]	; 0x58
 8004ede:	4841      	ldr	r0, [pc, #260]	; (8004fe4 <saveNvImage+0x1d8>)
 8004ee0:	f640 52c2 	movw	r2, #3522	; 0xdc2
 8004ee4:	4798      	blx	r3
 8004ee6:	2303      	movs	r3, #3
 8004ee8:	f885 3069 	strb.w	r3, [r5, #105]	; 0x69
 8004eec:	2400      	movs	r4, #0
 8004eee:	e7a9      	b.n	8004e44 <saveNvImage+0x38>
 8004ef0:	2201      	movs	r2, #1
 8004ef2:	4b3f      	ldr	r3, [pc, #252]	; (8004ff0 <saveNvImage+0x1e4>)
 8004ef4:	f885 2069 	strb.w	r2, [r5, #105]	; 0x69
 8004ef8:	4798      	blx	r3
 8004efa:	4604      	mov	r4, r0
 8004efc:	b9a8      	cbnz	r0, 8004f2a <saveNvImage+0x11e>
 8004efe:	f8b5 2066 	ldrh.w	r2, [r5, #102]	; 0x66
 8004f02:	6dab      	ldr	r3, [r5, #88]	; 0x58
 8004f04:	3a01      	subs	r2, #1
 8004f06:	f603 53c2 	addw	r3, r3, #3522	; 0xdc2
 8004f0a:	f8a5 2066 	strh.w	r2, [r5, #102]	; 0x66
 8004f0e:	65ab      	str	r3, [r5, #88]	; 0x58
 8004f10:	e798      	b.n	8004e44 <saveNvImage+0x38>
 8004f12:	f8b5 7066 	ldrh.w	r7, [r5, #102]	; 0x66
 8004f16:	2f00      	cmp	r7, #0
 8004f18:	d13c      	bne.n	8004f94 <saveNvImage+0x188>
 8004f1a:	f8b5 4064 	ldrh.w	r4, [r5, #100]	; 0x64
 8004f1e:	2c00      	cmp	r4, #0
 8004f20:	d146      	bne.n	8004fb0 <saveNvImage+0x1a4>
 8004f22:	2306      	movs	r3, #6
 8004f24:	f885 3069 	strb.w	r3, [r5, #105]	; 0x69
 8004f28:	e78c      	b.n	8004e44 <saveNvImage+0x38>
 8004f2a:	4b32      	ldr	r3, [pc, #200]	; (8004ff4 <saveNvImage+0x1e8>)
 8004f2c:	4798      	blx	r3
 8004f2e:	2401      	movs	r4, #1
 8004f30:	e788      	b.n	8004e44 <saveNvImage+0x38>
 8004f32:	4f2c      	ldr	r7, [pc, #176]	; (8004fe4 <saveNvImage+0x1d8>)
 8004f34:	4b30      	ldr	r3, [pc, #192]	; (8004ff8 <saveNvImage+0x1ec>)
 8004f36:	2204      	movs	r2, #4
 8004f38:	4630      	mov	r0, r6
 8004f3a:	4639      	mov	r1, r7
 8004f3c:	4798      	blx	r3
 8004f3e:	2802      	cmp	r0, #2
 8004f40:	f43f af7f 	beq.w	8004e42 <saveNvImage+0x36>
 8004f44:	787a      	ldrb	r2, [r7, #1]
 8004f46:	783b      	ldrb	r3, [r7, #0]
 8004f48:	78f9      	ldrb	r1, [r7, #3]
 8004f4a:	eb03 2302 	add.w	r3, r3, r2, lsl #8
 8004f4e:	78ba      	ldrb	r2, [r7, #2]
 8004f50:	eb02 2201 	add.w	r2, r2, r1, lsl #8
 8004f54:	f895 106a 	ldrb.w	r1, [r5, #106]	; 0x6a
 8004f58:	b29b      	uxth	r3, r3
 8004f5a:	b292      	uxth	r2, r2
 8004f5c:	3101      	adds	r1, #1
 8004f5e:	f885 1061 	strb.w	r1, [r5, #97]	; 0x61
 8004f62:	fb02 f103 	mul.w	r1, r2, r3
 8004f66:	00db      	lsls	r3, r3, #3
 8004f68:	f8a5 305e 	strh.w	r3, [r5, #94]	; 0x5e
 8004f6c:	4b23      	ldr	r3, [pc, #140]	; (8004ffc <saveNvImage+0x1f0>)
 8004f6e:	00c9      	lsls	r1, r1, #3
 8004f70:	00d2      	lsls	r2, r2, #3
 8004f72:	fba3 0301 	umull	r0, r3, r3, r1
 8004f76:	0a9b      	lsrs	r3, r3, #10
 8004f78:	f8a5 205c 	strh.w	r2, [r5, #92]	; 0x5c
 8004f7c:	f640 52c2 	movw	r2, #3522	; 0xdc2
 8004f80:	fb02 1113 	mls	r1, r2, r3, r1
 8004f84:	2201      	movs	r2, #1
 8004f86:	f8a5 1064 	strh.w	r1, [r5, #100]	; 0x64
 8004f8a:	f8a5 3066 	strh.w	r3, [r5, #102]	; 0x66
 8004f8e:	f885 2069 	strb.w	r2, [r5, #105]	; 0x69
 8004f92:	e757      	b.n	8004e44 <saveNvImage+0x38>
 8004f94:	4913      	ldr	r1, [pc, #76]	; (8004fe4 <saveNvImage+0x1d8>)
 8004f96:	4b18      	ldr	r3, [pc, #96]	; (8004ff8 <saveNvImage+0x1ec>)
 8004f98:	f640 52c2 	movw	r2, #3522	; 0xdc2
 8004f9c:	4630      	mov	r0, r6
 8004f9e:	4798      	blx	r3
 8004fa0:	2802      	cmp	r0, #2
 8004fa2:	f43f af4e 	beq.w	8004e42 <saveNvImage+0x36>
 8004fa6:	2302      	movs	r3, #2
 8004fa8:	f885 3069 	strb.w	r3, [r5, #105]	; 0x69
 8004fac:	2400      	movs	r4, #0
 8004fae:	e749      	b.n	8004e44 <saveNvImage+0x38>
 8004fb0:	490c      	ldr	r1, [pc, #48]	; (8004fe4 <saveNvImage+0x1d8>)
 8004fb2:	4b11      	ldr	r3, [pc, #68]	; (8004ff8 <saveNvImage+0x1ec>)
 8004fb4:	4622      	mov	r2, r4
 8004fb6:	4630      	mov	r0, r6
 8004fb8:	4798      	blx	r3
 8004fba:	2802      	cmp	r0, #2
 8004fbc:	f43f af41 	beq.w	8004e42 <saveNvImage+0x36>
 8004fc0:	2304      	movs	r3, #4
 8004fc2:	f885 3069 	strb.w	r3, [r5, #105]	; 0x69
 8004fc6:	463c      	mov	r4, r7
 8004fc8:	e73c      	b.n	8004e44 <saveNvImage+0x38>
 8004fca:	2200      	movs	r2, #0
 8004fcc:	4b09      	ldr	r3, [pc, #36]	; (8004ff4 <saveNvImage+0x1e8>)
 8004fce:	f885 2069 	strb.w	r2, [r5, #105]	; 0x69
 8004fd2:	4798      	blx	r3
 8004fd4:	e745      	b.n	8004e62 <saveNvImage+0x56>
 8004fd6:	bf00      	nop
 8004fd8:	6121      	str	r1, [r4, #16]
 8004fda:	0800      	lsrs	r0, r0, #32
 8004fdc:	1fb8      	subs	r0, r7, #6
 8004fde:	2000      	movs	r0, #0
 8004fe0:	5ea5      	ldrsh	r5, [r4, r2]
 8004fe2:	0800      	lsrs	r0, r0, #32
 8004fe4:	3228      	adds	r2, #40	; 0x28
 8004fe6:	2000      	movs	r0, #0
 8004fe8:	fdcb 001b 	stc2l	0, cr0, [fp, #108]	; 0x6c
 8004fec:	3fec      	subs	r7, #236	; 0xec
 8004fee:	2000      	movs	r0, #0
 8004ff0:	613d      	str	r5, [r7, #16]
 8004ff2:	0800      	lsrs	r0, r0, #32
 8004ff4:	653d      	str	r5, [r7, #80]	; 0x50
 8004ff6:	0800      	lsrs	r0, r0, #32
 8004ff8:	3979      	subs	r1, #121	; 0x79
 8004ffa:	0800      	lsrs	r0, r0, #32
 8004ffc:	3123      	adds	r1, #35	; 0x23
 8004ffe:	4a6e      	ldr	r2, [pc, #440]	; (80051b8 <loadCurrentIndex+0x98>)

08005000 <upLoadHeaders>:
 8005000:	e92d 41f0 	stmdb	sp!, {r4, r5, r6, r7, r8, lr}
 8005004:	4b27      	ldr	r3, [pc, #156]	; (80050a4 <upLoadHeaders+0xa4>)
 8005006:	4798      	blx	r3
 8005008:	b180      	cbz	r0, 800502c <upLoadHeaders+0x2c>
 800500a:	4d27      	ldr	r5, [pc, #156]	; (80050a8 <upLoadHeaders+0xa8>)
 800500c:	f895 3068 	ldrb.w	r3, [r5, #104]	; 0x68
 8005010:	2b04      	cmp	r3, #4
 8005012:	d843      	bhi.n	800509c <upLoadHeaders+0x9c>
 8005014:	e8df f003 	tbb	[pc, r3]
 8005018:	0c0a      	lsrs	r2, r1, #16
 800501a:	3017      	adds	r0, #23
 800501c:	0003      	movs	r3, r0
 800501e:	4b23      	ldr	r3, [pc, #140]	; (80050ac <upLoadHeaders+0xac>)
 8005020:	4798      	blx	r3
 8005022:	2800      	cmp	r0, #0
 8005024:	d133      	bne.n	800508e <upLoadHeaders+0x8e>
 8005026:	2300      	movs	r3, #0
 8005028:	f885 3068 	strb.w	r3, [r5, #104]	; 0x68
 800502c:	e8bd 81f0 	ldmia.w	sp!, {r4, r5, r6, r7, r8, pc}
 8005030:	4b1f      	ldr	r3, [pc, #124]	; (80050b0 <upLoadHeaders+0xb0>)
 8005032:	4920      	ldr	r1, [pc, #128]	; (80050b4 <upLoadHeaders+0xb4>)
 8005034:	4820      	ldr	r0, [pc, #128]	; (80050b8 <upLoadHeaders+0xb8>)
 8005036:	f44f 720d 	mov.w	r2, #564	; 0x234
 800503a:	4798      	blx	r3
 800503c:	2302      	movs	r3, #2
 800503e:	f885 3068 	strb.w	r3, [r5, #104]	; 0x68
 8005042:	e8bd 81f0 	ldmia.w	sp!, {r4, r5, r6, r7, r8, pc}
 8005046:	4b19      	ldr	r3, [pc, #100]	; (80050ac <upLoadHeaders+0xac>)
 8005048:	4798      	blx	r3
 800504a:	bb00      	cbnz	r0, 800508e <upLoadHeaders+0x8e>
 800504c:	4e1b      	ldr	r6, [pc, #108]	; (80050bc <upLoadHeaders+0xbc>)
 800504e:	f896 3dcd 	ldrb.w	r3, [r6, #3533]	; 0xdcd
 8005052:	2bff      	cmp	r3, #255	; 0xff
 8005054:	d1e7      	bne.n	8005026 <upLoadHeaders+0x26>
 8005056:	4f1a      	ldr	r7, [pc, #104]	; (80050c0 <upLoadHeaders+0xc0>)
 8005058:	242f      	movs	r4, #47	; 0x2f
 800505a:	f606 56c4 	addw	r6, r6, #3524	; 0xdc4
 800505e:	3c01      	subs	r4, #1
 8005060:	f44f 720d 	mov.w	r2, #564	; 0x234
 8005064:	2100      	movs	r1, #0
 8005066:	4630      	mov	r0, r6
 8005068:	b2a4      	uxth	r4, r4
 800506a:	47b8      	blx	r7
 800506c:	2c00      	cmp	r4, #0
 800506e:	d1f6      	bne.n	800505e <upLoadHeaders+0x5e>
 8005070:	2303      	movs	r3, #3
 8005072:	f885 3068 	strb.w	r3, [r5, #104]	; 0x68
 8005076:	e7d9      	b.n	800502c <upLoadHeaders+0x2c>
 8005078:	4b12      	ldr	r3, [pc, #72]	; (80050c4 <upLoadHeaders+0xc4>)
 800507a:	490e      	ldr	r1, [pc, #56]	; (80050b4 <upLoadHeaders+0xb4>)
 800507c:	480e      	ldr	r0, [pc, #56]	; (80050b8 <upLoadHeaders+0xb8>)
 800507e:	f44f 720d 	mov.w	r2, #564	; 0x234
 8005082:	4798      	blx	r3
 8005084:	2304      	movs	r3, #4
 8005086:	f885 3068 	strb.w	r3, [r5, #104]	; 0x68
 800508a:	e8bd 81f0 	ldmia.w	sp!, {r4, r5, r6, r7, r8, pc}
 800508e:	2201      	movs	r2, #1
 8005090:	f885 2068 	strb.w	r2, [r5, #104]	; 0x68
 8005094:	4b0c      	ldr	r3, [pc, #48]	; (80050c8 <upLoadHeaders+0xc8>)
 8005096:	e8bd 41f0 	ldmia.w	sp!, {r4, r5, r6, r7, r8, lr}
 800509a:	4718      	bx	r3
 800509c:	2301      	movs	r3, #1
 800509e:	f885 3068 	strb.w	r3, [r5, #104]	; 0x68
 80050a2:	e7c3      	b.n	800502c <upLoadHeaders+0x2c>
 80050a4:	6121      	str	r1, [r4, #16]
 80050a6:	0800      	lsrs	r0, r0, #32
 80050a8:	1fb8      	subs	r0, r7, #6
 80050aa:	2000      	movs	r0, #0
 80050ac:	613d      	str	r5, [r7, #16]
 80050ae:	0800      	lsrs	r0, r0, #32
 80050b0:	5e1d      	ldrsh	r5, [r3, r0]
 80050b2:	0800      	lsrs	r0, r0, #32
 80050b4:	fdcb 001b 	stc2l	0, cr0, [fp, #108]	; 0x6c
 80050b8:	3fec      	subs	r7, #236	; 0xec
 80050ba:	2000      	movs	r0, #0
 80050bc:	3228      	adds	r2, #40	; 0x28
 80050be:	2000      	movs	r0, #0
 80050c0:	6a75      	ldr	r5, [r6, #36]	; 0x24
 80050c2:	0800      	lsrs	r0, r0, #32
 80050c4:	5ea5      	ldrsh	r5, [r4, r2]
 80050c6:	0800      	lsrs	r0, r0, #32
 80050c8:	653d      	str	r5, [r7, #80]	; 0x50
 80050ca:	0800      	lsrs	r0, r0, #32

080050cc <BitNVImagesIsRead>:
 80050cc:	4b01      	ldr	r3, [pc, #4]	; (80050d4 <BitNVImagesIsRead+0x8>)
 80050ce:	f893 0068 	ldrb.w	r0, [r3, #104]	; 0x68
 80050d2:	4770      	bx	lr
 80050d4:	1fb8      	subs	r0, r7, #6
 80050d6:	2000      	movs	r0, #0

080050d8 <setMaxLogo>:
 80050d8:	282f      	cmp	r0, #47	; 0x2f
 80050da:	d901      	bls.n	80050e0 <setMaxLogo+0x8>
 80050dc:	2000      	movs	r0, #0
 80050de:	4770      	bx	lr
 80050e0:	b510      	push	{r4, lr}
 80050e2:	4b0b      	ldr	r3, [pc, #44]	; (8005110 <setMaxLogo+0x38>)
 80050e4:	4604      	mov	r4, r0
 80050e6:	f44f 720d 	mov.w	r2, #564	; 0x234
 80050ea:	480a      	ldr	r0, [pc, #40]	; (8005114 <setMaxLogo+0x3c>)
 80050ec:	2100      	movs	r1, #0
 80050ee:	4798      	blx	r3
 80050f0:	4b09      	ldr	r3, [pc, #36]	; (8005118 <setMaxLogo+0x40>)
 80050f2:	480a      	ldr	r0, [pc, #40]	; (800511c <setMaxLogo+0x44>)
 80050f4:	f883 406b 	strb.w	r4, [r3, #107]	; 0x6b
 80050f8:	2100      	movs	r1, #0
 80050fa:	f44f 12e0 	mov.w	r2, #1835008	; 0x1c0000
 80050fe:	f883 1069 	strb.w	r1, [r3, #105]	; 0x69
 8005102:	f883 106a 	strb.w	r1, [r3, #106]	; 0x6a
 8005106:	f8c0 2dc4 	str.w	r2, [r0, #3524]	; 0xdc4
 800510a:	659a      	str	r2, [r3, #88]	; 0x58
 800510c:	2001      	movs	r0, #1
 800510e:	bd10      	pop	{r4, pc}
 8005110:	6a75      	ldr	r5, [r6, #36]	; 0x24
 8005112:	0800      	lsrs	r0, r0, #32
 8005114:	3fec      	subs	r7, #236	; 0xec
 8005116:	2000      	movs	r0, #0
 8005118:	1fb8      	subs	r0, r7, #6
 800511a:	2000      	movs	r0, #0
 800511c:	3228      	adds	r2, #40	; 0x28
 800511e:	2000      	movs	r0, #0

08005120 <loadCurrentIndex>:
 8005120:	2800      	cmp	r0, #0
 8005122:	d04d      	beq.n	80051c0 <loadCurrentIndex+0xa0>
 8005124:	b538      	push	{r3, r4, r5, lr}
 8005126:	460c      	mov	r4, r1
 8005128:	2300      	movs	r3, #0
 800512a:	4933      	ldr	r1, [pc, #204]	; (80051f8 <loadCurrentIndex+0xd8>)
 800512c:	e001      	b.n	8005132 <loadCurrentIndex+0x12>
 800512e:	2b2f      	cmp	r3, #47	; 0x2f
 8005130:	d044      	beq.n	80051bc <loadCurrentIndex+0x9c>
 8005132:	eb03 0243 	add.w	r2, r3, r3, lsl #1
 8005136:	eb01 0c82 	add.w	ip, r1, r2, lsl #2
 800513a:	3301      	adds	r3, #1
 800513c:	f89c cdcd 	ldrb.w	ip, [ip, #3533]	; 0xdcd
 8005140:	4584      	cmp	ip, r0
 8005142:	ea4f 0282 	mov.w	r2, r2, lsl #2
 8005146:	d1f2      	bne.n	800512e <loadCurrentIndex+0xe>
 8005148:	4d2c      	ldr	r5, [pc, #176]	; (80051fc <loadCurrentIndex+0xdc>)
 800514a:	f602 53c4 	addw	r3, r2, #3524	; 0xdc4
 800514e:	4419      	add	r1, r3
 8005150:	220c      	movs	r2, #12
 8005152:	4b2b      	ldr	r3, [pc, #172]	; (8005200 <loadCurrentIndex+0xe0>)
 8005154:	f105 0058 	add.w	r0, r5, #88	; 0x58
 8005158:	4798      	blx	r3
 800515a:	f8b5 205c 	ldrh.w	r2, [r5, #92]	; 0x5c
 800515e:	b36a      	cbz	r2, 80051bc <loadCurrentIndex+0x9c>
 8005160:	f8b5 105e 	ldrh.w	r1, [r5, #94]	; 0x5e
 8005164:	b351      	cbz	r1, 80051bc <loadCurrentIndex+0x9c>
 8005166:	f895 3060 	ldrb.w	r3, [r5, #96]	; 0x60
 800516a:	f003 030f 	and.w	r3, r3, #15
 800516e:	fb01 f303 	mul.w	r3, r1, r3
 8005172:	8b69      	ldrh	r1, [r5, #26]
 8005174:	428b      	cmp	r3, r1
 8005176:	da21      	bge.n	80051bc <loadCurrentIndex+0x9c>
 8005178:	4b22      	ldr	r3, [pc, #136]	; (8005204 <loadCurrentIndex+0xe4>)
 800517a:	fba3 1302 	umull	r1, r3, r3, r2
 800517e:	095b      	lsrs	r3, r3, #5
 8005180:	eb03 0143 	add.w	r1, r3, r3, lsl #1
 8005184:	eba2 1101 	sub.w	r1, r2, r1, lsl #4
 8005188:	b289      	uxth	r1, r1
 800518a:	b29b      	uxth	r3, r3
 800518c:	f8a5 1064 	strh.w	r1, [r5, #100]	; 0x64
 8005190:	f8a5 3066 	strh.w	r3, [r5, #102]	; 0x66
 8005194:	b109      	cbz	r1, 800519a <loadCurrentIndex+0x7a>
 8005196:	2a2f      	cmp	r2, #47	; 0x2f
 8005198:	d819      	bhi.n	80051ce <loadCurrentIndex+0xae>
 800519a:	2c01      	cmp	r4, #1
 800519c:	d012      	beq.n	80051c4 <loadCurrentIndex+0xa4>
 800519e:	2c31      	cmp	r4, #49	; 0x31
 80051a0:	d010      	beq.n	80051c4 <loadCurrentIndex+0xa4>
 80051a2:	2c02      	cmp	r4, #2
 80051a4:	d022      	beq.n	80051ec <loadCurrentIndex+0xcc>
 80051a6:	2c32      	cmp	r4, #50	; 0x32
 80051a8:	d020      	beq.n	80051ec <loadCurrentIndex+0xcc>
 80051aa:	2c03      	cmp	r4, #3
 80051ac:	d019      	beq.n	80051e2 <loadCurrentIndex+0xc2>
 80051ae:	2c33      	cmp	r4, #51	; 0x33
 80051b0:	d017      	beq.n	80051e2 <loadCurrentIndex+0xc2>
 80051b2:	2311      	movs	r3, #17
 80051b4:	f885 3060 	strb.w	r3, [r5, #96]	; 0x60
 80051b8:	2001      	movs	r0, #1
 80051ba:	bd38      	pop	{r3, r4, r5, pc}
 80051bc:	2000      	movs	r0, #0
 80051be:	bd38      	pop	{r3, r4, r5, pc}
 80051c0:	2000      	movs	r0, #0
 80051c2:	4770      	bx	lr
 80051c4:	2312      	movs	r3, #18
 80051c6:	f885 3060 	strb.w	r3, [r5, #96]	; 0x60
 80051ca:	2001      	movs	r0, #1
 80051cc:	bd38      	pop	{r3, r4, r5, pc}
 80051ce:	8b2a      	ldrh	r2, [r5, #24]
 80051d0:	428a      	cmp	r2, r1
 80051d2:	d9e2      	bls.n	800519a <loadCurrentIndex+0x7a>
 80051d4:	3b01      	subs	r3, #1
 80051d6:	3130      	adds	r1, #48	; 0x30
 80051d8:	f8a5 3066 	strh.w	r3, [r5, #102]	; 0x66
 80051dc:	f8a5 1064 	strh.w	r1, [r5, #100]	; 0x64
 80051e0:	e7db      	b.n	800519a <loadCurrentIndex+0x7a>
 80051e2:	2322      	movs	r3, #34	; 0x22
 80051e4:	f885 3060 	strb.w	r3, [r5, #96]	; 0x60
 80051e8:	2001      	movs	r0, #1
 80051ea:	bd38      	pop	{r3, r4, r5, pc}
 80051ec:	2321      	movs	r3, #33	; 0x21
 80051ee:	f885 3060 	strb.w	r3, [r5, #96]	; 0x60
 80051f2:	2001      	movs	r0, #1
 80051f4:	bd38      	pop	{r3, r4, r5, pc}
 80051f6:	bf00      	nop
 80051f8:	3228      	adds	r2, #40	; 0x28
 80051fa:	2000      	movs	r0, #0
 80051fc:	1fb8      	subs	r0, r7, #6
 80051fe:	2000      	movs	r0, #0
 8005200:	6a01      	ldr	r1, [r0, #32]
 8005202:	0800      	lsrs	r0, r0, #32
 8005204:	aaab      	add	r2, sp, #684	; 0x2ac
 8005206:	aaaa      	add	r2, sp, #680	; 0x2a8

08005208 <PrintNvImage>:
 8005208:	e92d 4ff0 	stmdb	sp!, {r4, r5, r6, r7, r8, r9, sl, fp, lr}
 800520c:	4d6d      	ldr	r5, [pc, #436]	; (80053c4 <PrintNvImage+0x1bc>)
 800520e:	f895 802b 	ldrb.w	r8, [r5, #43]	; 0x2b
 8005212:	f108 0b01 	add.w	fp, r8, #1
 8005216:	eb05 03cb 	add.w	r3, r5, fp, lsl #3
 800521a:	b085      	sub	sp, #20
 800521c:	791c      	ldrb	r4, [r3, #4]
 800521e:	2c00      	cmp	r4, #0
 8005220:	d16a      	bne.n	80052f8 <PrintNvImage+0xf0>
 8005222:	f8b5 9066 	ldrh.w	r9, [r5, #102]	; 0x66
 8005226:	f1b9 0f00 	cmp.w	r9, #0
 800522a:	d107      	bne.n	800523c <PrintNvImage+0x34>
 800522c:	f8b5 4064 	ldrh.w	r4, [r5, #100]	; 0x64
 8005230:	2c00      	cmp	r4, #0
 8005232:	d16a      	bne.n	800530a <PrintNvImage+0x102>
 8005234:	2001      	movs	r0, #1
 8005236:	b005      	add	sp, #20
 8005238:	e8bd 8ff0 	ldmia.w	sp!, {r4, r5, r6, r7, r8, r9, sl, fp, pc}
 800523c:	f8b5 a05e 	ldrh.w	sl, [r5, #94]	; 0x5e
 8005240:	4b61      	ldr	r3, [pc, #388]	; (80053c8 <PrintNvImage+0x1c0>)
 8005242:	eb0a 004a 	add.w	r0, sl, sl, lsl #1
 8005246:	0040      	lsls	r0, r0, #1
 8005248:	f000 00fe 	and.w	r0, r0, #254	; 0xfe
 800524c:	4798      	blx	r3
 800524e:	f8b5 705c 	ldrh.w	r7, [r5, #92]	; 0x5c
 8005252:	83ec      	strh	r4, [r5, #30]
 8005254:	3707      	adds	r7, #7
 8005256:	4606      	mov	r6, r0
 8005258:	10ff      	asrs	r7, r7, #3
 800525a:	f1ba 0f00 	cmp.w	sl, #0
 800525e:	d01a      	beq.n	8005296 <PrintNvImage+0x8e>
 8005260:	4623      	mov	r3, r4
 8005262:	f8df 8168 	ldr.w	r8, [pc, #360]	; 80053cc <PrintNvImage+0x1c4>
 8005266:	4c5a      	ldr	r4, [pc, #360]	; (80053d0 <PrintNvImage+0x1c8>)
 8005268:	6da9      	ldr	r1, [r5, #88]	; 0x58
 800526a:	2206      	movs	r2, #6
 800526c:	fb07 1103 	mla	r1, r7, r3, r1
 8005270:	4630      	mov	r0, r6
 8005272:	47c0      	blx	r8
 8005274:	47a0      	blx	r4
 8005276:	2800      	cmp	r0, #0
 8005278:	d0fc      	beq.n	8005274 <PrintNvImage+0x6c>
 800527a:	8beb      	ldrh	r3, [r5, #30]
 800527c:	f8b5 a05e 	ldrh.w	sl, [r5, #94]	; 0x5e
 8005280:	3301      	adds	r3, #1
 8005282:	b29b      	uxth	r3, r3
 8005284:	4553      	cmp	r3, sl
 8005286:	83eb      	strh	r3, [r5, #30]
 8005288:	d3ee      	bcc.n	8005268 <PrintNvImage+0x60>
 800528a:	f895 802b 	ldrb.w	r8, [r5, #43]	; 0x2b
 800528e:	f8b5 9066 	ldrh.w	r9, [r5, #102]	; 0x66
 8005292:	f108 0b01 	add.w	fp, r8, #1
 8005296:	f895 3060 	ldrb.w	r3, [r5, #96]	; 0x60
 800529a:	4c4e      	ldr	r4, [pc, #312]	; (80053d4 <PrintNvImage+0x1cc>)
 800529c:	9601      	str	r6, [sp, #4]
 800529e:	0918      	lsrs	r0, r3, #4
 80052a0:	4651      	mov	r1, sl
 80052a2:	2230      	movs	r2, #48	; 0x30
 80052a4:	9000      	str	r0, [sp, #0]
 80052a6:	f003 030f 	and.w	r3, r3, #15
 80052aa:	2000      	movs	r0, #0
 80052ac:	47a0      	blx	r4
 80052ae:	4b4a      	ldr	r3, [pc, #296]	; (80053d8 <PrintNvImage+0x1d0>)
 80052b0:	4630      	mov	r0, r6
 80052b2:	4798      	blx	r3
 80052b4:	6dab      	ldr	r3, [r5, #88]	; 0x58
 80052b6:	eb05 0bcb 	add.w	fp, r5, fp, lsl #3
 80052ba:	3306      	adds	r3, #6
 80052bc:	65ab      	str	r3, [r5, #88]	; 0x58
 80052be:	2301      	movs	r3, #1
 80052c0:	f109 39ff 	add.w	r9, r9, #4294967295
 80052c4:	f088 0801 	eor.w	r8, r8, #1
 80052c8:	2030      	movs	r0, #48	; 0x30
 80052ca:	f88b 3004 	strb.w	r3, [fp, #4]
 80052ce:	2100      	movs	r1, #0
 80052d0:	4b42      	ldr	r3, [pc, #264]	; (80053dc <PrintNvImage+0x1d4>)
 80052d2:	f885 802b 	strb.w	r8, [r5, #43]	; 0x2b
 80052d6:	f8a5 9066 	strh.w	r9, [r5, #102]	; 0x66
 80052da:	8428      	strh	r0, [r5, #32]
 80052dc:	4798      	blx	r3
 80052de:	b978      	cbnz	r0, 8005300 <PrintNvImage+0xf8>
 80052e0:	f8b5 0064 	ldrh.w	r0, [r5, #100]	; 0x64
 80052e4:	f8b5 3066 	ldrh.w	r3, [r5, #102]	; 0x66
 80052e8:	4318      	orrs	r0, r3
 80052ea:	b280      	uxth	r0, r0
 80052ec:	fab0 f080 	clz	r0, r0
 80052f0:	0940      	lsrs	r0, r0, #5
 80052f2:	b005      	add	sp, #20
 80052f4:	e8bd 8ff0 	ldmia.w	sp!, {r4, r5, r6, r7, r8, r9, sl, fp, pc}
 80052f8:	2000      	movs	r0, #0
 80052fa:	b005      	add	sp, #20
 80052fc:	e8bd 8ff0 	ldmia.w	sp!, {r4, r5, r6, r7, r8, r9, sl, fp, pc}
 8005300:	8c6a      	ldrh	r2, [r5, #34]	; 0x22
 8005302:	8b2b      	ldrh	r3, [r5, #24]
 8005304:	83ea      	strh	r2, [r5, #30]
 8005306:	842b      	strh	r3, [r5, #32]
 8005308:	e7ea      	b.n	80052e0 <PrintNvImage+0xd8>
 800530a:	f8b5 105e 	ldrh.w	r1, [r5, #94]	; 0x5e
 800530e:	4b2e      	ldr	r3, [pc, #184]	; (80053c8 <PrintNvImage+0x1c0>)
 8005310:	f8b5 705c 	ldrh.w	r7, [r5, #92]	; 0x5c
 8005314:	9103      	str	r1, [sp, #12]
 8005316:	f104 0a07 	add.w	sl, r4, #7
 800531a:	ea4f 0aea 	mov.w	sl, sl, asr #3
 800531e:	fb11 f00a 	smulbb	r0, r1, sl
 8005322:	b2c0      	uxtb	r0, r0
 8005324:	4798      	blx	r3
 8005326:	9903      	ldr	r1, [sp, #12]
 8005328:	f8a5 901e 	strh.w	r9, [r5, #30]
 800532c:	3707      	adds	r7, #7
 800532e:	10ff      	asrs	r7, r7, #3
 8005330:	4606      	mov	r6, r0
 8005332:	b1f9      	cbz	r1, 8005374 <PrintNvImage+0x16c>
 8005334:	f8df 8094 	ldr.w	r8, [pc, #148]	; 80053cc <PrintNvImage+0x1c4>
 8005338:	4c25      	ldr	r4, [pc, #148]	; (80053d0 <PrintNvImage+0x1c8>)
 800533a:	fa5f fa8a 	uxtb.w	sl, sl
 800533e:	6da9      	ldr	r1, [r5, #88]	; 0x58
 8005340:	4652      	mov	r2, sl
 8005342:	fb07 1109 	mla	r1, r7, r9, r1
 8005346:	4630      	mov	r0, r6
 8005348:	47c0      	blx	r8
 800534a:	47a0      	blx	r4
 800534c:	2800      	cmp	r0, #0
 800534e:	d0fc      	beq.n	800534a <PrintNvImage+0x142>
 8005350:	f8b5 901e 	ldrh.w	r9, [r5, #30]
 8005354:	f8b5 105e 	ldrh.w	r1, [r5, #94]	; 0x5e
 8005358:	f109 0901 	add.w	r9, r9, #1
 800535c:	fa1f f989 	uxth.w	r9, r9
 8005360:	4589      	cmp	r9, r1
 8005362:	f8a5 901e 	strh.w	r9, [r5, #30]
 8005366:	d3ea      	bcc.n	800533e <PrintNvImage+0x136>
 8005368:	f895 802b 	ldrb.w	r8, [r5, #43]	; 0x2b
 800536c:	f8b5 4064 	ldrh.w	r4, [r5, #100]	; 0x64
 8005370:	f108 0b01 	add.w	fp, r8, #1
 8005374:	f895 3060 	ldrb.w	r3, [r5, #96]	; 0x60
 8005378:	4f16      	ldr	r7, [pc, #88]	; (80053d4 <PrintNvImage+0x1cc>)
 800537a:	9601      	str	r6, [sp, #4]
 800537c:	0918      	lsrs	r0, r3, #4
 800537e:	4622      	mov	r2, r4
 8005380:	9000      	str	r0, [sp, #0]
 8005382:	f003 030f 	and.w	r3, r3, #15
 8005386:	2000      	movs	r0, #0
 8005388:	47b8      	blx	r7
 800538a:	eb05 0bcb 	add.w	fp, r5, fp, lsl #3
 800538e:	4b12      	ldr	r3, [pc, #72]	; (80053d8 <PrintNvImage+0x1d0>)
 8005390:	4630      	mov	r0, r6
 8005392:	4798      	blx	r3
 8005394:	842c      	strh	r4, [r5, #32]
 8005396:	4620      	mov	r0, r4
 8005398:	2401      	movs	r4, #1
 800539a:	2100      	movs	r1, #0
 800539c:	f088 0801 	eor.w	r8, r8, #1
 80053a0:	4b0e      	ldr	r3, [pc, #56]	; (80053dc <PrintNvImage+0x1d4>)
 80053a2:	f88b 4004 	strb.w	r4, [fp, #4]
 80053a6:	f885 802b 	strb.w	r8, [r5, #43]	; 0x2b
 80053aa:	f8a5 1064 	strh.w	r1, [r5, #100]	; 0x64
 80053ae:	4798      	blx	r3
 80053b0:	2800      	cmp	r0, #0
 80053b2:	f43f af3f 	beq.w	8005234 <PrintNvImage+0x2c>
 80053b6:	8c6a      	ldrh	r2, [r5, #34]	; 0x22
 80053b8:	8b2b      	ldrh	r3, [r5, #24]
 80053ba:	83ea      	strh	r2, [r5, #30]
 80053bc:	842b      	strh	r3, [r5, #32]
 80053be:	4620      	mov	r0, r4
 80053c0:	e739      	b.n	8005236 <PrintNvImage+0x2e>
 80053c2:	bf00      	nop
 80053c4:	1fb8      	subs	r0, r7, #6
 80053c6:	2000      	movs	r0, #0
 80053c8:	6ad5      	ldr	r5, [r2, #44]	; 0x2c
 80053ca:	0800      	lsrs	r0, r0, #32
 80053cc:	5e1d      	ldrsh	r5, [r3, r0]
 80053ce:	0800      	lsrs	r0, r0, #32
 80053d0:	6121      	str	r1, [r4, #16]
 80053d2:	0800      	lsrs	r0, r0, #32
 80053d4:	44d9      	add	r9, fp
 80053d6:	0800      	lsrs	r0, r0, #32
 80053d8:	6ae5      	ldr	r5, [r4, #44]	; 0x2c
 80053da:	0800      	lsrs	r0, r0, #32
 80053dc:	40d1      	lsrs	r1, r2
 80053de:	0800      	lsrs	r0, r0, #32

080053e0 <getFontWithBitmap>:
 80053e0:	4b0a      	ldr	r3, [pc, #40]	; (800540c <getFontWithBitmap+0x2c>)
 80053e2:	781a      	ldrb	r2, [r3, #0]
 80053e4:	1a80      	subs	r0, r0, r2
 80053e6:	4403      	add	r3, r0
 80053e8:	791b      	ldrb	r3, [r3, #4]
 80053ea:	2b24      	cmp	r3, #36	; 0x24
 80053ec:	d00b      	beq.n	8005406 <getFontWithBitmap+0x26>
 80053ee:	2b1b      	cmp	r3, #27
 80053f0:	d006      	beq.n	8005400 <getFontWithBitmap+0x20>
 80053f2:	2b10      	cmp	r3, #16
 80053f4:	bf18      	it	ne
 80053f6:	2000      	movne	r0, #0
 80053f8:	4b05      	ldr	r3, [pc, #20]	; (8005410 <getFontWithBitmap+0x30>)
 80053fa:	bf08      	it	eq
 80053fc:	2002      	moveq	r0, #2
 80053fe:	4718      	bx	r3
 8005400:	4b03      	ldr	r3, [pc, #12]	; (8005410 <getFontWithBitmap+0x30>)
 8005402:	2001      	movs	r0, #1
 8005404:	4718      	bx	r3
 8005406:	4b02      	ldr	r3, [pc, #8]	; (8005410 <getFontWithBitmap+0x30>)
 8005408:	2000      	movs	r0, #0
 800540a:	4718      	bx	r3
 800540c:	3228      	adds	r2, #40	; 0x28
 800540e:	2000      	movs	r0, #0
 8005410:	6a81      	ldr	r1, [r0, #40]	; 0x28
 8005412:	0800      	lsrs	r0, r0, #32

08005414 <getUserDefineCharFirstChar>:
 8005414:	4b01      	ldr	r3, [pc, #4]	; (800541c <getUserDefineCharFirstChar+0x8>)
 8005416:	7818      	ldrb	r0, [r3, #0]
 8005418:	4770      	bx	lr
 800541a:	bf00      	nop
 800541c:	3228      	adds	r2, #40	; 0x28
 800541e:	2000      	movs	r0, #0

08005420 <loadUserDefineCharBitMapCoumn>:
 8005420:	e92d 41f0 	stmdb	sp!, {r4, r5, r6, r7, r8, lr}
 8005424:	4d20      	ldr	r5, [pc, #128]	; (80054a8 <loadUserDefineCharBitMapCoumn+0x88>)
 8005426:	461e      	mov	r6, r3
 8005428:	2a03      	cmp	r2, #3
 800542a:	f04f 0301 	mov.w	r3, #1
 800542e:	4607      	mov	r7, r0
 8005430:	460c      	mov	r4, r1
 8005432:	7028      	strb	r0, [r5, #0]
 8005434:	7069      	strb	r1, [r5, #1]
 8005436:	70eb      	strb	r3, [r5, #3]
 8005438:	d00b      	beq.n	8005452 <loadUserDefineCharBitMapCoumn+0x32>
 800543a:	2a02      	cmp	r2, #2
 800543c:	d001      	beq.n	8005442 <loadUserDefineCharBitMapCoumn+0x22>
 800543e:	e8bd 81f0 	ldmia.w	sp!, {r4, r5, r6, r7, r8, pc}
 8005442:	4b1a      	ldr	r3, [pc, #104]	; (80054ac <loadUserDefineCharBitMapCoumn+0x8c>)
 8005444:	4798      	blx	r3
 8005446:	2802      	cmp	r0, #2
 8005448:	d1f9      	bne.n	800543e <loadUserDefineCharBitMapCoumn+0x1e>
 800544a:	2210      	movs	r2, #16
 800544c:	4613      	mov	r3, r2
 800544e:	4610      	mov	r0, r2
 8005450:	e006      	b.n	8005460 <loadUserDefineCharBitMapCoumn+0x40>
 8005452:	f8df 8058 	ldr.w	r8, [pc, #88]	; 80054ac <loadUserDefineCharBitMapCoumn+0x8c>
 8005456:	47c0      	blx	r8
 8005458:	b9f8      	cbnz	r0, 800549a <loadUserDefineCharBitMapCoumn+0x7a>
 800545a:	2224      	movs	r2, #36	; 0x24
 800545c:	4613      	mov	r3, r2
 800545e:	4610      	mov	r0, r2
 8005460:	3401      	adds	r4, #1
 8005462:	1be4      	subs	r4, r4, r7
 8005464:	b2e4      	uxtb	r4, r4
 8005466:	fb03 f404 	mul.w	r4, r3, r4
 800546a:	f8b5 3dc0 	ldrh.w	r3, [r5, #3520]	; 0xdc0
 800546e:	42a3      	cmp	r3, r4
 8005470:	bfa4      	itt	ge
 8005472:	2300      	movge	r3, #0
 8005474:	f8a5 3dc0 	strhge.w	r3, [r5, #3520]	; 0xdc0
 8005478:	442b      	add	r3, r5
 800547a:	4631      	mov	r1, r6
 800547c:	f883 0d60 	strb.w	r0, [r3, #3424]	; 0xd60
 8005480:	4b0b      	ldr	r3, [pc, #44]	; (80054b0 <loadUserDefineCharBitMapCoumn+0x90>)
 8005482:	480c      	ldr	r0, [pc, #48]	; (80054b4 <loadUserDefineCharBitMapCoumn+0x94>)
 8005484:	4798      	blx	r3
 8005486:	f8b5 3dc0 	ldrh.w	r3, [r5, #3520]	; 0xdc0
 800548a:	18ea      	adds	r2, r5, r3
 800548c:	f892 2d60 	ldrb.w	r2, [r2, #3424]	; 0xd60
 8005490:	4413      	add	r3, r2
 8005492:	f8a5 3dc0 	strh.w	r3, [r5, #3520]	; 0xdc0
 8005496:	e8bd 81f0 	ldmia.w	sp!, {r4, r5, r6, r7, r8, pc}
 800549a:	47c0      	blx	r8
 800549c:	2801      	cmp	r0, #1
 800549e:	d1ce      	bne.n	800543e <loadUserDefineCharBitMapCoumn+0x1e>
 80054a0:	221b      	movs	r2, #27
 80054a2:	4613      	mov	r3, r2
 80054a4:	4610      	mov	r0, r2
 80054a6:	e7db      	b.n	8005460 <loadUserDefineCharBitMapCoumn+0x40>
 80054a8:	3228      	adds	r2, #40	; 0x28
 80054aa:	2000      	movs	r0, #0
 80054ac:	46d5      	mov	sp, sl
 80054ae:	0800      	lsrs	r0, r0, #32
 80054b0:	6a01      	ldr	r1, [r0, #32]
 80054b2:	0800      	lsrs	r0, r0, #32
 80054b4:	322c      	adds	r2, #44	; 0x2c
 80054b6:	2000      	movs	r0, #0

080054b8 <CencledTheUserDefineCharFromMemeory>:
 80054b8:	4b05      	ldr	r3, [pc, #20]	; (80054d0 <CencledTheUserDefineCharFromMemeory+0x18>)
 80054ba:	4618      	mov	r0, r3
 80054bc:	2100      	movs	r1, #0
 80054be:	f8a3 1dc0 	strh.w	r1, [r3, #3520]	; 0xdc0
 80054c2:	f840 1b04 	str.w	r1, [r0], #4
 80054c6:	4b03      	ldr	r3, [pc, #12]	; (80054d4 <CencledTheUserDefineCharFromMemeory+0x1c>)
 80054c8:	f640 525c 	movw	r2, #3420	; 0xd5c
 80054cc:	4718      	bx	r3
 80054ce:	bf00      	nop
 80054d0:	3228      	adds	r2, #40	; 0x28
 80054d2:	2000      	movs	r0, #0
 80054d4:	6a75      	ldr	r5, [r6, #36]	; 0x24
 80054d6:	0800      	lsrs	r0, r0, #32

080054d8 <SelectOrCencelUserDefineChar>:
 80054d8:	4b03      	ldr	r3, [pc, #12]	; (80054e8 <SelectOrCencelUserDefineChar+0x10>)
 80054da:	78da      	ldrb	r2, [r3, #3]
 80054dc:	b112      	cbz	r2, 80054e4 <SelectOrCencelUserDefineChar+0xc>
 80054de:	f000 0001 	and.w	r0, r0, #1
 80054e2:	7098      	strb	r0, [r3, #2]
 80054e4:	4770      	bx	lr
 80054e6:	bf00      	nop
 80054e8:	3228      	adds	r2, #40	; 0x28
 80054ea:	2000      	movs	r0, #0

080054ec <UserDefineChar_NumberDataByte>:
 80054ec:	b538      	push	{r3, r4, r5, lr}
 80054ee:	4c06      	ldr	r4, [pc, #24]	; (8005508 <UserDefineChar_NumberDataByte+0x1c>)
 80054f0:	47a0      	blx	r4
 80054f2:	47a0      	blx	r4
 80054f4:	2801      	cmp	r0, #1
 80054f6:	bf14      	ite	ne
 80054f8:	2524      	movne	r5, #36	; 0x24
 80054fa:	251b      	moveq	r5, #27
 80054fc:	47a0      	blx	r4
 80054fe:	2802      	cmp	r0, #2
 8005500:	bf14      	ite	ne
 8005502:	4628      	movne	r0, r5
 8005504:	2010      	moveq	r0, #16
 8005506:	bd38      	pop	{r3, r4, r5, pc}
 8005508:	46d5      	mov	sp, sl
 800550a:	0800      	lsrs	r0, r0, #32

0800550c <getStateOFuserDefine>:
 800550c:	4a07      	ldr	r2, [pc, #28]	; (800552c <getStateOFuserDefine+0x20>)
 800550e:	78d3      	ldrb	r3, [r2, #3]
 8005510:	b14b      	cbz	r3, 8005526 <getStateOFuserDefine+0x1a>
 8005512:	7893      	ldrb	r3, [r2, #2]
 8005514:	b13b      	cbz	r3, 8005526 <getStateOFuserDefine+0x1a>
 8005516:	7813      	ldrb	r3, [r2, #0]
 8005518:	1ac0      	subs	r0, r0, r3
 800551a:	4402      	add	r2, r0
 800551c:	f892 3d60 	ldrb.w	r3, [r2, #3424]	; 0xd60
 8005520:	3b00      	subs	r3, #0
 8005522:	bf18      	it	ne
 8005524:	2301      	movne	r3, #1
 8005526:	4618      	mov	r0, r3
 8005528:	4770      	bx	lr
 800552a:	bf00      	nop
 800552c:	3228      	adds	r2, #40	; 0x28
 800552e:	2000      	movs	r0, #0

08005530 <usart_config>:
 8005530:	b570      	push	{r4, r5, r6, lr}
 8005532:	4e1a      	ldr	r6, [pc, #104]	; (800559c <usart_config+0x6c>)
 8005534:	4c1a      	ldr	r4, [pc, #104]	; (80055a0 <usart_config+0x70>)
 8005536:	4605      	mov	r5, r0
 8005538:	f44f 7300 	mov.w	r3, #512	; 0x200
 800553c:	4630      	mov	r0, r6
 800553e:	2204      	movs	r2, #4
 8005540:	2118      	movs	r1, #24
 8005542:	47a0      	blx	r4
 8005544:	2204      	movs	r2, #4
 8005546:	4611      	mov	r1, r2
 8005548:	4630      	mov	r0, r6
 800554a:	f44f 6380 	mov.w	r3, #1024	; 0x400
 800554e:	47a0      	blx	r4
 8005550:	4c14      	ldr	r4, [pc, #80]	; (80055a4 <usart_config+0x74>)
 8005552:	4b15      	ldr	r3, [pc, #84]	; (80055a8 <usart_config+0x78>)
 8005554:	4629      	mov	r1, r5
 8005556:	4620      	mov	r0, r4
 8005558:	4798      	blx	r3
 800555a:	4620      	mov	r0, r4
 800555c:	4b13      	ldr	r3, [pc, #76]	; (80055ac <usart_config+0x7c>)
 800555e:	2104      	movs	r1, #4
 8005560:	4798      	blx	r3
 8005562:	2108      	movs	r1, #8
 8005564:	4620      	mov	r0, r4
 8005566:	4b12      	ldr	r3, [pc, #72]	; (80055b0 <usart_config+0x80>)
 8005568:	4798      	blx	r3
 800556a:	4620      	mov	r0, r4
 800556c:	4b11      	ldr	r3, [pc, #68]	; (80055b4 <usart_config+0x84>)
 800556e:	4798      	blx	r3
 8005570:	4620      	mov	r0, r4
 8005572:	4b11      	ldr	r3, [pc, #68]	; (80055b8 <usart_config+0x88>)
 8005574:	f44f 7100 	mov.w	r1, #512	; 0x200
 8005578:	4798      	blx	r3
 800557a:	4620      	mov	r0, r4
 800557c:	4b0f      	ldr	r3, [pc, #60]	; (80055bc <usart_config+0x8c>)
 800557e:	f44f 7180 	mov.w	r1, #256	; 0x100
 8005582:	4798      	blx	r3
 8005584:	2200      	movs	r2, #0
 8005586:	4b0e      	ldr	r3, [pc, #56]	; (80055c0 <usart_config+0x90>)
 8005588:	4611      	mov	r1, r2
 800558a:	2025      	movs	r0, #37	; 0x25
 800558c:	4798      	blx	r3
 800558e:	4620      	mov	r0, r4
 8005590:	4b0c      	ldr	r3, [pc, #48]	; (80055c4 <usart_config+0x94>)
 8005592:	e8bd 4070 	ldmia.w	sp!, {r4, r5, r6, lr}
 8005596:	f240 3105 	movw	r1, #773	; 0x305
 800559a:	4718      	bx	r3
 800559c:	0800      	lsrs	r0, r0, #32
 800559e:	4001      	ands	r1, r0
 80055a0:	07b9      	lsls	r1, r7, #30
 80055a2:	0800      	lsrs	r0, r0, #32
 80055a4:	3800      	subs	r0, #0
 80055a6:	4001      	ands	r1, r0
 80055a8:	14a5      	asrs	r5, r4, #18
 80055aa:	0800      	lsrs	r0, r0, #32
 80055ac:	151d      	asrs	r5, r3, #20
 80055ae:	0800      	lsrs	r0, r0, #32
 80055b0:	1509      	asrs	r1, r1, #20
 80055b2:	0800      	lsrs	r0, r0, #32
 80055b4:	14fd      	asrs	r5, r7, #19
 80055b6:	0800      	lsrs	r0, r0, #32
 80055b8:	154d      	asrs	r5, r1, #21
 80055ba:	0800      	lsrs	r0, r0, #32
 80055bc:	1539      	asrs	r1, r7, #20
 80055be:	0800      	lsrs	r0, r0, #32
 80055c0:	0c81      	lsrs	r1, r0, #18
 80055c2:	0800      	lsrs	r0, r0, #32
 80055c4:	1561      	asrs	r1, r4, #21
 80055c6:	0800      	lsrs	r0, r0, #32

080055c8 <usart_isr>:
 80055c8:	b500      	push	{lr}
 80055ca:	490d      	ldr	r1, [pc, #52]	; (8005600 <usart_isr+0x38>)
 80055cc:	480d      	ldr	r0, [pc, #52]	; (8005604 <usart_isr+0x3c>)
 80055ce:	4b0e      	ldr	r3, [pc, #56]	; (8005608 <usart_isr+0x40>)
 80055d0:	b083      	sub	sp, #12
 80055d2:	4798      	blx	r3
 80055d4:	b910      	cbnz	r0, 80055dc <usart_isr+0x14>
 80055d6:	b003      	add	sp, #12
 80055d8:	f85d fb04 	ldr.w	pc, [sp], #4
 80055dc:	4b0b      	ldr	r3, [pc, #44]	; (800560c <usart_isr+0x44>)
 80055de:	4809      	ldr	r0, [pc, #36]	; (8005604 <usart_isr+0x3c>)
 80055e0:	4798      	blx	r3
 80055e2:	4907      	ldr	r1, [pc, #28]	; (8005600 <usart_isr+0x38>)
 80055e4:	4b0a      	ldr	r3, [pc, #40]	; (8005610 <usart_isr+0x48>)
 80055e6:	4602      	mov	r2, r0
 80055e8:	4806      	ldr	r0, [pc, #24]	; (8005604 <usart_isr+0x3c>)
 80055ea:	f88d 2007 	strb.w	r2, [sp, #7]
 80055ee:	4798      	blx	r3
 80055f0:	4b08      	ldr	r3, [pc, #32]	; (8005614 <usart_isr+0x4c>)
 80055f2:	2101      	movs	r1, #1
 80055f4:	f10d 0007 	add.w	r0, sp, #7
 80055f8:	4798      	blx	r3
 80055fa:	b003      	add	sp, #12
 80055fc:	f85d fb04 	ldr.w	pc, [sp], #4
 8005600:	0305      	lsls	r5, r0, #12
 8005602:	0005      	movs	r5, r0
 8005604:	3800      	subs	r0, #0
 8005606:	4001      	ands	r1, r0
 8005608:	1579      	asrs	r1, r7, #21
 800560a:	0800      	lsrs	r0, r0, #32
 800560c:	1531      	asrs	r1, r6, #20
 800560e:	0800      	lsrs	r0, r0, #32
 8005610:	15a9      	asrs	r1, r5, #22
 8005612:	0800      	lsrs	r0, r0, #32
 8005614:	2c9d      	cmp	r4, #157	; 0x9d
 8005616:	0800      	lsrs	r0, r0, #32

08005618 <ResetDriver>:
 8005618:	4a02      	ldr	r2, [pc, #8]	; (8005624 <ResetDriver+0xc>)
 800561a:	7813      	ldrb	r3, [r2, #0]
 800561c:	f043 0301 	orr.w	r3, r3, #1
 8005620:	7013      	strb	r3, [r2, #0]
 8005622:	4770      	bx	lr
 8005624:	4220      	tst	r0, r4
 8005626:	2000      	movs	r0, #0

08005628 <writePage>:
 8005628:	b570      	push	{r4, r5, r6, lr}
 800562a:	4c22      	ldr	r4, [pc, #136]	; (80056b4 <writePage+0x8c>)
 800562c:	f894 3028 	ldrb.w	r3, [r4, #40]	; 0x28
 8005630:	b933      	cbnz	r3, 8005640 <writePage+0x18>
 8005632:	7862      	ldrb	r2, [r4, #1]
 8005634:	4920      	ldr	r1, [pc, #128]	; (80056b8 <writePage+0x90>)
 8005636:	62e1      	str	r1, [r4, #44]	; 0x2c
 8005638:	f363 02c3 	bfi	r2, r3, #3, #1
 800563c:	7062      	strb	r2, [r4, #1]
 800563e:	bd70      	pop	{r4, r5, r6, pc}
 8005640:	7822      	ldrb	r2, [r4, #0]
 8005642:	481e      	ldr	r0, [pc, #120]	; (80056bc <writePage+0x94>)
 8005644:	491c      	ldr	r1, [pc, #112]	; (80056b8 <writePage+0x90>)
 8005646:	3b01      	subs	r3, #1
 8005648:	b2db      	uxtb	r3, r3
 800564a:	f022 0206 	bic.w	r2, r2, #6
 800564e:	2b00      	cmp	r3, #0
 8005650:	f042 0202 	orr.w	r2, r2, #2
 8005654:	f884 3028 	strb.w	r3, [r4, #40]	; 0x28
 8005658:	7863      	ldrb	r3, [r4, #1]
 800565a:	7022      	strb	r2, [r4, #0]
 800565c:	bf0e      	itee	eq
 800565e:	2200      	moveq	r2, #0
 8005660:	2201      	movne	r2, #1
 8005662:	4601      	movne	r1, r0
 8005664:	f362 03c3 	bfi	r3, r2, #3, #1
 8005668:	2503      	movs	r5, #3
 800566a:	62e1      	str	r1, [r4, #44]	; 0x2c
 800566c:	7063      	strb	r3, [r4, #1]
 800566e:	4814      	ldr	r0, [pc, #80]	; (80056c0 <writePage+0x98>)
 8005670:	4a14      	ldr	r2, [pc, #80]	; (80056c4 <writePage+0x9c>)
 8005672:	f884 5029 	strb.w	r5, [r4, #41]	; 0x29
 8005676:	f44f 7380 	mov.w	r3, #256	; 0x100
 800567a:	f44f 4100 	mov.w	r1, #32768	; 0x8000
 800567e:	60e5      	str	r5, [r4, #12]
 8005680:	60a3      	str	r3, [r4, #8]
 8005682:	4790      	blx	r2
 8005684:	bf00      	nop
 8005686:	4810      	ldr	r0, [pc, #64]	; (80056c8 <writePage+0xa0>)
 8005688:	4b10      	ldr	r3, [pc, #64]	; (80056cc <writePage+0xa4>)
 800568a:	4798      	blx	r3
 800568c:	480e      	ldr	r0, [pc, #56]	; (80056c8 <writePage+0xa0>)
 800568e:	4b10      	ldr	r3, [pc, #64]	; (80056d0 <writePage+0xa8>)
 8005690:	2101      	movs	r1, #1
 8005692:	4798      	blx	r3
 8005694:	4b0f      	ldr	r3, [pc, #60]	; (80056d4 <writePage+0xac>)
 8005696:	2202      	movs	r2, #2
 8005698:	2100      	movs	r1, #0
 800569a:	2033      	movs	r0, #51	; 0x33
 800569c:	4798      	blx	r3
 800569e:	f104 0030 	add.w	r0, r4, #48	; 0x30
 80056a2:	4b0d      	ldr	r3, [pc, #52]	; (80056d8 <writePage+0xb0>)
 80056a4:	2164      	movs	r1, #100	; 0x64
 80056a6:	4798      	blx	r3
 80056a8:	e8bd 4070 	ldmia.w	sp!, {r4, r5, r6, lr}
 80056ac:	4806      	ldr	r0, [pc, #24]	; (80056c8 <writePage+0xa0>)
 80056ae:	4b0b      	ldr	r3, [pc, #44]	; (80056dc <writePage+0xb4>)
 80056b0:	2102      	movs	r1, #2
 80056b2:	4718      	bx	r3
 80056b4:	4220      	tst	r0, r4
 80056b6:	2000      	movs	r0, #0
 80056b8:	56e1      	ldrsb	r1, [r4, r3]
 80056ba:	0800      	lsrs	r0, r0, #32
 80056bc:	597d      	ldr	r5, [r7, r5]
 80056be:	0800      	lsrs	r0, r0, #32
 80056c0:	0800      	lsrs	r0, r0, #32
 80056c2:	4001      	ands	r1, r0
 80056c4:	0b75      	lsrs	r5, r6, #13
 80056c6:	0800      	lsrs	r0, r0, #32
 80056c8:	3c00      	subs	r4, #0
 80056ca:	4000      	ands	r0, r0
 80056cc:	10dd      	asrs	r5, r3, #3
 80056ce:	0800      	lsrs	r0, r0, #32
 80056d0:	1101      	asrs	r1, r0, #4
 80056d2:	0800      	lsrs	r0, r0, #32
 80056d4:	0c81      	lsrs	r1, r0, #18
 80056d6:	0800      	lsrs	r0, r0, #32
 80056d8:	16d1      	asrs	r1, r2, #27
 80056da:	0800      	lsrs	r0, r0, #32
 80056dc:	10f5      	asrs	r5, r6, #3
 80056de:	0800      	lsrs	r0, r0, #32

080056e0 <flash_writeDisable>:
 80056e0:	b570      	push	{r4, r5, r6, lr}
 80056e2:	4c14      	ldr	r4, [pc, #80]	; (8005734 <flash_writeDisable+0x54>)
 80056e4:	4a14      	ldr	r2, [pc, #80]	; (8005738 <flash_writeDisable+0x58>)
 80056e6:	7823      	ldrb	r3, [r4, #0]
 80056e8:	4814      	ldr	r0, [pc, #80]	; (800573c <flash_writeDisable+0x5c>)
 80056ea:	62e2      	str	r2, [r4, #44]	; 0x2c
 80056ec:	f023 0316 	bic.w	r3, r3, #22
 80056f0:	2600      	movs	r6, #0
 80056f2:	7023      	strb	r3, [r4, #0]
 80056f4:	f44f 4100 	mov.w	r1, #32768	; 0x8000
 80056f8:	4b11      	ldr	r3, [pc, #68]	; (8005740 <flash_writeDisable+0x60>)
 80056fa:	f884 6029 	strb.w	r6, [r4, #41]	; 0x29
 80056fe:	60a6      	str	r6, [r4, #8]
 8005700:	4798      	blx	r3
 8005702:	bf00      	nop
 8005704:	4d0f      	ldr	r5, [pc, #60]	; (8005744 <flash_writeDisable+0x64>)
 8005706:	4b10      	ldr	r3, [pc, #64]	; (8005748 <flash_writeDisable+0x68>)
 8005708:	4628      	mov	r0, r5
 800570a:	4798      	blx	r3
 800570c:	4628      	mov	r0, r5
 800570e:	4b0f      	ldr	r3, [pc, #60]	; (800574c <flash_writeDisable+0x6c>)
 8005710:	2101      	movs	r1, #1
 8005712:	4798      	blx	r3
 8005714:	4631      	mov	r1, r6
 8005716:	4b0e      	ldr	r3, [pc, #56]	; (8005750 <flash_writeDisable+0x70>)
 8005718:	2202      	movs	r2, #2
 800571a:	2033      	movs	r0, #51	; 0x33
 800571c:	4798      	blx	r3
 800571e:	f104 0030 	add.w	r0, r4, #48	; 0x30
 8005722:	4b0c      	ldr	r3, [pc, #48]	; (8005754 <flash_writeDisable+0x74>)
 8005724:	2164      	movs	r1, #100	; 0x64
 8005726:	4798      	blx	r3
 8005728:	4628      	mov	r0, r5
 800572a:	4b0b      	ldr	r3, [pc, #44]	; (8005758 <flash_writeDisable+0x78>)
 800572c:	e8bd 4070 	ldmia.w	sp!, {r4, r5, r6, lr}
 8005730:	2104      	movs	r1, #4
 8005732:	4718      	bx	r3
 8005734:	4220      	tst	r0, r4
 8005736:	2000      	movs	r0, #0
 8005738:	5619      	ldrsb	r1, [r3, r0]
 800573a:	0800      	lsrs	r0, r0, #32
 800573c:	0800      	lsrs	r0, r0, #32
 800573e:	4001      	ands	r1, r0
 8005740:	0b75      	lsrs	r5, r6, #13
 8005742:	0800      	lsrs	r0, r0, #32
 8005744:	3c00      	subs	r4, #0
 8005746:	4000      	ands	r0, r0
 8005748:	10dd      	asrs	r5, r3, #3
 800574a:	0800      	lsrs	r0, r0, #32
 800574c:	1101      	asrs	r1, r0, #4
 800574e:	0800      	lsrs	r0, r0, #32
 8005750:	0c81      	lsrs	r1, r0, #18
 8005752:	0800      	lsrs	r0, r0, #32
 8005754:	16d1      	asrs	r1, r2, #27
 8005756:	0800      	lsrs	r0, r0, #32
 8005758:	10f5      	asrs	r5, r6, #3
 800575a:	0800      	lsrs	r0, r0, #32

0800575c <WriteStatusReg>:
 800575c:	b570      	push	{r4, r5, r6, lr}
 800575e:	4c17      	ldr	r4, [pc, #92]	; (80057bc <WriteStatusReg+0x60>)
 8005760:	4917      	ldr	r1, [pc, #92]	; (80057c0 <WriteStatusReg+0x64>)
 8005762:	7823      	ldrb	r3, [r4, #0]
 8005764:	62e1      	str	r1, [r4, #44]	; 0x2c
 8005766:	f023 0306 	bic.w	r3, r3, #6
 800576a:	f043 0302 	orr.w	r3, r3, #2
 800576e:	4815      	ldr	r0, [pc, #84]	; (80057c4 <WriteStatusReg+0x68>)
 8005770:	4a15      	ldr	r2, [pc, #84]	; (80057c8 <WriteStatusReg+0x6c>)
 8005772:	7023      	strb	r3, [r4, #0]
 8005774:	2503      	movs	r5, #3
 8005776:	f44f 4100 	mov.w	r1, #32768	; 0x8000
 800577a:	2600      	movs	r6, #0
 800577c:	f884 5029 	strb.w	r5, [r4, #41]	; 0x29
 8005780:	60a6      	str	r6, [r4, #8]
 8005782:	4790      	blx	r2
 8005784:	bf00      	nop
 8005786:	4d11      	ldr	r5, [pc, #68]	; (80057cc <WriteStatusReg+0x70>)
 8005788:	4b11      	ldr	r3, [pc, #68]	; (80057d0 <WriteStatusReg+0x74>)
 800578a:	4628      	mov	r0, r5
 800578c:	4798      	blx	r3
 800578e:	4628      	mov	r0, r5
 8005790:	4b10      	ldr	r3, [pc, #64]	; (80057d4 <WriteStatusReg+0x78>)
 8005792:	2101      	movs	r1, #1
 8005794:	4798      	blx	r3
 8005796:	4631      	mov	r1, r6
 8005798:	4b0f      	ldr	r3, [pc, #60]	; (80057d8 <WriteStatusReg+0x7c>)
 800579a:	2202      	movs	r2, #2
 800579c:	2033      	movs	r0, #51	; 0x33
 800579e:	4798      	blx	r3
 80057a0:	f104 0030 	add.w	r0, r4, #48	; 0x30
 80057a4:	4b0d      	ldr	r3, [pc, #52]	; (80057dc <WriteStatusReg+0x80>)
 80057a6:	2164      	movs	r1, #100	; 0x64
 80057a8:	f44f 727a 	mov.w	r2, #1000	; 0x3e8
 80057ac:	60e2      	str	r2, [r4, #12]
 80057ae:	4798      	blx	r3
 80057b0:	4628      	mov	r0, r5
 80057b2:	4b0b      	ldr	r3, [pc, #44]	; (80057e0 <WriteStatusReg+0x84>)
 80057b4:	e8bd 4070 	ldmia.w	sp!, {r4, r5, r6, lr}
 80057b8:	2101      	movs	r1, #1
 80057ba:	4718      	bx	r3
 80057bc:	4220      	tst	r0, r4
 80057be:	2000      	movs	r0, #0
 80057c0:	56e1      	ldrsb	r1, [r4, r3]
 80057c2:	0800      	lsrs	r0, r0, #32
 80057c4:	0800      	lsrs	r0, r0, #32
 80057c6:	4001      	ands	r1, r0
 80057c8:	0b75      	lsrs	r5, r6, #13
 80057ca:	0800      	lsrs	r0, r0, #32
 80057cc:	3c00      	subs	r4, #0
 80057ce:	4000      	ands	r0, r0
 80057d0:	10dd      	asrs	r5, r3, #3
 80057d2:	0800      	lsrs	r0, r0, #32
 80057d4:	1101      	asrs	r1, r0, #4
 80057d6:	0800      	lsrs	r0, r0, #32
 80057d8:	0c81      	lsrs	r1, r0, #18
 80057da:	0800      	lsrs	r0, r0, #32
 80057dc:	16d1      	asrs	r1, r2, #27
 80057de:	0800      	lsrs	r0, r0, #32
 80057e0:	10f5      	asrs	r5, r6, #3
 80057e2:	0800      	lsrs	r0, r0, #32

080057e4 <erase_chip>:
 80057e4:	b570      	push	{r4, r5, r6, lr}
 80057e6:	4c17      	ldr	r4, [pc, #92]	; (8005844 <erase_chip+0x60>)
 80057e8:	4a17      	ldr	r2, [pc, #92]	; (8005848 <erase_chip+0x64>)
 80057ea:	7823      	ldrb	r3, [r4, #0]
 80057ec:	62e2      	str	r2, [r4, #44]	; 0x2c
 80057ee:	f023 0306 	bic.w	r3, r3, #6
 80057f2:	f043 0302 	orr.w	r3, r3, #2
 80057f6:	2500      	movs	r5, #0
 80057f8:	f104 0030 	add.w	r0, r4, #48	; 0x30
 80057fc:	7023      	strb	r3, [r4, #0]
 80057fe:	2164      	movs	r1, #100	; 0x64
 8005800:	4b12      	ldr	r3, [pc, #72]	; (800584c <erase_chip+0x68>)
 8005802:	f884 5029 	strb.w	r5, [r4, #41]	; 0x29
 8005806:	60a5      	str	r5, [r4, #8]
 8005808:	4798      	blx	r3
 800580a:	f24c 3250 	movw	r2, #50000	; 0xc350
 800580e:	4810      	ldr	r0, [pc, #64]	; (8005850 <erase_chip+0x6c>)
 8005810:	4b10      	ldr	r3, [pc, #64]	; (8005854 <erase_chip+0x70>)
 8005812:	60e2      	str	r2, [r4, #12]
 8005814:	f44f 4100 	mov.w	r1, #32768	; 0x8000
 8005818:	4798      	blx	r3
 800581a:	bf00      	nop
 800581c:	4c0e      	ldr	r4, [pc, #56]	; (8005858 <erase_chip+0x74>)
 800581e:	4b0f      	ldr	r3, [pc, #60]	; (800585c <erase_chip+0x78>)
 8005820:	4620      	mov	r0, r4
 8005822:	4798      	blx	r3
 8005824:	4620      	mov	r0, r4
 8005826:	4b0e      	ldr	r3, [pc, #56]	; (8005860 <erase_chip+0x7c>)
 8005828:	2101      	movs	r1, #1
 800582a:	4798      	blx	r3
 800582c:	4629      	mov	r1, r5
 800582e:	4b0d      	ldr	r3, [pc, #52]	; (8005864 <erase_chip+0x80>)
 8005830:	2033      	movs	r0, #51	; 0x33
 8005832:	2202      	movs	r2, #2
 8005834:	4798      	blx	r3
 8005836:	4620      	mov	r0, r4
 8005838:	4b0b      	ldr	r3, [pc, #44]	; (8005868 <erase_chip+0x84>)
 800583a:	e8bd 4070 	ldmia.w	sp!, {r4, r5, r6, lr}
 800583e:	2160      	movs	r1, #96	; 0x60
 8005840:	4718      	bx	r3
 8005842:	bf00      	nop
 8005844:	4220      	tst	r0, r4
 8005846:	2000      	movs	r0, #0
 8005848:	56e1      	ldrsb	r1, [r4, r3]
 800584a:	0800      	lsrs	r0, r0, #32
 800584c:	16d1      	asrs	r1, r2, #27
 800584e:	0800      	lsrs	r0, r0, #32
 8005850:	0800      	lsrs	r0, r0, #32
 8005852:	4001      	ands	r1, r0
 8005854:	0b75      	lsrs	r5, r6, #13
 8005856:	0800      	lsrs	r0, r0, #32
 8005858:	3c00      	subs	r4, #0
 800585a:	4000      	ands	r0, r0
 800585c:	10dd      	asrs	r5, r3, #3
 800585e:	0800      	lsrs	r0, r0, #32
 8005860:	1101      	asrs	r1, r0, #4
 8005862:	0800      	lsrs	r0, r0, #32
 8005864:	0c81      	lsrs	r1, r0, #18
 8005866:	0800      	lsrs	r0, r0, #32
 8005868:	10f5      	asrs	r5, r6, #3
 800586a:	0800      	lsrs	r0, r0, #32

0800586c <erase_sector>:
 800586c:	b570      	push	{r4, r5, r6, lr}
 800586e:	4c17      	ldr	r4, [pc, #92]	; (80058cc <erase_sector+0x60>)
 8005870:	4917      	ldr	r1, [pc, #92]	; (80058d0 <erase_sector+0x64>)
 8005872:	7823      	ldrb	r3, [r4, #0]
 8005874:	62e1      	str	r1, [r4, #44]	; 0x2c
 8005876:	f023 0306 	bic.w	r3, r3, #6
 800587a:	f043 0302 	orr.w	r3, r3, #2
 800587e:	2503      	movs	r5, #3
 8005880:	f104 0030 	add.w	r0, r4, #48	; 0x30
 8005884:	f884 5029 	strb.w	r5, [r4, #41]	; 0x29
 8005888:	7023      	strb	r3, [r4, #0]
 800588a:	4a12      	ldr	r2, [pc, #72]	; (80058d4 <erase_sector+0x68>)
 800588c:	2164      	movs	r1, #100	; 0x64
 800588e:	2500      	movs	r5, #0
 8005890:	60a5      	str	r5, [r4, #8]
 8005892:	4790      	blx	r2
 8005894:	22c8      	movs	r2, #200	; 0xc8
 8005896:	4810      	ldr	r0, [pc, #64]	; (80058d8 <erase_sector+0x6c>)
 8005898:	4b10      	ldr	r3, [pc, #64]	; (80058dc <erase_sector+0x70>)
 800589a:	60e2      	str	r2, [r4, #12]
 800589c:	f44f 4100 	mov.w	r1, #32768	; 0x8000
 80058a0:	4798      	blx	r3
 80058a2:	bf00      	nop
 80058a4:	4c0e      	ldr	r4, [pc, #56]	; (80058e0 <erase_sector+0x74>)
 80058a6:	4b0f      	ldr	r3, [pc, #60]	; (80058e4 <erase_sector+0x78>)
 80058a8:	4620      	mov	r0, r4
 80058aa:	4798      	blx	r3
 80058ac:	4620      	mov	r0, r4
 80058ae:	4b0e      	ldr	r3, [pc, #56]	; (80058e8 <erase_sector+0x7c>)
 80058b0:	2101      	movs	r1, #1
 80058b2:	4798      	blx	r3
 80058b4:	4629      	mov	r1, r5
 80058b6:	4b0d      	ldr	r3, [pc, #52]	; (80058ec <erase_sector+0x80>)
 80058b8:	2033      	movs	r0, #51	; 0x33
 80058ba:	2202      	movs	r2, #2
 80058bc:	4798      	blx	r3
 80058be:	4620      	mov	r0, r4
 80058c0:	4b0b      	ldr	r3, [pc, #44]	; (80058f0 <erase_sector+0x84>)
 80058c2:	e8bd 4070 	ldmia.w	sp!, {r4, r5, r6, lr}
 80058c6:	2120      	movs	r1, #32
 80058c8:	4718      	bx	r3
 80058ca:	bf00      	nop
 80058cc:	4220      	tst	r0, r4
 80058ce:	2000      	movs	r0, #0
 80058d0:	56e1      	ldrsb	r1, [r4, r3]
 80058d2:	0800      	lsrs	r0, r0, #32
 80058d4:	16d1      	asrs	r1, r2, #27
 80058d6:	0800      	lsrs	r0, r0, #32
 80058d8:	0800      	lsrs	r0, r0, #32
 80058da:	4001      	ands	r1, r0
 80058dc:	0b75      	lsrs	r5, r6, #13
 80058de:	0800      	lsrs	r0, r0, #32
 80058e0:	3c00      	subs	r4, #0
 80058e2:	4000      	ands	r0, r0
 80058e4:	10dd      	asrs	r5, r3, #3
 80058e6:	0800      	lsrs	r0, r0, #32
 80058e8:	1101      	asrs	r1, r0, #4
 80058ea:	0800      	lsrs	r0, r0, #32
 80058ec:	0c81      	lsrs	r1, r0, #18
 80058ee:	0800      	lsrs	r0, r0, #32
 80058f0:	10f5      	asrs	r5, r6, #3
 80058f2:	0800      	lsrs	r0, r0, #32

080058f4 <erase_block>:
 80058f4:	b570      	push	{r4, r5, r6, lr}
 80058f6:	4c17      	ldr	r4, [pc, #92]	; (8005954 <erase_block+0x60>)
 80058f8:	4917      	ldr	r1, [pc, #92]	; (8005958 <erase_block+0x64>)
 80058fa:	7823      	ldrb	r3, [r4, #0]
 80058fc:	62e1      	str	r1, [r4, #44]	; 0x2c
 80058fe:	f023 0306 	bic.w	r3, r3, #6
 8005902:	f043 0302 	orr.w	r3, r3, #2
 8005906:	4815      	ldr	r0, [pc, #84]	; (800595c <erase_block+0x68>)
 8005908:	4a15      	ldr	r2, [pc, #84]	; (8005960 <erase_block+0x6c>)
 800590a:	7023      	strb	r3, [r4, #0]
 800590c:	2503      	movs	r5, #3
 800590e:	f44f 4100 	mov.w	r1, #32768	; 0x8000
 8005912:	2600      	movs	r6, #0
 8005914:	f884 5029 	strb.w	r5, [r4, #41]	; 0x29
 8005918:	60a6      	str	r6, [r4, #8]
 800591a:	4790      	blx	r2
 800591c:	bf00      	nop
 800591e:	4d11      	ldr	r5, [pc, #68]	; (8005964 <erase_block+0x70>)
 8005920:	4b11      	ldr	r3, [pc, #68]	; (8005968 <erase_block+0x74>)
 8005922:	4628      	mov	r0, r5
 8005924:	4798      	blx	r3
 8005926:	4628      	mov	r0, r5
 8005928:	4b10      	ldr	r3, [pc, #64]	; (800596c <erase_block+0x78>)
 800592a:	2101      	movs	r1, #1
 800592c:	4798      	blx	r3
 800592e:	4631      	mov	r1, r6
 8005930:	4b0f      	ldr	r3, [pc, #60]	; (8005970 <erase_block+0x7c>)
 8005932:	2202      	movs	r2, #2
 8005934:	2033      	movs	r0, #51	; 0x33
 8005936:	4798      	blx	r3
 8005938:	f104 0030 	add.w	r0, r4, #48	; 0x30
 800593c:	4b0d      	ldr	r3, [pc, #52]	; (8005974 <erase_block+0x80>)
 800593e:	2164      	movs	r1, #100	; 0x64
 8005940:	f44f 727a 	mov.w	r2, #1000	; 0x3e8
 8005944:	60e2      	str	r2, [r4, #12]
 8005946:	4798      	blx	r3
 8005948:	4628      	mov	r0, r5
 800594a:	4b0b      	ldr	r3, [pc, #44]	; (8005978 <erase_block+0x84>)
 800594c:	e8bd 4070 	ldmia.w	sp!, {r4, r5, r6, lr}
 8005950:	21d8      	movs	r1, #216	; 0xd8
 8005952:	4718      	bx	r3
 8005954:	4220      	tst	r0, r4
 8005956:	2000      	movs	r0, #0
 8005958:	56e1      	ldrsb	r1, [r4, r3]
 800595a:	0800      	lsrs	r0, r0, #32
 800595c:	0800      	lsrs	r0, r0, #32
 800595e:	4001      	ands	r1, r0
 8005960:	0b75      	lsrs	r5, r6, #13
 8005962:	0800      	lsrs	r0, r0, #32
 8005964:	3c00      	subs	r4, #0
 8005966:	4000      	ands	r0, r0
 8005968:	10dd      	asrs	r5, r3, #3
 800596a:	0800      	lsrs	r0, r0, #32
 800596c:	1101      	asrs	r1, r0, #4
 800596e:	0800      	lsrs	r0, r0, #32
 8005970:	0c81      	lsrs	r1, r0, #18
 8005972:	0800      	lsrs	r0, r0, #32
 8005974:	16d1      	asrs	r1, r2, #27
 8005976:	0800      	lsrs	r0, r0, #32
 8005978:	10f5      	asrs	r5, r6, #3
 800597a:	0800      	lsrs	r0, r0, #32

0800597c <flash_writeEnable>:
 800597c:	4b26      	ldr	r3, [pc, #152]	; (8005a18 <flash_writeEnable+0x9c>)
 800597e:	785a      	ldrb	r2, [r3, #1]
 8005980:	f002 0207 	and.w	r2, r2, #7
 8005984:	2a04      	cmp	r2, #4
 8005986:	d845      	bhi.n	8005a14 <flash_writeEnable+0x98>
 8005988:	e8df f002 	tbb	[pc, r2]
 800598c:	3b2a      	subs	r3, #42	; 0x2a
 800598e:	413e      	asrs	r6, r7
 8005990:	0003      	movs	r3, r0
 8005992:	4a22      	ldr	r2, [pc, #136]	; (8005a1c <flash_writeEnable+0xa0>)
 8005994:	62da      	str	r2, [r3, #44]	; 0x2c
 8005996:	781a      	ldrb	r2, [r3, #0]
 8005998:	4821      	ldr	r0, [pc, #132]	; (8005a20 <flash_writeEnable+0xa4>)
 800599a:	f022 0206 	bic.w	r2, r2, #6
 800599e:	b570      	push	{r4, r5, r6, lr}
 80059a0:	f44f 4100 	mov.w	r1, #32768	; 0x8000
 80059a4:	2400      	movs	r4, #0
 80059a6:	4d1f      	ldr	r5, [pc, #124]	; (8005a24 <flash_writeEnable+0xa8>)
 80059a8:	701a      	strb	r2, [r3, #0]
 80059aa:	f883 4029 	strb.w	r4, [r3, #41]	; 0x29
 80059ae:	609c      	str	r4, [r3, #8]
 80059b0:	47a8      	blx	r5
 80059b2:	bf00      	nop
 80059b4:	481c      	ldr	r0, [pc, #112]	; (8005a28 <flash_writeEnable+0xac>)
 80059b6:	4b1d      	ldr	r3, [pc, #116]	; (8005a2c <flash_writeEnable+0xb0>)
 80059b8:	4798      	blx	r3
 80059ba:	481b      	ldr	r0, [pc, #108]	; (8005a28 <flash_writeEnable+0xac>)
 80059bc:	4b1c      	ldr	r3, [pc, #112]	; (8005a30 <flash_writeEnable+0xb4>)
 80059be:	2101      	movs	r1, #1
 80059c0:	4798      	blx	r3
 80059c2:	4621      	mov	r1, r4
 80059c4:	4b1b      	ldr	r3, [pc, #108]	; (8005a34 <flash_writeEnable+0xb8>)
 80059c6:	2202      	movs	r2, #2
 80059c8:	2033      	movs	r0, #51	; 0x33
 80059ca:	4798      	blx	r3
 80059cc:	481a      	ldr	r0, [pc, #104]	; (8005a38 <flash_writeEnable+0xbc>)
 80059ce:	4b1b      	ldr	r3, [pc, #108]	; (8005a3c <flash_writeEnable+0xc0>)
 80059d0:	2164      	movs	r1, #100	; 0x64
 80059d2:	4798      	blx	r3
 80059d4:	e8bd 4070 	ldmia.w	sp!, {r4, r5, r6, lr}
 80059d8:	4813      	ldr	r0, [pc, #76]	; (8005a28 <flash_writeEnable+0xac>)
 80059da:	4b19      	ldr	r3, [pc, #100]	; (8005a40 <flash_writeEnable+0xc4>)
 80059dc:	2106      	movs	r1, #6
 80059de:	4718      	bx	r3
 80059e0:	785a      	ldrb	r2, [r3, #1]
 80059e2:	0711      	lsls	r1, r2, #28
 80059e4:	d50a      	bpl.n	80059fc <flash_writeEnable+0x80>
 80059e6:	6858      	ldr	r0, [r3, #4]
 80059e8:	6a19      	ldr	r1, [r3, #32]
 80059ea:	f36f 02c3 	bfc	r2, #3, #1
 80059ee:	f500 7080 	add.w	r0, r0, #256	; 0x100
 80059f2:	f501 7180 	add.w	r1, r1, #256	; 0x100
 80059f6:	705a      	strb	r2, [r3, #1]
 80059f8:	6058      	str	r0, [r3, #4]
 80059fa:	6219      	str	r1, [r3, #32]
 80059fc:	4a11      	ldr	r2, [pc, #68]	; (8005a44 <flash_writeEnable+0xc8>)
 80059fe:	62da      	str	r2, [r3, #44]	; 0x2c
 8005a00:	e7c9      	b.n	8005996 <flash_writeEnable+0x1a>
 8005a02:	4a11      	ldr	r2, [pc, #68]	; (8005a48 <flash_writeEnable+0xcc>)
 8005a04:	62da      	str	r2, [r3, #44]	; 0x2c
 8005a06:	e7c6      	b.n	8005996 <flash_writeEnable+0x1a>
 8005a08:	4a10      	ldr	r2, [pc, #64]	; (8005a4c <flash_writeEnable+0xd0>)
 8005a0a:	62da      	str	r2, [r3, #44]	; 0x2c
 8005a0c:	e7c3      	b.n	8005996 <flash_writeEnable+0x1a>
 8005a0e:	4a10      	ldr	r2, [pc, #64]	; (8005a50 <flash_writeEnable+0xd4>)
 8005a10:	62da      	str	r2, [r3, #44]	; 0x2c
 8005a12:	e7c0      	b.n	8005996 <flash_writeEnable+0x1a>
 8005a14:	4770      	bx	lr
 8005a16:	bf00      	nop
 8005a18:	4220      	tst	r0, r4
 8005a1a:	2000      	movs	r0, #0
 8005a1c:	575d      	ldrsb	r5, [r3, r5]
 8005a1e:	0800      	lsrs	r0, r0, #32
 8005a20:	0800      	lsrs	r0, r0, #32
 8005a22:	4001      	ands	r1, r0
 8005a24:	0b75      	lsrs	r5, r6, #13
 8005a26:	0800      	lsrs	r0, r0, #32
 8005a28:	3c00      	subs	r4, #0
 8005a2a:	4000      	ands	r0, r0
 8005a2c:	10dd      	asrs	r5, r3, #3
 8005a2e:	0800      	lsrs	r0, r0, #32
 8005a30:	1101      	asrs	r1, r0, #4
 8005a32:	0800      	lsrs	r0, r0, #32
 8005a34:	0c81      	lsrs	r1, r0, #18
 8005a36:	0800      	lsrs	r0, r0, #32
 8005a38:	4250      	negs	r0, r2
 8005a3a:	2000      	movs	r0, #0
 8005a3c:	16d1      	asrs	r1, r2, #27
 8005a3e:	0800      	lsrs	r0, r0, #32
 8005a40:	10f5      	asrs	r5, r6, #3
 8005a42:	0800      	lsrs	r0, r0, #32
 8005a44:	5629      	ldrsb	r1, [r5, r0]
 8005a46:	0800      	lsrs	r0, r0, #32
 8005a48:	57e5      	ldrsb	r5, [r4, r7]
 8005a4a:	0800      	lsrs	r0, r0, #32
 8005a4c:	586d      	ldr	r5, [r5, r1]
 8005a4e:	0800      	lsrs	r0, r0, #32
 8005a50:	58f5      	ldr	r5, [r6, r3]
 8005a52:	0800      	lsrs	r0, r0, #32

08005a54 <nextstep>:
 8005a54:	b510      	push	{r4, lr}
 8005a56:	b128      	cbz	r0, 8005a64 <nextstep+0x10>
 8005a58:	4b2e      	ldr	r3, [pc, #184]	; (8005b14 <nextstep+0xc0>)
 8005a5a:	f883 102a 	strb.w	r1, [r3, #42]	; 0x2a
 8005a5e:	2a00      	cmp	r2, #0
 8005a60:	d14c      	bne.n	8005afc <nextstep+0xa8>
 8005a62:	bd10      	pop	{r4, pc}
 8005a64:	4c2b      	ldr	r4, [pc, #172]	; (8005b14 <nextstep+0xc0>)
 8005a66:	7823      	ldrb	r3, [r4, #0]
 8005a68:	f013 0202 	ands.w	r2, r3, #2
 8005a6c:	d027      	beq.n	8005abe <nextstep+0x6a>
 8005a6e:	f360 1386 	bfi	r3, r0, #6, #1
 8005a72:	4a29      	ldr	r2, [pc, #164]	; (8005b18 <nextstep+0xc4>)
 8005a74:	4829      	ldr	r0, [pc, #164]	; (8005b1c <nextstep+0xc8>)
 8005a76:	7023      	strb	r3, [r4, #0]
 8005a78:	4790      	blx	r2
 8005a7a:	bf00      	nop
 8005a7c:	4b28      	ldr	r3, [pc, #160]	; (8005b20 <nextstep+0xcc>)
 8005a7e:	4829      	ldr	r0, [pc, #164]	; (8005b24 <nextstep+0xd0>)
 8005a80:	f44f 4100 	mov.w	r1, #32768	; 0x8000
 8005a84:	4798      	blx	r3
 8005a86:	2314      	movs	r3, #20
 8005a88:	bf00      	nop
 8005a8a:	3b01      	subs	r3, #1
 8005a8c:	f013 03ff 	ands.w	r3, r3, #255	; 0xff
 8005a90:	d1fa      	bne.n	8005a88 <nextstep+0x34>
 8005a92:	4824      	ldr	r0, [pc, #144]	; (8005b24 <nextstep+0xd0>)
 8005a94:	4b24      	ldr	r3, [pc, #144]	; (8005b28 <nextstep+0xd4>)
 8005a96:	f44f 4100 	mov.w	r1, #32768	; 0x8000
 8005a9a:	4798      	blx	r3
 8005a9c:	bf00      	nop
 8005a9e:	481f      	ldr	r0, [pc, #124]	; (8005b1c <nextstep+0xc8>)
 8005aa0:	4b22      	ldr	r3, [pc, #136]	; (8005b2c <nextstep+0xd8>)
 8005aa2:	4798      	blx	r3
 8005aa4:	68e1      	ldr	r1, [r4, #12]
 8005aa6:	4822      	ldr	r0, [pc, #136]	; (8005b30 <nextstep+0xdc>)
 8005aa8:	4b22      	ldr	r3, [pc, #136]	; (8005b34 <nextstep+0xe0>)
 8005aaa:	4798      	blx	r3
 8005aac:	2203      	movs	r2, #3
 8005aae:	f884 202a 	strb.w	r2, [r4, #42]	; 0x2a
 8005ab2:	e8bd 4010 	ldmia.w	sp!, {r4, lr}
 8005ab6:	4819      	ldr	r0, [pc, #100]	; (8005b1c <nextstep+0xc8>)
 8005ab8:	4b1f      	ldr	r3, [pc, #124]	; (8005b38 <nextstep+0xe4>)
 8005aba:	2105      	movs	r1, #5
 8005abc:	4718      	bx	r3
 8005abe:	f362 1345 	bfi	r3, r2, #5, #1
 8005ac2:	4816      	ldr	r0, [pc, #88]	; (8005b1c <nextstep+0xc8>)
 8005ac4:	4914      	ldr	r1, [pc, #80]	; (8005b18 <nextstep+0xc4>)
 8005ac6:	f884 202a 	strb.w	r2, [r4, #42]	; 0x2a
 8005aca:	7023      	strb	r3, [r4, #0]
 8005acc:	4788      	blx	r1
 8005ace:	bf00      	nop
 8005ad0:	4b13      	ldr	r3, [pc, #76]	; (8005b20 <nextstep+0xcc>)
 8005ad2:	4814      	ldr	r0, [pc, #80]	; (8005b24 <nextstep+0xd0>)
 8005ad4:	f44f 4100 	mov.w	r1, #32768	; 0x8000
 8005ad8:	4798      	blx	r3
 8005ada:	2314      	movs	r3, #20
 8005adc:	bf00      	nop
 8005ade:	3b01      	subs	r3, #1
 8005ae0:	f013 03ff 	ands.w	r3, r3, #255	; 0xff
 8005ae4:	d1fa      	bne.n	8005adc <nextstep+0x88>
 8005ae6:	480d      	ldr	r0, [pc, #52]	; (8005b1c <nextstep+0xc8>)
 8005ae8:	4b14      	ldr	r3, [pc, #80]	; (8005b3c <nextstep+0xe8>)
 8005aea:	2101      	movs	r1, #1
 8005aec:	4798      	blx	r3
 8005aee:	4b14      	ldr	r3, [pc, #80]	; (8005b40 <nextstep+0xec>)
 8005af0:	2033      	movs	r0, #51	; 0x33
 8005af2:	4798      	blx	r3
 8005af4:	6ae3      	ldr	r3, [r4, #44]	; 0x2c
 8005af6:	e8bd 4010 	ldmia.w	sp!, {r4, lr}
 8005afa:	4718      	bx	r3
 8005afc:	f893 2029 	ldrb.w	r2, [r3, #41]	; 0x29
 8005b00:	4c0d      	ldr	r4, [pc, #52]	; (8005b38 <nextstep+0xe4>)
 8005b02:	4806      	ldr	r0, [pc, #24]	; (8005b1c <nextstep+0xc8>)
 8005b04:	3a01      	subs	r2, #1
 8005b06:	1899      	adds	r1, r3, r2
 8005b08:	611a      	str	r2, [r3, #16]
 8005b0a:	7909      	ldrb	r1, [r1, #4]
 8005b0c:	4623      	mov	r3, r4
 8005b0e:	e8bd 4010 	ldmia.w	sp!, {r4, lr}
 8005b12:	4718      	bx	r3
 8005b14:	4220      	tst	r0, r4
 8005b16:	2000      	movs	r0, #0
 8005b18:	10e9      	asrs	r1, r5, #3
 8005b1a:	0800      	lsrs	r0, r0, #32
 8005b1c:	3c00      	subs	r4, #0
 8005b1e:	4000      	ands	r0, r0
 8005b20:	0b71      	lsrs	r1, r6, #13
 8005b22:	0800      	lsrs	r0, r0, #32
 8005b24:	0800      	lsrs	r0, r0, #32
 8005b26:	4001      	ands	r1, r0
 8005b28:	0b75      	lsrs	r5, r6, #13
 8005b2a:	0800      	lsrs	r0, r0, #32
 8005b2c:	10dd      	asrs	r5, r3, #3
 8005b2e:	0800      	lsrs	r0, r0, #32
 8005b30:	4254      	negs	r4, r2
 8005b32:	2000      	movs	r0, #0
 8005b34:	16d1      	asrs	r1, r2, #27
 8005b36:	0800      	lsrs	r0, r0, #32
 8005b38:	10f5      	asrs	r5, r6, #3
 8005b3a:	0800      	lsrs	r0, r0, #32
 8005b3c:	112d      	asrs	r5, r5, #4
 8005b3e:	0800      	lsrs	r0, r0, #32
 8005b40:	0d1d      	lsrs	r5, r3, #20
 8005b42:	0800      	lsrs	r0, r0, #32

08005b44 <isr_spi2_receiver>:
 8005b44:	b570      	push	{r4, r5, r6, lr}
 8005b46:	4c74      	ldr	r4, [pc, #464]	; (8005d18 <isr_spi2_receiver+0x1d4>)
 8005b48:	4b74      	ldr	r3, [pc, #464]	; (8005d1c <isr_spi2_receiver+0x1d8>)
 8005b4a:	2164      	movs	r1, #100	; 0x64
 8005b4c:	f104 0030 	add.w	r0, r4, #48	; 0x30
 8005b50:	4798      	blx	r3
 8005b52:	4b73      	ldr	r3, [pc, #460]	; (8005d20 <isr_spi2_receiver+0x1dc>)
 8005b54:	4873      	ldr	r0, [pc, #460]	; (8005d24 <isr_spi2_receiver+0x1e0>)
 8005b56:	4798      	blx	r3
 8005b58:	f894 302a 	ldrb.w	r3, [r4, #42]	; 0x2a
 8005b5c:	2b05      	cmp	r3, #5
 8005b5e:	f200 80c3 	bhi.w	8005ce8 <isr_spi2_receiver+0x1a4>
 8005b62:	e8df f003 	tbb	[pc, r3]
 8005b66:	1911      	adds	r1, r2, r4
 8005b68:	4033      	ands	r3, r6
 8005b6a:	034c      	lsls	r4, r1, #13
 8005b6c:	6923      	ldr	r3, [r4, #16]
 8005b6e:	68a2      	ldr	r2, [r4, #8]
 8005b70:	4293      	cmp	r3, r2
 8005b72:	d252      	bcs.n	8005c1a <isr_spi2_receiver+0xd6>
 8005b74:	6a21      	ldr	r1, [r4, #32]
 8005b76:	54c8      	strb	r0, [r1, r3]
 8005b78:	1c5a      	adds	r2, r3, #1
 8005b7a:	6122      	str	r2, [r4, #16]
 8005b7c:	4869      	ldr	r0, [pc, #420]	; (8005d24 <isr_spi2_receiver+0x1e0>)
 8005b7e:	4b6a      	ldr	r3, [pc, #424]	; (8005d28 <isr_spi2_receiver+0x1e4>)
 8005b80:	e8bd 4070 	ldmia.w	sp!, {r4, r5, r6, lr}
 8005b84:	21a5      	movs	r1, #165	; 0xa5
 8005b86:	4718      	bx	r3
 8005b88:	2201      	movs	r2, #1
 8005b8a:	f894 0029 	ldrb.w	r0, [r4, #41]	; 0x29
 8005b8e:	4b67      	ldr	r3, [pc, #412]	; (8005d2c <isr_spi2_receiver+0x1e8>)
 8005b90:	e8bd 4070 	ldmia.w	sp!, {r4, r5, r6, lr}
 8005b94:	4611      	mov	r1, r2
 8005b96:	4718      	bx	r3
 8005b98:	6923      	ldr	r3, [r4, #16]
 8005b9a:	4862      	ldr	r0, [pc, #392]	; (8005d24 <isr_spi2_receiver+0x1e0>)
 8005b9c:	4a62      	ldr	r2, [pc, #392]	; (8005d28 <isr_spi2_receiver+0x1e4>)
 8005b9e:	3b01      	subs	r3, #1
 8005ba0:	18e1      	adds	r1, r4, r3
 8005ba2:	6123      	str	r3, [r4, #16]
 8005ba4:	7909      	ldrb	r1, [r1, #4]
 8005ba6:	4790      	blx	r2
 8005ba8:	6923      	ldr	r3, [r4, #16]
 8005baa:	b9db      	cbnz	r3, 8005be4 <isr_spi2_receiver+0xa0>
 8005bac:	7821      	ldrb	r1, [r4, #0]
 8005bae:	f011 0204 	ands.w	r2, r1, #4
 8005bb2:	d05c      	beq.n	8005c6e <isr_spi2_receiver+0x12a>
 8005bb4:	4d5d      	ldr	r5, [pc, #372]	; (8005d2c <isr_spi2_receiver+0x1e8>)
 8005bb6:	68a0      	ldr	r0, [r4, #8]
 8005bb8:	f041 0c40 	orr.w	ip, r1, #64	; 0x40
 8005bbc:	461a      	mov	r2, r3
 8005bbe:	f884 c000 	strb.w	ip, [r4]
 8005bc2:	462b      	mov	r3, r5
 8005bc4:	2103      	movs	r1, #3
 8005bc6:	e8bd 4070 	ldmia.w	sp!, {r4, r5, r6, lr}
 8005bca:	4718      	bx	r3
 8005bcc:	6a22      	ldr	r2, [r4, #32]
 8005bce:	6923      	ldr	r3, [r4, #16]
 8005bd0:	4854      	ldr	r0, [pc, #336]	; (8005d24 <isr_spi2_receiver+0x1e0>)
 8005bd2:	5cd1      	ldrb	r1, [r2, r3]
 8005bd4:	4b54      	ldr	r3, [pc, #336]	; (8005d28 <isr_spi2_receiver+0x1e4>)
 8005bd6:	4798      	blx	r3
 8005bd8:	6923      	ldr	r3, [r4, #16]
 8005bda:	68a2      	ldr	r2, [r4, #8]
 8005bdc:	3301      	adds	r3, #1
 8005bde:	4293      	cmp	r3, r2
 8005be0:	6123      	str	r3, [r4, #16]
 8005be2:	d23c      	bcs.n	8005c5e <isr_spi2_receiver+0x11a>
 8005be4:	bd70      	pop	{r4, r5, r6, pc}
 8005be6:	4b50      	ldr	r3, [pc, #320]	; (8005d28 <isr_spi2_receiver+0x1e4>)
 8005be8:	484e      	ldr	r0, [pc, #312]	; (8005d24 <isr_spi2_receiver+0x1e0>)
 8005bea:	21a5      	movs	r1, #165	; 0xa5
 8005bec:	4798      	blx	r3
 8005bee:	7823      	ldrb	r3, [r4, #0]
 8005bf0:	065b      	lsls	r3, r3, #25
 8005bf2:	bf4c      	ite	mi
 8005bf4:	2305      	movmi	r3, #5
 8005bf6:	2304      	movpl	r3, #4
 8005bf8:	f884 302a 	strb.w	r3, [r4, #42]	; 0x2a
 8005bfc:	bd70      	pop	{r4, r5, r6, pc}
 8005bfe:	f010 0301 	ands.w	r3, r0, #1
 8005c02:	d03a      	beq.n	8005c7a <isr_spi2_receiver+0x136>
 8005c04:	484a      	ldr	r0, [pc, #296]	; (8005d30 <isr_spi2_receiver+0x1ec>)
 8005c06:	4b4b      	ldr	r3, [pc, #300]	; (8005d34 <isr_spi2_receiver+0x1f0>)
 8005c08:	4798      	blx	r3
 8005c0a:	2800      	cmp	r0, #0
 8005c0c:	d14b      	bne.n	8005ca6 <isr_spi2_receiver+0x162>
 8005c0e:	e8bd 4070 	ldmia.w	sp!, {r4, r5, r6, lr}
 8005c12:	4844      	ldr	r0, [pc, #272]	; (8005d24 <isr_spi2_receiver+0x1e0>)
 8005c14:	4b44      	ldr	r3, [pc, #272]	; (8005d28 <isr_spi2_receiver+0x1e4>)
 8005c16:	21a5      	movs	r1, #165	; 0xa5
 8005c18:	4718      	bx	r3
 8005c1a:	7822      	ldrb	r2, [r4, #0]
 8005c1c:	4841      	ldr	r0, [pc, #260]	; (8005d24 <isr_spi2_receiver+0x1e0>)
 8005c1e:	4946      	ldr	r1, [pc, #280]	; (8005d38 <isr_spi2_receiver+0x1f4>)
 8005c20:	2300      	movs	r3, #0
 8005c22:	f363 1245 	bfi	r2, r3, #5, #1
 8005c26:	f884 302a 	strb.w	r3, [r4, #42]	; 0x2a
 8005c2a:	6123      	str	r3, [r4, #16]
 8005c2c:	7022      	strb	r2, [r4, #0]
 8005c2e:	4788      	blx	r1
 8005c30:	bf00      	nop
 8005c32:	4b42      	ldr	r3, [pc, #264]	; (8005d3c <isr_spi2_receiver+0x1f8>)
 8005c34:	4842      	ldr	r0, [pc, #264]	; (8005d40 <isr_spi2_receiver+0x1fc>)
 8005c36:	f44f 4100 	mov.w	r1, #32768	; 0x8000
 8005c3a:	4798      	blx	r3
 8005c3c:	2314      	movs	r3, #20
 8005c3e:	bf00      	nop
 8005c40:	3b01      	subs	r3, #1
 8005c42:	f013 03ff 	ands.w	r3, r3, #255	; 0xff
 8005c46:	d1fa      	bne.n	8005c3e <isr_spi2_receiver+0xfa>
 8005c48:	4836      	ldr	r0, [pc, #216]	; (8005d24 <isr_spi2_receiver+0x1e0>)
 8005c4a:	4b3e      	ldr	r3, [pc, #248]	; (8005d44 <isr_spi2_receiver+0x200>)
 8005c4c:	2101      	movs	r1, #1
 8005c4e:	4798      	blx	r3
 8005c50:	4b3d      	ldr	r3, [pc, #244]	; (8005d48 <isr_spi2_receiver+0x204>)
 8005c52:	2033      	movs	r0, #51	; 0x33
 8005c54:	4798      	blx	r3
 8005c56:	6ae3      	ldr	r3, [r4, #44]	; 0x2c
 8005c58:	e8bd 4070 	ldmia.w	sp!, {r4, r5, r6, lr}
 8005c5c:	4718      	bx	r3
 8005c5e:	2200      	movs	r2, #0
 8005c60:	6122      	str	r2, [r4, #16]
 8005c62:	4b32      	ldr	r3, [pc, #200]	; (8005d2c <isr_spi2_receiver+0x1e8>)
 8005c64:	e8bd 4070 	ldmia.w	sp!, {r4, r5, r6, lr}
 8005c68:	4611      	mov	r1, r2
 8005c6a:	4610      	mov	r0, r2
 8005c6c:	4718      	bx	r3
 8005c6e:	68a0      	ldr	r0, [r4, #8]
 8005c70:	4b2e      	ldr	r3, [pc, #184]	; (8005d2c <isr_spi2_receiver+0x1e8>)
 8005c72:	e8bd 4070 	ldmia.w	sp!, {r4, r5, r6, lr}
 8005c76:	2102      	movs	r1, #2
 8005c78:	4718      	bx	r3
 8005c7a:	7822      	ldrb	r2, [r4, #0]
 8005c7c:	4829      	ldr	r0, [pc, #164]	; (8005d24 <isr_spi2_receiver+0x1e0>)
 8005c7e:	492e      	ldr	r1, [pc, #184]	; (8005d38 <isr_spi2_receiver+0x1f4>)
 8005c80:	f884 302a 	strb.w	r3, [r4, #42]	; 0x2a
 8005c84:	f363 1245 	bfi	r2, r3, #5, #1
 8005c88:	7022      	strb	r2, [r4, #0]
 8005c8a:	4788      	blx	r1
 8005c8c:	bf00      	nop
 8005c8e:	4b2b      	ldr	r3, [pc, #172]	; (8005d3c <isr_spi2_receiver+0x1f8>)
 8005c90:	482b      	ldr	r0, [pc, #172]	; (8005d40 <isr_spi2_receiver+0x1fc>)
 8005c92:	f44f 4100 	mov.w	r1, #32768	; 0x8000
 8005c96:	4798      	blx	r3
 8005c98:	2314      	movs	r3, #20
 8005c9a:	bf00      	nop
 8005c9c:	3b01      	subs	r3, #1
 8005c9e:	f013 03ff 	ands.w	r3, r3, #255	; 0xff
 8005ca2:	d1fa      	bne.n	8005c9a <isr_spi2_receiver+0x156>
 8005ca4:	e7d0      	b.n	8005c48 <isr_spi2_receiver+0x104>
 8005ca6:	7823      	ldrb	r3, [r4, #0]
 8005ca8:	481e      	ldr	r0, [pc, #120]	; (8005d24 <isr_spi2_receiver+0x1e0>)
 8005caa:	4a23      	ldr	r2, [pc, #140]	; (8005d38 <isr_spi2_receiver+0x1f4>)
 8005cac:	f023 0321 	bic.w	r3, r3, #33	; 0x21
 8005cb0:	f043 0321 	orr.w	r3, r3, #33	; 0x21
 8005cb4:	2100      	movs	r1, #0
 8005cb6:	7023      	strb	r3, [r4, #0]
 8005cb8:	f884 102a 	strb.w	r1, [r4, #42]	; 0x2a
 8005cbc:	4790      	blx	r2
 8005cbe:	bf00      	nop
 8005cc0:	4b1e      	ldr	r3, [pc, #120]	; (8005d3c <isr_spi2_receiver+0x1f8>)
 8005cc2:	481f      	ldr	r0, [pc, #124]	; (8005d40 <isr_spi2_receiver+0x1fc>)
 8005cc4:	f44f 4100 	mov.w	r1, #32768	; 0x8000
 8005cc8:	4798      	blx	r3
 8005cca:	2314      	movs	r3, #20
 8005ccc:	bf00      	nop
 8005cce:	3b01      	subs	r3, #1
 8005cd0:	f013 03ff 	ands.w	r3, r3, #255	; 0xff
 8005cd4:	d1fa      	bne.n	8005ccc <isr_spi2_receiver+0x188>
 8005cd6:	4813      	ldr	r0, [pc, #76]	; (8005d24 <isr_spi2_receiver+0x1e0>)
 8005cd8:	4b1a      	ldr	r3, [pc, #104]	; (8005d44 <isr_spi2_receiver+0x200>)
 8005cda:	2101      	movs	r1, #1
 8005cdc:	4798      	blx	r3
 8005cde:	e8bd 4070 	ldmia.w	sp!, {r4, r5, r6, lr}
 8005ce2:	4b19      	ldr	r3, [pc, #100]	; (8005d48 <isr_spi2_receiver+0x204>)
 8005ce4:	2033      	movs	r0, #51	; 0x33
 8005ce6:	4718      	bx	r3
 8005ce8:	7823      	ldrb	r3, [r4, #0]
 8005cea:	480e      	ldr	r0, [pc, #56]	; (8005d24 <isr_spi2_receiver+0x1e0>)
 8005cec:	4912      	ldr	r1, [pc, #72]	; (8005d38 <isr_spi2_receiver+0x1f4>)
 8005cee:	2200      	movs	r2, #0
 8005cf0:	f043 0320 	orr.w	r3, r3, #32
 8005cf4:	f884 202a 	strb.w	r2, [r4, #42]	; 0x2a
 8005cf8:	6122      	str	r2, [r4, #16]
 8005cfa:	7023      	strb	r3, [r4, #0]
 8005cfc:	4788      	blx	r1
 8005cfe:	bf00      	nop
 8005d00:	4b0e      	ldr	r3, [pc, #56]	; (8005d3c <isr_spi2_receiver+0x1f8>)
 8005d02:	480f      	ldr	r0, [pc, #60]	; (8005d40 <isr_spi2_receiver+0x1fc>)
 8005d04:	f44f 4100 	mov.w	r1, #32768	; 0x8000
 8005d08:	4798      	blx	r3
 8005d0a:	2314      	movs	r3, #20
 8005d0c:	bf00      	nop
 8005d0e:	3b01      	subs	r3, #1
 8005d10:	f013 03ff 	ands.w	r3, r3, #255	; 0xff
 8005d14:	d1fa      	bne.n	8005d0c <isr_spi2_receiver+0x1c8>
 8005d16:	e7de      	b.n	8005cd6 <isr_spi2_receiver+0x192>
 8005d18:	4220      	tst	r0, r4
 8005d1a:	2000      	movs	r0, #0
 8005d1c:	16d1      	asrs	r1, r2, #27
 8005d1e:	0800      	lsrs	r0, r0, #32
 8005d20:	10f9      	asrs	r1, r7, #3
 8005d22:	0800      	lsrs	r0, r0, #32
 8005d24:	3c00      	subs	r4, #0
 8005d26:	4000      	ands	r0, r0
 8005d28:	10f5      	asrs	r5, r6, #3
 8005d2a:	0800      	lsrs	r0, r0, #32
 8005d2c:	5a55      	ldrh	r5, [r2, r1]
 8005d2e:	0800      	lsrs	r0, r0, #32
 8005d30:	4254      	negs	r4, r2
 8005d32:	2000      	movs	r0, #0
 8005d34:	1749      	asrs	r1, r1, #29
 8005d36:	0800      	lsrs	r0, r0, #32
 8005d38:	10e9      	asrs	r1, r5, #3
 8005d3a:	0800      	lsrs	r0, r0, #32
 8005d3c:	0b71      	lsrs	r1, r6, #13
 8005d3e:	0800      	lsrs	r0, r0, #32
 8005d40:	0800      	lsrs	r0, r0, #32
 8005d42:	4001      	ands	r1, r0
 8005d44:	112d      	asrs	r5, r5, #4
 8005d46:	0800      	lsrs	r0, r0, #32
 8005d48:	0d1d      	lsrs	r5, r3, #20
 8005d4a:	0800      	lsrs	r0, r0, #32

08005d4c <flash_init>:
 8005d4c:	b5f0      	push	{r4, r5, r6, r7, lr}
 8005d4e:	4b27      	ldr	r3, [pc, #156]	; (8005dec <flash_init+0xa0>)
 8005d50:	4c27      	ldr	r4, [pc, #156]	; (8005df0 <flash_init+0xa4>)
 8005d52:	4e28      	ldr	r6, [pc, #160]	; (8005df4 <flash_init+0xa8>)
 8005d54:	4d28      	ldr	r5, [pc, #160]	; (8005df8 <flash_init+0xac>)
 8005d56:	b089      	sub	sp, #36	; 0x24
 8005d58:	f240 700f 	movw	r0, #1807	; 0x70f
 8005d5c:	4798      	blx	r3
 8005d5e:	4827      	ldr	r0, [pc, #156]	; (8005dfc <flash_init+0xb0>)
 8005d60:	2101      	movs	r1, #1
 8005d62:	47a0      	blx	r4
 8005d64:	4826      	ldr	r0, [pc, #152]	; (8005e00 <flash_init+0xb4>)
 8005d66:	2101      	movs	r1, #1
 8005d68:	47a0      	blx	r4
 8005d6a:	4c26      	ldr	r4, [pc, #152]	; (8005e04 <flash_init+0xb8>)
 8005d6c:	4630      	mov	r0, r6
 8005d6e:	f44f 4300 	mov.w	r3, #32768	; 0x8000
 8005d72:	2203      	movs	r2, #3
 8005d74:	2114      	movs	r1, #20
 8005d76:	47a0      	blx	r4
 8005d78:	4628      	mov	r0, r5
 8005d7a:	f44f 6380 	mov.w	r3, #1024	; 0x400
 8005d7e:	2203      	movs	r2, #3
 8005d80:	2118      	movs	r1, #24
 8005d82:	47a0      	blx	r4
 8005d84:	4628      	mov	r0, r5
 8005d86:	f44f 5380 	mov.w	r3, #4096	; 0x1000
 8005d8a:	2203      	movs	r2, #3
 8005d8c:	2118      	movs	r1, #24
 8005d8e:	47a0      	blx	r4
 8005d90:	2203      	movs	r2, #3
 8005d92:	4628      	mov	r0, r5
 8005d94:	f44f 6300 	mov.w	r3, #2048	; 0x800
 8005d98:	2118      	movs	r1, #24
 8005d9a:	47a0      	blx	r4
 8005d9c:	2700      	movs	r7, #0
 8005d9e:	4630      	mov	r0, r6
 8005da0:	4b19      	ldr	r3, [pc, #100]	; (8005e08 <flash_init+0xbc>)
 8005da2:	f44f 4100 	mov.w	r1, #32768	; 0x8000
 8005da6:	f44f 7682 	mov.w	r6, #260	; 0x104
 8005daa:	4798      	blx	r3
 8005dac:	e9cd 6700 	strd	r6, r7, [sp]
 8005db0:	2600      	movs	r6, #0
 8005db2:	f44f 7700 	mov.w	r7, #512	; 0x200
 8005db6:	e9cd 6702 	strd	r6, r7, [sp, #8]
 8005dba:	2600      	movs	r6, #0
 8005dbc:	2700      	movs	r7, #0
 8005dbe:	2400      	movs	r4, #0
 8005dc0:	4669      	mov	r1, sp
 8005dc2:	e9cd 6704 	strd	r6, r7, [sp, #16]
 8005dc6:	4811      	ldr	r0, [pc, #68]	; (8005e0c <flash_init+0xc0>)
 8005dc8:	4b11      	ldr	r3, [pc, #68]	; (8005e10 <flash_init+0xc4>)
 8005dca:	9406      	str	r4, [sp, #24]
 8005dcc:	4798      	blx	r3
 8005dce:	4b11      	ldr	r3, [pc, #68]	; (8005e14 <flash_init+0xc8>)
 8005dd0:	4a11      	ldr	r2, [pc, #68]	; (8005e18 <flash_init+0xcc>)
 8005dd2:	f883 402a 	strb.w	r4, [r3, #42]	; 0x2a
 8005dd6:	2101      	movs	r1, #1
 8005dd8:	e9c3 4401 	strd	r4, r4, [r3, #4]
 8005ddc:	611c      	str	r4, [r3, #16]
 8005dde:	621c      	str	r4, [r3, #32]
 8005de0:	f883 4028 	strb.w	r4, [r3, #40]	; 0x28
 8005de4:	8019      	strh	r1, [r3, #0]
 8005de6:	62da      	str	r2, [r3, #44]	; 0x2c
 8005de8:	b009      	add	sp, #36	; 0x24
 8005dea:	bdf0      	pop	{r4, r5, r6, r7, pc}
 8005dec:	0e1d      	lsrs	r5, r3, #24
 8005dee:	0800      	lsrs	r0, r0, #32
 8005df0:	0b91      	lsrs	r1, r2, #14
 8005df2:	0800      	lsrs	r0, r0, #32
 8005df4:	0800      	lsrs	r0, r0, #32
 8005df6:	4001      	ands	r1, r0
 8005df8:	1000      	asrs	r0, r0, #32
 8005dfa:	4001      	ands	r1, r0
 8005dfc:	1000      	asrs	r0, r0, #32
 8005dfe:	0020      	movs	r0, r4
 8005e00:	0400      	lsls	r0, r0, #16
 8005e02:	0030      	movs	r0, r6
 8005e04:	07b9      	lsls	r1, r7, #30
 8005e06:	0800      	lsrs	r0, r0, #32
 8005e08:	0b71      	lsrs	r1, r6, #13
 8005e0a:	0800      	lsrs	r0, r0, #32
 8005e0c:	3c00      	subs	r4, #0
 8005e0e:	4000      	ands	r0, r0
 8005e10:	10a9      	asrs	r1, r5, #2
 8005e12:	0800      	lsrs	r0, r0, #32
 8005e14:	4220      	tst	r0, r4
 8005e16:	2000      	movs	r0, #0
 8005e18:	5619      	ldrsb	r1, [r3, r0]
 8005e1a:	0800      	lsrs	r0, r0, #32

08005e1c <flash_read_data>:
 8005e1c:	4b17      	ldr	r3, [pc, #92]	; (8005e7c <flash_read_data+0x60>)
 8005e1e:	f893 c000 	ldrb.w	ip, [r3]
 8005e22:	f02c 0c07 	bic.w	ip, ip, #7
 8005e26:	b570      	push	{r4, r5, r6, lr}
 8005e28:	f04c 0c04 	orr.w	ip, ip, #4
 8005e2c:	6059      	str	r1, [r3, #4]
 8005e2e:	4914      	ldr	r1, [pc, #80]	; (8005e80 <flash_read_data+0x64>)
 8005e30:	f883 c000 	strb.w	ip, [r3]
 8005e34:	6218      	str	r0, [r3, #32]
 8005e36:	62d9      	str	r1, [r3, #44]	; 0x2c
 8005e38:	f103 0030 	add.w	r0, r3, #48	; 0x30
 8005e3c:	609a      	str	r2, [r3, #8]
 8005e3e:	2503      	movs	r5, #3
 8005e40:	4a10      	ldr	r2, [pc, #64]	; (8005e84 <flash_read_data+0x68>)
 8005e42:	f883 5029 	strb.w	r5, [r3, #41]	; 0x29
 8005e46:	2164      	movs	r1, #100	; 0x64
 8005e48:	4790      	blx	r2
 8005e4a:	480f      	ldr	r0, [pc, #60]	; (8005e88 <flash_read_data+0x6c>)
 8005e4c:	4b0f      	ldr	r3, [pc, #60]	; (8005e8c <flash_read_data+0x70>)
 8005e4e:	f44f 4100 	mov.w	r1, #32768	; 0x8000
 8005e52:	4798      	blx	r3
 8005e54:	bf00      	nop
 8005e56:	4c0e      	ldr	r4, [pc, #56]	; (8005e90 <flash_read_data+0x74>)
 8005e58:	4b0e      	ldr	r3, [pc, #56]	; (8005e94 <flash_read_data+0x78>)
 8005e5a:	4620      	mov	r0, r4
 8005e5c:	4798      	blx	r3
 8005e5e:	4620      	mov	r0, r4
 8005e60:	4b0d      	ldr	r3, [pc, #52]	; (8005e98 <flash_read_data+0x7c>)
 8005e62:	2101      	movs	r1, #1
 8005e64:	4798      	blx	r3
 8005e66:	4b0d      	ldr	r3, [pc, #52]	; (8005e9c <flash_read_data+0x80>)
 8005e68:	2100      	movs	r1, #0
 8005e6a:	2033      	movs	r0, #51	; 0x33
 8005e6c:	2202      	movs	r2, #2
 8005e6e:	4798      	blx	r3
 8005e70:	4629      	mov	r1, r5
 8005e72:	4620      	mov	r0, r4
 8005e74:	4b0a      	ldr	r3, [pc, #40]	; (8005ea0 <flash_read_data+0x84>)
 8005e76:	e8bd 4070 	ldmia.w	sp!, {r4, r5, r6, lr}
 8005e7a:	4718      	bx	r3
 8005e7c:	4220      	tst	r0, r4
 8005e7e:	2000      	movs	r0, #0
 8005e80:	5619      	ldrsb	r1, [r3, r0]
 8005e82:	0800      	lsrs	r0, r0, #32
 8005e84:	16d1      	asrs	r1, r2, #27
 8005e86:	0800      	lsrs	r0, r0, #32
 8005e88:	0800      	lsrs	r0, r0, #32
 8005e8a:	4001      	ands	r1, r0
 8005e8c:	0b75      	lsrs	r5, r6, #13
 8005e8e:	0800      	lsrs	r0, r0, #32
 8005e90:	3c00      	subs	r4, #0
 8005e92:	4000      	ands	r0, r0
 8005e94:	10dd      	asrs	r5, r3, #3
 8005e96:	0800      	lsrs	r0, r0, #32
 8005e98:	1101      	asrs	r1, r0, #4
 8005e9a:	0800      	lsrs	r0, r0, #32
 8005e9c:	0c81      	lsrs	r1, r0, #18
 8005e9e:	0800      	lsrs	r0, r0, #32
 8005ea0:	10f5      	asrs	r5, r6, #3
 8005ea2:	0800      	lsrs	r0, r0, #32

08005ea4 <flash_write_data>:
 8005ea4:	4b14      	ldr	r3, [pc, #80]	; (8005ef8 <flash_write_data+0x54>)
 8005ea6:	b430      	push	{r4, r5}
 8005ea8:	f3c1 040b 	ubfx	r4, r1, #0, #12
 8005eac:	829c      	strh	r4, [r3, #20]
 8005eae:	f5c4 5480 	rsb	r4, r4, #4096	; 0x1000
 8005eb2:	4294      	cmp	r4, r2
 8005eb4:	bf28      	it	cs
 8005eb6:	4614      	movcs	r4, r2
 8005eb8:	b2a5      	uxth	r5, r4
 8005eba:	835d      	strh	r5, [r3, #26]
 8005ebc:	1b55      	subs	r5, r2, r5
 8005ebe:	1b12      	subs	r2, r2, r4
 8005ec0:	f3c2 320f 	ubfx	r2, r2, #12, #16
 8005ec4:	f3c5 050b 	ubfx	r5, r5, #0, #12
 8005ec8:	82da      	strh	r2, [r3, #22]
 8005eca:	839d      	strh	r5, [r3, #28]
 8005ecc:	b115      	cbz	r5, 8005ed4 <flash_write_data+0x30>
 8005ece:	3201      	adds	r2, #1
 8005ed0:	b292      	uxth	r2, r2
 8005ed2:	82da      	strh	r2, [r3, #22]
 8005ed4:	b10c      	cbz	r4, 8005eda <flash_write_data+0x36>
 8005ed6:	3201      	adds	r2, #1
 8005ed8:	82da      	strh	r2, [r3, #22]
 8005eda:	785a      	ldrb	r2, [r3, #1]
 8005edc:	6258      	str	r0, [r3, #36]	; 0x24
 8005ede:	2401      	movs	r4, #1
 8005ee0:	f421 617f 	bic.w	r1, r1, #4080	; 0xff0
 8005ee4:	f364 1206 	bfi	r2, r4, #4, #3
 8005ee8:	f021 010f 	bic.w	r1, r1, #15
 8005eec:	2400      	movs	r4, #0
 8005eee:	831c      	strh	r4, [r3, #24]
 8005ef0:	6059      	str	r1, [r3, #4]
 8005ef2:	bc30      	pop	{r4, r5}
 8005ef4:	705a      	strb	r2, [r3, #1]
 8005ef6:	4770      	bx	lr
 8005ef8:	4220      	tst	r0, r4
 8005efa:	2000      	movs	r0, #0

08005efc <FlashMemoryDriver>:
 8005efc:	b538      	push	{r3, r4, r5, lr}
 8005efe:	4c75      	ldr	r4, [pc, #468]	; (80060d4 <FlashMemoryDriver+0x1d8>)
 8005f00:	7823      	ldrb	r3, [r4, #0]
 8005f02:	f013 0501 	ands.w	r5, r3, #1
 8005f06:	d00a      	beq.n	8005f1e <FlashMemoryDriver+0x22>
 8005f08:	7863      	ldrb	r3, [r4, #1]
 8005f0a:	f3c3 1302 	ubfx	r3, r3, #4, #3
 8005f0e:	2b04      	cmp	r3, #4
 8005f10:	f200 80da 	bhi.w	80060c8 <FlashMemoryDriver+0x1cc>
 8005f14:	e8df f003 	tbb	[pc, r3]
 8005f18:	1a0c      	subs	r4, r1, r0
 8005f1a:	3126      	adds	r1, #38	; 0x26
 8005f1c:	000d      	movs	r5, r1
 8005f1e:	4b6e      	ldr	r3, [pc, #440]	; (80060d8 <FlashMemoryDriver+0x1dc>)
 8005f20:	f104 0030 	add.w	r0, r4, #48	; 0x30
 8005f24:	4798      	blx	r3
 8005f26:	2800      	cmp	r0, #0
 8005f28:	d13a      	bne.n	8005fa0 <FlashMemoryDriver+0xa4>
 8005f2a:	7823      	ldrb	r3, [r4, #0]
 8005f2c:	07db      	lsls	r3, r3, #31
 8005f2e:	d4eb      	bmi.n	8005f08 <FlashMemoryDriver+0xc>
 8005f30:	bd38      	pop	{r3, r4, r5, pc}
 8005f32:	6862      	ldr	r2, [r4, #4]
 8005f34:	8b23      	ldrh	r3, [r4, #24]
 8005f36:	7861      	ldrb	r1, [r4, #1]
 8005f38:	2001      	movs	r0, #1
 8005f3a:	f502 7280 	add.w	r2, r2, #256	; 0x100
 8005f3e:	4403      	add	r3, r0
 8005f40:	f360 1106 	bfi	r1, r0, #4, #3
 8005f44:	6062      	str	r2, [r4, #4]
 8005f46:	8323      	strh	r3, [r4, #24]
 8005f48:	7061      	strb	r1, [r4, #1]
 8005f4a:	bd38      	pop	{r3, r4, r5, pc}
 8005f4c:	8b22      	ldrh	r2, [r4, #24]
 8005f4e:	8ae3      	ldrh	r3, [r4, #22]
 8005f50:	429a      	cmp	r2, r3
 8005f52:	f0c0 8089 	bcc.w	8006068 <FlashMemoryDriver+0x16c>
 8005f56:	7863      	ldrb	r3, [r4, #1]
 8005f58:	2200      	movs	r2, #0
 8005f5a:	f36f 1306 	bfc	r3, #4, #3
 8005f5e:	7063      	strb	r3, [r4, #1]
 8005f60:	8322      	strh	r2, [r4, #24]
 8005f62:	bd38      	pop	{r3, r4, r5, pc}
 8005f64:	8b22      	ldrh	r2, [r4, #24]
 8005f66:	2a00      	cmp	r2, #0
 8005f68:	d13c      	bne.n	8005fe4 <FlashMemoryDriver+0xe8>
 8005f6a:	8b62      	ldrh	r2, [r4, #26]
 8005f6c:	2a00      	cmp	r2, #0
 8005f6e:	d16e      	bne.n	800604e <FlashMemoryDriver+0x152>
 8005f70:	8ae0      	ldrh	r0, [r4, #22]
 8005f72:	2801      	cmp	r0, #1
 8005f74:	d072      	beq.n	800605c <FlashMemoryDriver+0x160>
 8005f76:	4613      	mov	r3, r2
 8005f78:	e03c      	b.n	8005ff4 <FlashMemoryDriver+0xf8>
 8005f7a:	8823      	ldrh	r3, [r4, #0]
 8005f7c:	4957      	ldr	r1, [pc, #348]	; (80060dc <FlashMemoryDriver+0x1e0>)
 8005f7e:	4a58      	ldr	r2, [pc, #352]	; (80060e0 <FlashMemoryDriver+0x1e4>)
 8005f80:	6221      	str	r1, [r4, #32]
 8005f82:	f423 43ef 	bic.w	r3, r3, #30592	; 0x7780
 8005f86:	f023 0301 	bic.w	r3, r3, #1
 8005f8a:	f44f 5080 	mov.w	r0, #4096	; 0x1000
 8005f8e:	f443 4380 	orr.w	r3, r3, #16384	; 0x4000
 8005f92:	2110      	movs	r1, #16
 8005f94:	60a0      	str	r0, [r4, #8]
 8005f96:	f884 1028 	strb.w	r1, [r4, #40]	; 0x28
 8005f9a:	62e2      	str	r2, [r4, #44]	; 0x2c
 8005f9c:	8023      	strh	r3, [r4, #0]
 8005f9e:	bd38      	pop	{r3, r4, r5, pc}
 8005fa0:	8823      	ldrh	r3, [r4, #0]
 8005fa2:	4850      	ldr	r0, [pc, #320]	; (80060e4 <FlashMemoryDriver+0x1e8>)
 8005fa4:	4a50      	ldr	r2, [pc, #320]	; (80060e8 <FlashMemoryDriver+0x1ec>)
 8005fa6:	f884 502a 	strb.w	r5, [r4, #42]	; 0x2a
 8005faa:	f423 43e0 	bic.w	r3, r3, #28672	; 0x7000
 8005fae:	f023 0321 	bic.w	r3, r3, #33	; 0x21
 8005fb2:	f043 0321 	orr.w	r3, r3, #33	; 0x21
 8005fb6:	8023      	strh	r3, [r4, #0]
 8005fb8:	6125      	str	r5, [r4, #16]
 8005fba:	4790      	blx	r2
 8005fbc:	bf00      	nop
 8005fbe:	4b4b      	ldr	r3, [pc, #300]	; (80060ec <FlashMemoryDriver+0x1f0>)
 8005fc0:	484b      	ldr	r0, [pc, #300]	; (80060f0 <FlashMemoryDriver+0x1f4>)
 8005fc2:	f44f 4100 	mov.w	r1, #32768	; 0x8000
 8005fc6:	4798      	blx	r3
 8005fc8:	2314      	movs	r3, #20
 8005fca:	bf00      	nop
 8005fcc:	3b01      	subs	r3, #1
 8005fce:	f013 03ff 	ands.w	r3, r3, #255	; 0xff
 8005fd2:	d1fa      	bne.n	8005fca <FlashMemoryDriver+0xce>
 8005fd4:	4843      	ldr	r0, [pc, #268]	; (80060e4 <FlashMemoryDriver+0x1e8>)
 8005fd6:	4b47      	ldr	r3, [pc, #284]	; (80060f4 <FlashMemoryDriver+0x1f8>)
 8005fd8:	2101      	movs	r1, #1
 8005fda:	4798      	blx	r3
 8005fdc:	4b46      	ldr	r3, [pc, #280]	; (80060f8 <FlashMemoryDriver+0x1fc>)
 8005fde:	2033      	movs	r0, #51	; 0x33
 8005fe0:	4798      	blx	r3
 8005fe2:	e7a2      	b.n	8005f2a <FlashMemoryDriver+0x2e>
 8005fe4:	8ae1      	ldrh	r1, [r4, #22]
 8005fe6:	1e4b      	subs	r3, r1, #1
 8005fe8:	429a      	cmp	r2, r3
 8005fea:	d01d      	beq.n	8006028 <FlashMemoryDriver+0x12c>
 8005fec:	8b63      	ldrh	r3, [r4, #26]
 8005fee:	b10b      	cbz	r3, 8005ff4 <FlashMemoryDriver+0xf8>
 8005ff0:	3a01      	subs	r2, #1
 8005ff2:	b292      	uxth	r2, r2
 8005ff4:	6a61      	ldr	r1, [r4, #36]	; 0x24
 8005ff6:	4839      	ldr	r0, [pc, #228]	; (80060dc <FlashMemoryDriver+0x1e0>)
 8005ff8:	eb03 3302 	add.w	r3, r3, r2, lsl #12
 8005ffc:	4419      	add	r1, r3
 8005ffe:	f44f 5280 	mov.w	r2, #4096	; 0x1000
 8006002:	4b3e      	ldr	r3, [pc, #248]	; (80060fc <FlashMemoryDriver+0x200>)
 8006004:	4798      	blx	r3
 8006006:	8823      	ldrh	r3, [r4, #0]
 8006008:	4a35      	ldr	r2, [pc, #212]	; (80060e0 <FlashMemoryDriver+0x1e4>)
 800600a:	62e2      	str	r2, [r4, #44]	; 0x2c
 800600c:	f423 63e0 	bic.w	r3, r3, #1792	; 0x700
 8006010:	f023 0301 	bic.w	r3, r3, #1
 8006014:	f443 7300 	orr.w	r3, r3, #512	; 0x200
 8006018:	8023      	strh	r3, [r4, #0]
 800601a:	4790      	blx	r2
 800601c:	7863      	ldrb	r3, [r4, #1]
 800601e:	2203      	movs	r2, #3
 8006020:	f362 1306 	bfi	r3, r2, #4, #3
 8006024:	7063      	strb	r3, [r4, #1]
 8006026:	bd38      	pop	{r3, r4, r5, pc}
 8006028:	8ba5      	ldrh	r5, [r4, #28]
 800602a:	8b63      	ldrh	r3, [r4, #26]
 800602c:	2d00      	cmp	r5, #0
 800602e:	d0de      	beq.n	8005fee <FlashMemoryDriver+0xf2>
 8006030:	2b00      	cmp	r3, #0
 8006032:	bf14      	ite	ne
 8006034:	2002      	movne	r0, #2
 8006036:	2001      	moveq	r0, #1
 8006038:	1a08      	subs	r0, r1, r0
 800603a:	b280      	uxth	r0, r0
 800603c:	6a61      	ldr	r1, [r4, #36]	; 0x24
 800603e:	eb03 3300 	add.w	r3, r3, r0, lsl #12
 8006042:	4419      	add	r1, r3
 8006044:	4825      	ldr	r0, [pc, #148]	; (80060dc <FlashMemoryDriver+0x1e0>)
 8006046:	4b2d      	ldr	r3, [pc, #180]	; (80060fc <FlashMemoryDriver+0x200>)
 8006048:	462a      	mov	r2, r5
 800604a:	4798      	blx	r3
 800604c:	e7db      	b.n	8006006 <FlashMemoryDriver+0x10a>
 800604e:	8aa3      	ldrh	r3, [r4, #20]
 8006050:	4822      	ldr	r0, [pc, #136]	; (80060dc <FlashMemoryDriver+0x1e0>)
 8006052:	6a61      	ldr	r1, [r4, #36]	; 0x24
 8006054:	4418      	add	r0, r3
 8006056:	4b29      	ldr	r3, [pc, #164]	; (80060fc <FlashMemoryDriver+0x200>)
 8006058:	4798      	blx	r3
 800605a:	e7d4      	b.n	8006006 <FlashMemoryDriver+0x10a>
 800605c:	8ba5      	ldrh	r5, [r4, #28]
 800605e:	2d00      	cmp	r5, #0
 8006060:	d089      	beq.n	8005f76 <FlashMemoryDriver+0x7a>
 8006062:	4613      	mov	r3, r2
 8006064:	4601      	mov	r1, r0
 8006066:	e7e7      	b.n	8006038 <FlashMemoryDriver+0x13c>
 8006068:	7823      	ldrb	r3, [r4, #0]
 800606a:	491c      	ldr	r1, [pc, #112]	; (80060dc <FlashMemoryDriver+0x1e0>)
 800606c:	4a24      	ldr	r2, [pc, #144]	; (8006100 <FlashMemoryDriver+0x204>)
 800606e:	6221      	str	r1, [r4, #32]
 8006070:	f023 0307 	bic.w	r3, r3, #7
 8006074:	f043 0304 	orr.w	r3, r3, #4
 8006078:	f44f 5580 	mov.w	r5, #4096	; 0x1000
 800607c:	60a5      	str	r5, [r4, #8]
 800607e:	7023      	strb	r3, [r4, #0]
 8006080:	4820      	ldr	r0, [pc, #128]	; (8006104 <FlashMemoryDriver+0x208>)
 8006082:	4b21      	ldr	r3, [pc, #132]	; (8006108 <FlashMemoryDriver+0x20c>)
 8006084:	62e2      	str	r2, [r4, #44]	; 0x2c
 8006086:	2503      	movs	r5, #3
 8006088:	2164      	movs	r1, #100	; 0x64
 800608a:	f884 5029 	strb.w	r5, [r4, #41]	; 0x29
 800608e:	4798      	blx	r3
 8006090:	4817      	ldr	r0, [pc, #92]	; (80060f0 <FlashMemoryDriver+0x1f4>)
 8006092:	4b1e      	ldr	r3, [pc, #120]	; (800610c <FlashMemoryDriver+0x210>)
 8006094:	f44f 4100 	mov.w	r1, #32768	; 0x8000
 8006098:	4798      	blx	r3
 800609a:	bf00      	nop
 800609c:	4811      	ldr	r0, [pc, #68]	; (80060e4 <FlashMemoryDriver+0x1e8>)
 800609e:	4b1c      	ldr	r3, [pc, #112]	; (8006110 <FlashMemoryDriver+0x214>)
 80060a0:	4798      	blx	r3
 80060a2:	4810      	ldr	r0, [pc, #64]	; (80060e4 <FlashMemoryDriver+0x1e8>)
 80060a4:	4b1b      	ldr	r3, [pc, #108]	; (8006114 <FlashMemoryDriver+0x218>)
 80060a6:	2101      	movs	r1, #1
 80060a8:	4798      	blx	r3
 80060aa:	2202      	movs	r2, #2
 80060ac:	4b1a      	ldr	r3, [pc, #104]	; (8006118 <FlashMemoryDriver+0x21c>)
 80060ae:	2033      	movs	r0, #51	; 0x33
 80060b0:	2100      	movs	r1, #0
 80060b2:	4798      	blx	r3
 80060b4:	4b19      	ldr	r3, [pc, #100]	; (800611c <FlashMemoryDriver+0x220>)
 80060b6:	480b      	ldr	r0, [pc, #44]	; (80060e4 <FlashMemoryDriver+0x1e8>)
 80060b8:	4629      	mov	r1, r5
 80060ba:	4798      	blx	r3
 80060bc:	7863      	ldrb	r3, [r4, #1]
 80060be:	2202      	movs	r2, #2
 80060c0:	f362 1306 	bfi	r3, r2, #4, #3
 80060c4:	7063      	strb	r3, [r4, #1]
 80060c6:	bd38      	pop	{r3, r4, r5, pc}
 80060c8:	7863      	ldrb	r3, [r4, #1]
 80060ca:	f36f 0302 	bfc	r3, #0, #3
 80060ce:	7063      	strb	r3, [r4, #1]
 80060d0:	bd38      	pop	{r3, r4, r5, pc}
 80060d2:	bf00      	nop
 80060d4:	4220      	tst	r0, r4
 80060d6:	2000      	movs	r0, #0
 80060d8:	1749      	asrs	r1, r1, #29
 80060da:	0800      	lsrs	r0, r0, #32
 80060dc:	4258      	negs	r0, r3
 80060de:	2000      	movs	r0, #0
 80060e0:	597d      	ldr	r5, [r7, r5]
 80060e2:	0800      	lsrs	r0, r0, #32
 80060e4:	3c00      	subs	r4, #0
 80060e6:	4000      	ands	r0, r0
 80060e8:	10e9      	asrs	r1, r5, #3
 80060ea:	0800      	lsrs	r0, r0, #32
 80060ec:	0b71      	lsrs	r1, r6, #13
 80060ee:	0800      	lsrs	r0, r0, #32
 80060f0:	0800      	lsrs	r0, r0, #32
 80060f2:	4001      	ands	r1, r0
 80060f4:	112d      	asrs	r5, r5, #4
 80060f6:	0800      	lsrs	r0, r0, #32
 80060f8:	0d1d      	lsrs	r5, r3, #20
 80060fa:	0800      	lsrs	r0, r0, #32
 80060fc:	6a01      	ldr	r1, [r0, #32]
 80060fe:	0800      	lsrs	r0, r0, #32
 8006100:	5619      	ldrsb	r1, [r3, r0]
 8006102:	0800      	lsrs	r0, r0, #32
 8006104:	4250      	negs	r0, r2
 8006106:	2000      	movs	r0, #0
 8006108:	16d1      	asrs	r1, r2, #27
 800610a:	0800      	lsrs	r0, r0, #32
 800610c:	0b75      	lsrs	r5, r6, #13
 800610e:	0800      	lsrs	r0, r0, #32
 8006110:	10dd      	asrs	r5, r3, #3
 8006112:	0800      	lsrs	r0, r0, #32
 8006114:	1101      	asrs	r1, r0, #4
 8006116:	0800      	lsrs	r0, r0, #32
 8006118:	0c81      	lsrs	r1, r0, #18
 800611a:	0800      	lsrs	r0, r0, #32
 800611c:	10f5      	asrs	r5, r6, #3
 800611e:	0800      	lsrs	r0, r0, #32

08006120 <flash_ready>:
 8006120:	4b05      	ldr	r3, [pc, #20]	; (8006138 <flash_ready+0x18>)
 8006122:	7818      	ldrb	r0, [r3, #0]
 8006124:	f010 0001 	ands.w	r0, r0, #1
 8006128:	d005      	beq.n	8006136 <flash_ready+0x16>
 800612a:	785b      	ldrb	r3, [r3, #1]
 800612c:	f013 0f70 	tst.w	r3, #112	; 0x70
 8006130:	bf0c      	ite	eq
 8006132:	2001      	moveq	r0, #1
 8006134:	2000      	movne	r0, #0
 8006136:	4770      	bx	lr
 8006138:	4220      	tst	r0, r4
 800613a:	2000      	movs	r0, #0

0800613c <flash_error>:
 800613c:	4b05      	ldr	r3, [pc, #20]	; (8006154 <flash_error+0x18>)
 800613e:	4a06      	ldr	r2, [pc, #24]	; (8006158 <flash_error+0x1c>)
 8006140:	7818      	ldrb	r0, [r3, #0]
 8006142:	62da      	str	r2, [r3, #44]	; 0x2c
 8006144:	f020 0221 	bic.w	r2, r0, #33	; 0x21
 8006148:	f042 0201 	orr.w	r2, r2, #1
 800614c:	701a      	strb	r2, [r3, #0]
 800614e:	f3c0 1040 	ubfx	r0, r0, #5, #1
 8006152:	4770      	bx	lr
 8006154:	4220      	tst	r0, r4
 8006156:	2000      	movs	r0, #0
 8006158:	5619      	ldrsb	r1, [r3, r0]
 800615a:	0800      	lsrs	r0, r0, #32

0800615c <UserStatusInit>:
 800615c:	e92d 4ff8 	stmdb	sp!, {r3, r4, r5, r6, r7, r8, r9, sl, fp, lr}
 8006160:	f8df 90b4 	ldr.w	r9, [pc, #180]	; 8006218 <UserStatusInit+0xbc>
 8006164:	4c2d      	ldr	r4, [pc, #180]	; (800621c <UserStatusInit+0xc0>)
 8006166:	4d2e      	ldr	r5, [pc, #184]	; (8006220 <UserStatusInit+0xc4>)
 8006168:	4e2e      	ldr	r6, [pc, #184]	; (8006224 <UserStatusInit+0xc8>)
 800616a:	f8df 80bc 	ldr.w	r8, [pc, #188]	; 8006228 <UserStatusInit+0xcc>
 800616e:	f8df b0bc 	ldr.w	fp, [pc, #188]	; 800622c <UserStatusInit+0xd0>
 8006172:	f8df a0bc 	ldr.w	sl, [pc, #188]	; 8006230 <UserStatusInit+0xd4>
 8006176:	2700      	movs	r7, #0
 8006178:	f44f 7380 	mov.w	r3, #256	; 0x100
 800617c:	2204      	movs	r2, #4
 800617e:	2110      	movs	r1, #16
 8006180:	4648      	mov	r0, r9
 8006182:	47a0      	blx	r4
 8006184:	4b2b      	ldr	r3, [pc, #172]	; (8006234 <UserStatusInit+0xd8>)
 8006186:	7477      	strb	r7, [r6, #17]
 8006188:	463a      	mov	r2, r7
 800618a:	f44f 7180 	mov.w	r1, #256	; 0x100
 800618e:	4648      	mov	r0, r9
 8006190:	4798      	blx	r3
 8006192:	f44f 7380 	mov.w	r3, #256	; 0x100
 8006196:	2204      	movs	r2, #4
 8006198:	2114      	movs	r1, #20
 800619a:	4628      	mov	r0, r5
 800619c:	47a0      	blx	r4
 800619e:	f44f 7180 	mov.w	r1, #256	; 0x100
 80061a2:	4628      	mov	r0, r5
 80061a4:	47d8      	blx	fp
 80061a6:	f44f 4300 	mov.w	r3, #32768	; 0x8000
 80061aa:	2204      	movs	r2, #4
 80061ac:	2114      	movs	r1, #20
 80061ae:	4640      	mov	r0, r8
 80061b0:	47a0      	blx	r4
 80061b2:	f44f 4100 	mov.w	r1, #32768	; 0x8000
 80061b6:	4640      	mov	r0, r8
 80061b8:	47d0      	blx	sl
 80061ba:	2380      	movs	r3, #128	; 0x80
 80061bc:	2204      	movs	r2, #4
 80061be:	2114      	movs	r1, #20
 80061c0:	4628      	mov	r0, r5
 80061c2:	47a0      	blx	r4
 80061c4:	2180      	movs	r1, #128	; 0x80
 80061c6:	4628      	mov	r0, r5
 80061c8:	47d0      	blx	sl
 80061ca:	f44f 7380 	mov.w	r3, #256	; 0x100
 80061ce:	2204      	movs	r2, #4
 80061d0:	2114      	movs	r1, #20
 80061d2:	4640      	mov	r0, r8
 80061d4:	47a0      	blx	r4
 80061d6:	f44f 7180 	mov.w	r1, #256	; 0x100
 80061da:	4640      	mov	r0, r8
 80061dc:	47d0      	blx	sl
 80061de:	2204      	movs	r2, #4
 80061e0:	4611      	mov	r1, r2
 80061e2:	2340      	movs	r3, #64	; 0x40
 80061e4:	4628      	mov	r0, r5
 80061e6:	47a0      	blx	r4
 80061e8:	4648      	mov	r0, r9
 80061ea:	2301      	movs	r3, #1
 80061ec:	2203      	movs	r2, #3
 80061ee:	2104      	movs	r1, #4
 80061f0:	47a0      	blx	r4
 80061f2:	f44f 7300 	mov.w	r3, #512	; 0x200
 80061f6:	2204      	movs	r2, #4
 80061f8:	4628      	mov	r0, r5
 80061fa:	2128      	movs	r1, #40	; 0x28
 80061fc:	47a0      	blx	r4
 80061fe:	f44f 7180 	mov.w	r1, #256	; 0x100
 8006202:	4640      	mov	r0, r8
 8006204:	47d8      	blx	fp
 8006206:	2200      	movs	r2, #0
 8006208:	2300      	movs	r3, #0
 800620a:	e9c6 2302 	strd	r2, r3, [r6, #8]
 800620e:	6177      	str	r7, [r6, #20]
 8006210:	7477      	strb	r7, [r6, #17]
 8006212:	83b7      	strh	r7, [r6, #28]
 8006214:	e8bd 8ff8 	ldmia.w	sp!, {r3, r4, r5, r6, r7, r8, r9, sl, fp, pc}
 8006218:	0800      	lsrs	r0, r0, #32
 800621a:	4001      	ands	r1, r0
 800621c:	07b9      	lsls	r1, r7, #30
 800621e:	0800      	lsrs	r0, r0, #32
 8006220:	1000      	asrs	r0, r0, #32
 8006222:	4001      	ands	r1, r0
 8006224:	5258      	strh	r0, [r3, r1]
 8006226:	2000      	movs	r0, #0
 8006228:	0c00      	lsrs	r0, r0, #16
 800622a:	4001      	ands	r1, r0
 800622c:	0b75      	lsrs	r5, r6, #13
 800622e:	0800      	lsrs	r0, r0, #32
 8006230:	0b71      	lsrs	r1, r6, #13
 8006232:	0800      	lsrs	r0, r0, #32
 8006234:	0b79      	lsrs	r1, r7, #13
 8006236:	0800      	lsrs	r0, r0, #32

08006238 <UserStatusDriver>:
 8006238:	b570      	push	{r4, r5, r6, lr}
 800623a:	4c8d      	ldr	r4, [pc, #564]	; (8006470 <UserStatusDriver+0x238>)
 800623c:	7c63      	ldrb	r3, [r4, #17]
 800623e:	2b00      	cmp	r3, #0
 8006240:	d147      	bne.n	80062d2 <UserStatusDriver+0x9a>
 8006242:	488c      	ldr	r0, [pc, #560]	; (8006474 <UserStatusDriver+0x23c>)
 8006244:	4d8c      	ldr	r5, [pc, #560]	; (8006478 <UserStatusDriver+0x240>)
 8006246:	f44f 7100 	mov.w	r1, #512	; 0x200
 800624a:	47a8      	blx	r5
 800624c:	b320      	cbz	r0, 8006298 <UserStatusDriver+0x60>
 800624e:	7d23      	ldrb	r3, [r4, #20]
 8006250:	f013 0f30 	tst.w	r3, #48	; 0x30
 8006254:	d105      	bne.n	8006262 <UserStatusDriver+0x2a>
 8006256:	2201      	movs	r2, #1
 8006258:	f362 1305 	bfi	r3, r2, #4, #2
 800625c:	2205      	movs	r2, #5
 800625e:	7523      	strb	r3, [r4, #20]
 8006260:	7762      	strb	r2, [r4, #29]
 8006262:	4884      	ldr	r0, [pc, #528]	; (8006474 <UserStatusDriver+0x23c>)
 8006264:	4d85      	ldr	r5, [pc, #532]	; (800647c <UserStatusDriver+0x244>)
 8006266:	2180      	movs	r1, #128	; 0x80
 8006268:	47a8      	blx	r5
 800626a:	7d23      	ldrb	r3, [r4, #20]
 800626c:	4884      	ldr	r0, [pc, #528]	; (8006480 <UserStatusDriver+0x248>)
 800626e:	f043 0340 	orr.w	r3, r3, #64	; 0x40
 8006272:	7523      	strb	r3, [r4, #20]
 8006274:	f44f 4100 	mov.w	r1, #32768	; 0x8000
 8006278:	47a8      	blx	r5
 800627a:	7c63      	ldrb	r3, [r4, #17]
 800627c:	b95b      	cbnz	r3, 8006296 <UserStatusDriver+0x5e>
 800627e:	7d23      	ldrb	r3, [r4, #20]
 8006280:	f3c3 1201 	ubfx	r2, r3, #4, #2
 8006284:	2a01      	cmp	r2, #1
 8006286:	4611      	mov	r1, r2
 8006288:	d072      	beq.n	8006370 <UserStatusDriver+0x138>
 800628a:	2a02      	cmp	r2, #2
 800628c:	d060      	beq.n	8006350 <UserStatusDriver+0x118>
 800628e:	b112      	cbz	r2, 8006296 <UserStatusDriver+0x5e>
 8006290:	f36f 1305 	bfc	r3, #4, #2
 8006294:	7523      	strb	r3, [r4, #20]
 8006296:	bd70      	pop	{r4, r5, r6, pc}
 8006298:	487a      	ldr	r0, [pc, #488]	; (8006484 <UserStatusDriver+0x24c>)
 800629a:	2101      	movs	r1, #1
 800629c:	47a8      	blx	r5
 800629e:	2800      	cmp	r0, #0
 80062a0:	d03f      	beq.n	8006322 <UserStatusDriver+0xea>
 80062a2:	7d23      	ldrb	r3, [r4, #20]
 80062a4:	f013 0f30 	tst.w	r3, #48	; 0x30
 80062a8:	d105      	bne.n	80062b6 <UserStatusDriver+0x7e>
 80062aa:	2201      	movs	r2, #1
 80062ac:	f362 1305 	bfi	r3, r2, #4, #2
 80062b0:	2203      	movs	r2, #3
 80062b2:	7523      	strb	r3, [r4, #20]
 80062b4:	7762      	strb	r2, [r4, #29]
 80062b6:	7d23      	ldrb	r3, [r4, #20]
 80062b8:	4871      	ldr	r0, [pc, #452]	; (8006480 <UserStatusDriver+0x248>)
 80062ba:	4d70      	ldr	r5, [pc, #448]	; (800647c <UserStatusDriver+0x244>)
 80062bc:	f043 0340 	orr.w	r3, r3, #64	; 0x40
 80062c0:	f44f 4100 	mov.w	r1, #32768	; 0x8000
 80062c4:	7523      	strb	r3, [r4, #20]
 80062c6:	47a8      	blx	r5
 80062c8:	486a      	ldr	r0, [pc, #424]	; (8006474 <UserStatusDriver+0x23c>)
 80062ca:	2180      	movs	r1, #128	; 0x80
 80062cc:	47a8      	blx	r5
 80062ce:	7c63      	ldrb	r3, [r4, #17]
 80062d0:	e7d4      	b.n	800627c <UserStatusDriver+0x44>
 80062d2:	4b6d      	ldr	r3, [pc, #436]	; (8006488 <UserStatusDriver+0x250>)
 80062d4:	4620      	mov	r0, r4
 80062d6:	4798      	blx	r3
 80062d8:	2800      	cmp	r0, #0
 80062da:	d0b2      	beq.n	8006242 <UserStatusDriver+0xa>
 80062dc:	7c23      	ldrb	r3, [r4, #16]
 80062de:	b92b      	cbnz	r3, 80062ec <UserStatusDriver+0xb4>
 80062e0:	6862      	ldr	r2, [r4, #4]
 80062e2:	2a00      	cmp	r2, #0
 80062e4:	f000 8098 	beq.w	8006418 <UserStatusDriver+0x1e0>
 80062e8:	3a01      	subs	r2, #1
 80062ea:	6062      	str	r2, [r4, #4]
 80062ec:	3302      	adds	r3, #2
 80062ee:	4860      	ldr	r0, [pc, #384]	; (8006470 <UserStatusDriver+0x238>)
 80062f0:	f854 1023 	ldr.w	r1, [r4, r3, lsl #2]
 80062f4:	4b65      	ldr	r3, [pc, #404]	; (800648c <UserStatusDriver+0x254>)
 80062f6:	4798      	blx	r3
 80062f8:	7c23      	ldrb	r3, [r4, #16]
 80062fa:	68a2      	ldr	r2, [r4, #8]
 80062fc:	f083 0301 	eor.w	r3, r3, #1
 8006300:	7423      	strb	r3, [r4, #16]
 8006302:	2a00      	cmp	r2, #0
 8006304:	d09d      	beq.n	8006242 <UserStatusDriver+0xa>
 8006306:	4b62      	ldr	r3, [pc, #392]	; (8006490 <UserStatusDriver+0x258>)
 8006308:	f894 2020 	ldrb.w	r2, [r4, #32]
 800630c:	485d      	ldr	r0, [pc, #372]	; (8006484 <UserStatusDriver+0x24c>)
 800630e:	f44f 7180 	mov.w	r1, #256	; 0x100
 8006312:	4798      	blx	r3
 8006314:	f894 3020 	ldrb.w	r3, [r4, #32]
 8006318:	f083 0301 	eor.w	r3, r3, #1
 800631c:	f884 3020 	strb.w	r3, [r4, #32]
 8006320:	e78f      	b.n	8006242 <UserStatusDriver+0xa>
 8006322:	4b5c      	ldr	r3, [pc, #368]	; (8006494 <UserStatusDriver+0x25c>)
 8006324:	4798      	blx	r3
 8006326:	4603      	mov	r3, r0
 8006328:	2800      	cmp	r0, #0
 800632a:	d13e      	bne.n	80063aa <UserStatusDriver+0x172>
 800632c:	7d62      	ldrb	r2, [r4, #21]
 800632e:	f012 0103 	ands.w	r1, r2, #3
 8006332:	d12d      	bne.n	8006390 <UserStatusDriver+0x158>
 8006334:	7d23      	ldrb	r3, [r4, #20]
 8006336:	484f      	ldr	r0, [pc, #316]	; (8006474 <UserStatusDriver+0x23c>)
 8006338:	4d57      	ldr	r5, [pc, #348]	; (8006498 <UserStatusDriver+0x260>)
 800633a:	f361 1386 	bfi	r3, r1, #6, #1
 800633e:	2180      	movs	r1, #128	; 0x80
 8006340:	7523      	strb	r3, [r4, #20]
 8006342:	47a8      	blx	r5
 8006344:	484e      	ldr	r0, [pc, #312]	; (8006480 <UserStatusDriver+0x248>)
 8006346:	f44f 4100 	mov.w	r1, #32768	; 0x8000
 800634a:	47a8      	blx	r5
 800634c:	7c63      	ldrb	r3, [r4, #17]
 800634e:	e795      	b.n	800627c <UserStatusDriver+0x44>
 8006350:	7f62      	ldrb	r2, [r4, #29]
 8006352:	2000      	movs	r0, #0
 8006354:	2101      	movs	r1, #1
 8006356:	60a0      	str	r0, [r4, #8]
 8006358:	20fa      	movs	r0, #250	; 0xfa
 800635a:	f361 1305 	bfi	r3, r1, #4, #2
 800635e:	3a01      	subs	r2, #1
 8006360:	60e0      	str	r0, [r4, #12]
 8006362:	f44f 70c8 	mov.w	r0, #400	; 0x190
 8006366:	7461      	strb	r1, [r4, #17]
 8006368:	6060      	str	r0, [r4, #4]
 800636a:	7523      	strb	r3, [r4, #20]
 800636c:	7762      	strb	r2, [r4, #29]
 800636e:	bd70      	pop	{r4, r5, r6, pc}
 8006370:	7f62      	ldrb	r2, [r4, #29]
 8006372:	2a00      	cmp	r2, #0
 8006374:	d045      	beq.n	8006402 <UserStatusDriver+0x1ca>
 8006376:	2002      	movs	r0, #2
 8006378:	22fa      	movs	r2, #250	; 0xfa
 800637a:	f360 1305 	bfi	r3, r0, #4, #2
 800637e:	60a2      	str	r2, [r4, #8]
 8006380:	2000      	movs	r0, #0
 8006382:	f44f 72c8 	mov.w	r2, #400	; 0x190
 8006386:	60e0      	str	r0, [r4, #12]
 8006388:	7461      	strb	r1, [r4, #17]
 800638a:	6062      	str	r2, [r4, #4]
 800638c:	7523      	strb	r3, [r4, #20]
 800638e:	bd70      	pop	{r4, r5, r6, pc}
 8006390:	2901      	cmp	r1, #1
 8006392:	d048      	beq.n	8006426 <UserStatusDriver+0x1ee>
 8006394:	2902      	cmp	r1, #2
 8006396:	d02a      	beq.n	80063ee <UserStatusDriver+0x1b6>
 8006398:	f360 0201 	bfi	r2, r0, #0, #2
 800639c:	7c63      	ldrb	r3, [r4, #17]
 800639e:	7562      	strb	r2, [r4, #21]
 80063a0:	7d22      	ldrb	r2, [r4, #20]
 80063a2:	f042 0240 	orr.w	r2, r2, #64	; 0x40
 80063a6:	7522      	strb	r2, [r4, #20]
 80063a8:	e768      	b.n	800627c <UserStatusDriver+0x44>
 80063aa:	4832      	ldr	r0, [pc, #200]	; (8006474 <UserStatusDriver+0x23c>)
 80063ac:	4e3a      	ldr	r6, [pc, #232]	; (8006498 <UserStatusDriver+0x260>)
 80063ae:	2180      	movs	r1, #128	; 0x80
 80063b0:	47b0      	blx	r6
 80063b2:	7d23      	ldrb	r3, [r4, #20]
 80063b4:	7c65      	ldrb	r5, [r4, #17]
 80063b6:	f043 0340 	orr.w	r3, r3, #64	; 0x40
 80063ba:	7523      	strb	r3, [r4, #20]
 80063bc:	2d00      	cmp	r5, #0
 80063be:	f47f af6a 	bne.w	8006296 <UserStatusDriver+0x5e>
 80063c2:	b25b      	sxtb	r3, r3
 80063c4:	2b00      	cmp	r3, #0
 80063c6:	482e      	ldr	r0, [pc, #184]	; (8006480 <UserStatusDriver+0x248>)
 80063c8:	db40      	blt.n	800644c <UserStatusDriver+0x214>
 80063ca:	22fa      	movs	r2, #250	; 0xfa
 80063cc:	60a2      	str	r2, [r4, #8]
 80063ce:	2201      	movs	r2, #1
 80063d0:	4b2a      	ldr	r3, [pc, #168]	; (800647c <UserStatusDriver+0x244>)
 80063d2:	7462      	strb	r2, [r4, #17]
 80063d4:	60e5      	str	r5, [r4, #12]
 80063d6:	f44f 627a 	mov.w	r2, #4000	; 0xfa0
 80063da:	f44f 4100 	mov.w	r1, #32768	; 0x8000
 80063de:	6062      	str	r2, [r4, #4]
 80063e0:	4798      	blx	r3
 80063e2:	7d22      	ldrb	r2, [r4, #20]
 80063e4:	7c63      	ldrb	r3, [r4, #17]
 80063e6:	f042 0280 	orr.w	r2, r2, #128	; 0x80
 80063ea:	7522      	strb	r2, [r4, #20]
 80063ec:	e746      	b.n	800627c <UserStatusDriver+0x44>
 80063ee:	7c63      	ldrb	r3, [r4, #17]
 80063f0:	2b00      	cmp	r3, #0
 80063f2:	d1d5      	bne.n	80063a0 <UserStatusDriver+0x168>
 80063f4:	8aa3      	ldrh	r3, [r4, #20]
 80063f6:	f423 7350 	bic.w	r3, r3, #832	; 0x340
 80063fa:	f043 0340 	orr.w	r3, r3, #64	; 0x40
 80063fe:	82a3      	strh	r3, [r4, #20]
 8006400:	e73d      	b.n	800627e <UserStatusDriver+0x46>
 8006402:	20fa      	movs	r0, #250	; 0xfa
 8006404:	e9c4 2002 	strd	r2, r0, [r4, #8]
 8006408:	f043 0330 	orr.w	r3, r3, #48	; 0x30
 800640c:	f640 32b8 	movw	r2, #3000	; 0xbb8
 8006410:	7461      	strb	r1, [r4, #17]
 8006412:	6062      	str	r2, [r4, #4]
 8006414:	7523      	strb	r3, [r4, #20]
 8006416:	bd70      	pop	{r4, r5, r6, pc}
 8006418:	481a      	ldr	r0, [pc, #104]	; (8006484 <UserStatusDriver+0x24c>)
 800641a:	4b1d      	ldr	r3, [pc, #116]	; (8006490 <UserStatusDriver+0x258>)
 800641c:	8222      	strh	r2, [r4, #16]
 800641e:	f44f 7180 	mov.w	r1, #256	; 0x100
 8006422:	4798      	blx	r3
 8006424:	e70d      	b.n	8006242 <UserStatusDriver+0xa>
 8006426:	25fa      	movs	r5, #250	; 0xfa
 8006428:	e9c4 3502 	strd	r3, r5, [r4, #8]
 800642c:	4a13      	ldr	r2, [pc, #76]	; (800647c <UserStatusDriver+0x244>)
 800642e:	7461      	strb	r1, [r4, #17]
 8006430:	f44f 637a 	mov.w	r3, #4000	; 0xfa0
 8006434:	4812      	ldr	r0, [pc, #72]	; (8006480 <UserStatusDriver+0x248>)
 8006436:	6063      	str	r3, [r4, #4]
 8006438:	f44f 4100 	mov.w	r1, #32768	; 0x8000
 800643c:	4790      	blx	r2
 800643e:	7d62      	ldrb	r2, [r4, #21]
 8006440:	2302      	movs	r3, #2
 8006442:	f363 0201 	bfi	r2, r3, #0, #2
 8006446:	7562      	strb	r2, [r4, #21]
 8006448:	7c63      	ldrb	r3, [r4, #17]
 800644a:	e7a9      	b.n	80063a0 <UserStatusDriver+0x168>
 800644c:	23fa      	movs	r3, #250	; 0xfa
 800644e:	e9c4 5302 	strd	r5, r3, [r4, #8]
 8006452:	2301      	movs	r3, #1
 8006454:	7463      	strb	r3, [r4, #17]
 8006456:	f44f 4100 	mov.w	r1, #32768	; 0x8000
 800645a:	f44f 637a 	mov.w	r3, #4000	; 0xfa0
 800645e:	6063      	str	r3, [r4, #4]
 8006460:	47b0      	blx	r6
 8006462:	7d22      	ldrb	r2, [r4, #20]
 8006464:	7c63      	ldrb	r3, [r4, #17]
 8006466:	f365 12c7 	bfi	r2, r5, #7, #1
 800646a:	7522      	strb	r2, [r4, #20]
 800646c:	e706      	b.n	800627c <UserStatusDriver+0x44>
 800646e:	bf00      	nop
 8006470:	5258      	strh	r0, [r3, r1]
 8006472:	2000      	movs	r0, #0
 8006474:	1000      	asrs	r0, r0, #32
 8006476:	4001      	ands	r1, r0
 8006478:	0b85      	lsrs	r5, r0, #14
 800647a:	0800      	lsrs	r0, r0, #32
 800647c:	0b75      	lsrs	r5, r6, #13
 800647e:	0800      	lsrs	r0, r0, #32
 8006480:	0c00      	lsrs	r0, r0, #16
 8006482:	4001      	ands	r1, r0
 8006484:	0800      	lsrs	r0, r0, #32
 8006486:	4001      	ands	r1, r0
 8006488:	1771      	asrs	r1, r6, #29
 800648a:	0800      	lsrs	r0, r0, #32
 800648c:	16a1      	asrs	r1, r4, #26
 800648e:	0800      	lsrs	r0, r0, #32
 8006490:	0b79      	lsrs	r1, r7, #13
 8006492:	0800      	lsrs	r0, r0, #32
 8006494:	66bd      	str	r5, [r7, #104]	; 0x68
 8006496:	0800      	lsrs	r0, r0, #32
 8006498:	0b71      	lsrs	r1, r6, #13
 800649a:	0800      	lsrs	r0, r0, #32

0800649c <buttonScan>:
 800649c:	b538      	push	{r3, r4, r5, lr}
 800649e:	4d1d      	ldr	r5, [pc, #116]	; (8006514 <buttonScan+0x78>)
 80064a0:	7d2b      	ldrb	r3, [r5, #20]
 80064a2:	07da      	lsls	r2, r3, #31
 80064a4:	d500      	bpl.n	80064a8 <buttonScan+0xc>
 80064a6:	bd38      	pop	{r3, r4, r5, pc}
 80064a8:	f013 0206 	ands.w	r2, r3, #6
 80064ac:	d00e      	beq.n	80064cc <buttonScan+0x30>
 80064ae:	2a02      	cmp	r2, #2
 80064b0:	d1f9      	bne.n	80064a6 <buttonScan+0xa>
 80064b2:	4819      	ldr	r0, [pc, #100]	; (8006518 <buttonScan+0x7c>)
 80064b4:	4a19      	ldr	r2, [pc, #100]	; (800651c <buttonScan+0x80>)
 80064b6:	2140      	movs	r1, #64	; 0x40
 80064b8:	f3c3 04c0 	ubfx	r4, r3, #3, #1
 80064bc:	4790      	blx	r2
 80064be:	4284      	cmp	r4, r0
 80064c0:	d015      	beq.n	80064ee <buttonScan+0x52>
 80064c2:	7d2b      	ldrb	r3, [r5, #20]
 80064c4:	f36f 0342 	bfc	r3, #1, #2
 80064c8:	752b      	strb	r3, [r5, #20]
 80064ca:	bd38      	pop	{r3, r4, r5, pc}
 80064cc:	221e      	movs	r2, #30
 80064ce:	4b13      	ldr	r3, [pc, #76]	; (800651c <buttonScan+0x80>)
 80064d0:	4811      	ldr	r0, [pc, #68]	; (8006518 <buttonScan+0x7c>)
 80064d2:	772a      	strb	r2, [r5, #28]
 80064d4:	2140      	movs	r1, #64	; 0x40
 80064d6:	4798      	blx	r3
 80064d8:	7d2a      	ldrb	r2, [r5, #20]
 80064da:	00c3      	lsls	r3, r0, #3
 80064dc:	f003 0308 	and.w	r3, r3, #8
 80064e0:	f043 0302 	orr.w	r3, r3, #2
 80064e4:	f022 020e 	bic.w	r2, r2, #14
 80064e8:	4313      	orrs	r3, r2
 80064ea:	752b      	strb	r3, [r5, #20]
 80064ec:	bd38      	pop	{r3, r4, r5, pc}
 80064ee:	7f2b      	ldrb	r3, [r5, #28]
 80064f0:	b113      	cbz	r3, 80064f8 <buttonScan+0x5c>
 80064f2:	3b01      	subs	r3, #1
 80064f4:	772b      	strb	r3, [r5, #28]
 80064f6:	bd38      	pop	{r3, r4, r5, pc}
 80064f8:	7d2b      	ldrb	r3, [r5, #20]
 80064fa:	071b      	lsls	r3, r3, #28
 80064fc:	d5e1      	bpl.n	80064c2 <buttonScan+0x26>
 80064fe:	4b08      	ldr	r3, [pc, #32]	; (8006520 <buttonScan+0x84>)
 8006500:	4798      	blx	r3
 8006502:	2800      	cmp	r0, #0
 8006504:	d0dd      	beq.n	80064c2 <buttonScan+0x26>
 8006506:	4b07      	ldr	r3, [pc, #28]	; (8006524 <buttonScan+0x88>)
 8006508:	4798      	blx	r3
 800650a:	4b07      	ldr	r3, [pc, #28]	; (8006528 <buttonScan+0x8c>)
 800650c:	2101      	movs	r1, #1
 800650e:	4798      	blx	r3
 8006510:	e7d7      	b.n	80064c2 <buttonScan+0x26>
 8006512:	bf00      	nop
 8006514:	5258      	strh	r0, [r3, r1]
 8006516:	2000      	movs	r0, #0
 8006518:	1000      	asrs	r0, r0, #32
 800651a:	4001      	ands	r1, r0
 800651c:	0b85      	lsrs	r5, r0, #14
 800651e:	0800      	lsrs	r0, r0, #32
 8006520:	41d5      	rors	r5, r2
 8006522:	0800      	lsrs	r0, r0, #32
 8006524:	479d      			; <UNDEFINED> instruction: 0x479d
 8006526:	0800      	lsrs	r0, r0, #32
 8006528:	40d1      	lsrs	r1, r2
 800652a:	0800      	lsrs	r0, r0, #32

0800652c <SystemStatusGenerateError>:
 800652c:	4b02      	ldr	r3, [pc, #8]	; (8006538 <SystemStatusGenerateError+0xc>)
 800652e:	7d18      	ldrb	r0, [r3, #20]
 8006530:	f3c0 1080 	ubfx	r0, r0, #6, #1
 8006534:	4770      	bx	lr
 8006536:	bf00      	nop
 8006538:	5258      	strh	r0, [r3, r1]
 800653a:	2000      	movs	r0, #0

0800653c <run_flash_error>:
 800653c:	4b03      	ldr	r3, [pc, #12]	; (800654c <run_flash_error+0x10>)
 800653e:	7d5a      	ldrb	r2, [r3, #21]
 8006540:	2101      	movs	r1, #1
 8006542:	f361 0201 	bfi	r2, r1, #0, #2
 8006546:	755a      	strb	r2, [r3, #21]
 8006548:	4770      	bx	lr
 800654a:	bf00      	nop
 800654c:	5258      	strh	r0, [r3, r1]
 800654e:	2000      	movs	r0, #0

08006550 <printu32Number>:
 8006550:	b500      	push	{lr}
 8006552:	b085      	sub	sp, #20
 8006554:	4601      	mov	r1, r0
 8006556:	4b06      	ldr	r3, [pc, #24]	; (8006570 <printu32Number+0x20>)
 8006558:	a801      	add	r0, sp, #4
 800655a:	4798      	blx	r3
 800655c:	aa01      	add	r2, sp, #4
 800655e:	f1c0 010a 	rsb	r1, r0, #10
 8006562:	4b04      	ldr	r3, [pc, #16]	; (8006574 <printu32Number+0x24>)
 8006564:	b2c9      	uxtb	r1, r1
 8006566:	4410      	add	r0, r2
 8006568:	4798      	blx	r3
 800656a:	b005      	add	sp, #20
 800656c:	f85d fb04 	ldr.w	pc, [sp], #4
 8006570:	68c5      	ldr	r5, [r0, #12]
 8006572:	0800      	lsrs	r0, r0, #32
 8006574:	2c9d      	cmp	r4, #157	; 0x9d
 8006576:	0800      	lsrs	r0, r0, #32

08006578 <PrintChar>:
 8006578:	b500      	push	{lr}
 800657a:	b083      	sub	sp, #12
 800657c:	287f      	cmp	r0, #127	; 0x7f
 800657e:	f88d 0007 	strb.w	r0, [sp, #7]
 8006582:	d001      	beq.n	8006588 <PrintChar+0x10>
 8006584:	281f      	cmp	r0, #31
 8006586:	d802      	bhi.n	800658e <PrintChar+0x16>
 8006588:	b003      	add	sp, #12
 800658a:	f85d fb04 	ldr.w	pc, [sp], #4
 800658e:	4b04      	ldr	r3, [pc, #16]	; (80065a0 <PrintChar+0x28>)
 8006590:	2101      	movs	r1, #1
 8006592:	f10d 0007 	add.w	r0, sp, #7
 8006596:	4798      	blx	r3
 8006598:	b003      	add	sp, #12
 800659a:	f85d fb04 	ldr.w	pc, [sp], #4
 800659e:	bf00      	nop
 80065a0:	2c9d      	cmp	r4, #157	; 0x9d
 80065a2:	0800      	lsrs	r0, r0, #32

080065a4 <PrintCmd>:
 80065a4:	b500      	push	{lr}
 80065a6:	b083      	sub	sp, #12
 80065a8:	281f      	cmp	r0, #31
 80065aa:	f88d 0007 	strb.w	r0, [sp, #7]
 80065ae:	d804      	bhi.n	80065ba <PrintCmd+0x16>
 80065b0:	4b03      	ldr	r3, [pc, #12]	; (80065c0 <PrintCmd+0x1c>)
 80065b2:	2101      	movs	r1, #1
 80065b4:	f10d 0007 	add.w	r0, sp, #7
 80065b8:	4798      	blx	r3
 80065ba:	b003      	add	sp, #12
 80065bc:	f85d fb04 	ldr.w	pc, [sp], #4
 80065c0:	2c9d      	cmp	r4, #157	; 0x9d
 80065c2:	0800      	lsrs	r0, r0, #32

080065c4 <cut_Init>:
 80065c4:	b538      	push	{r3, r4, r5, lr}
 80065c6:	f240 6003 	movw	r0, #1539	; 0x603
 80065ca:	4d14      	ldr	r5, [pc, #80]	; (800661c <cut_Init+0x58>)
 80065cc:	4b14      	ldr	r3, [pc, #80]	; (8006620 <cut_Init+0x5c>)
 80065ce:	4c15      	ldr	r4, [pc, #84]	; (8006624 <cut_Init+0x60>)
 80065d0:	4798      	blx	r3
 80065d2:	2304      	movs	r3, #4
 80065d4:	461a      	mov	r2, r3
 80065d6:	2110      	movs	r1, #16
 80065d8:	4628      	mov	r0, r5
 80065da:	47a0      	blx	r4
 80065dc:	2308      	movs	r3, #8
 80065de:	2204      	movs	r2, #4
 80065e0:	2110      	movs	r1, #16
 80065e2:	4628      	mov	r0, r5
 80065e4:	47a0      	blx	r4
 80065e6:	2204      	movs	r2, #4
 80065e8:	4611      	mov	r1, r2
 80065ea:	480f      	ldr	r0, [pc, #60]	; (8006628 <cut_Init+0x64>)
 80065ec:	f44f 7300 	mov.w	r3, #512	; 0x200
 80065f0:	47a0      	blx	r4
 80065f2:	2203      	movs	r2, #3
 80065f4:	2100      	movs	r1, #0
 80065f6:	4b0d      	ldr	r3, [pc, #52]	; (800662c <cut_Init+0x68>)
 80065f8:	f44f 7000 	mov.w	r0, #512	; 0x200
 80065fc:	4798      	blx	r3
 80065fe:	4b0c      	ldr	r3, [pc, #48]	; (8006630 <cut_Init+0x6c>)
 8006600:	f44f 7000 	mov.w	r0, #512	; 0x200
 8006604:	4798      	blx	r3
 8006606:	4b0b      	ldr	r3, [pc, #44]	; (8006634 <cut_Init+0x70>)
 8006608:	2017      	movs	r0, #23
 800660a:	4798      	blx	r3
 800660c:	4b0a      	ldr	r3, [pc, #40]	; (8006638 <cut_Init+0x74>)
 800660e:	f44f 7000 	mov.w	r0, #512	; 0x200
 8006612:	4798      	blx	r3
 8006614:	4b09      	ldr	r3, [pc, #36]	; (800663c <cut_Init+0x78>)
 8006616:	2204      	movs	r2, #4
 8006618:	801a      	strh	r2, [r3, #0]
 800661a:	bd38      	pop	{r3, r4, r5, pc}
 800661c:	1000      	asrs	r0, r0, #32
 800661e:	4001      	ands	r1, r0
 8006620:	0e1d      	lsrs	r5, r3, #24
 8006622:	0800      	lsrs	r0, r0, #32
 8006624:	07b9      	lsls	r1, r7, #30
 8006626:	0800      	lsrs	r0, r0, #32
 8006628:	0c00      	lsrs	r0, r0, #16
 800662a:	4001      	ands	r1, r0
 800662c:	05e1      	lsls	r1, r4, #23
 800662e:	0800      	lsrs	r0, r0, #32
 8006630:	06d5      	lsls	r5, r2, #27
 8006632:	0800      	lsrs	r0, r0, #32
 8006634:	0d1d      	lsrs	r5, r3, #20
 8006636:	0800      	lsrs	r0, r0, #32
 8006638:	06ad      	lsls	r5, r5, #26
 800663a:	0800      	lsrs	r0, r0, #32
 800663c:	527c      	strh	r4, [r7, r1]
 800663e:	2000      	movs	r0, #0

08006640 <CutNow>:
 8006640:	b538      	push	{r3, r4, r5, lr}
 8006642:	4d15      	ldr	r5, [pc, #84]	; (8006698 <CutNow+0x58>)
 8006644:	4c15      	ldr	r4, [pc, #84]	; (800669c <CutNow+0x5c>)
 8006646:	2200      	movs	r2, #0
 8006648:	2104      	movs	r1, #4
 800664a:	4628      	mov	r0, r5
 800664c:	47a0      	blx	r4
 800664e:	2201      	movs	r2, #1
 8006650:	2108      	movs	r1, #8
 8006652:	4628      	mov	r0, r5
 8006654:	47a0      	blx	r4
 8006656:	2200      	movs	r2, #0
 8006658:	4611      	mov	r1, r2
 800665a:	4b11      	ldr	r3, [pc, #68]	; (80066a0 <CutNow+0x60>)
 800665c:	4c11      	ldr	r4, [pc, #68]	; (80066a4 <CutNow+0x64>)
 800665e:	2017      	movs	r0, #23
 8006660:	4798      	blx	r3
 8006662:	4b11      	ldr	r3, [pc, #68]	; (80066a8 <CutNow+0x68>)
 8006664:	2109      	movs	r1, #9
 8006666:	2001      	movs	r0, #1
 8006668:	4798      	blx	r3
 800666a:	2201      	movs	r2, #1
 800666c:	2100      	movs	r1, #0
 800666e:	4b0f      	ldr	r3, [pc, #60]	; (80066ac <CutNow+0x6c>)
 8006670:	f44f 7000 	mov.w	r0, #512	; 0x200
 8006674:	4798      	blx	r3
 8006676:	4b0e      	ldr	r3, [pc, #56]	; (80066b0 <CutNow+0x70>)
 8006678:	f44f 7000 	mov.w	r0, #512	; 0x200
 800667c:	4798      	blx	r3
 800667e:	4b0d      	ldr	r3, [pc, #52]	; (80066b4 <CutNow+0x74>)
 8006680:	f44f 7000 	mov.w	r0, #512	; 0x200
 8006684:	4798      	blx	r3
 8006686:	4b0c      	ldr	r3, [pc, #48]	; (80066b8 <CutNow+0x78>)
 8006688:	f640 31b8 	movw	r1, #3000	; 0xbb8
 800668c:	1d20      	adds	r0, r4, #4
 800668e:	4798      	blx	r3
 8006690:	2301      	movs	r3, #1
 8006692:	7023      	strb	r3, [r4, #0]
 8006694:	bd38      	pop	{r3, r4, r5, pc}
 8006696:	bf00      	nop
 8006698:	1000      	asrs	r0, r0, #32
 800669a:	4001      	ands	r1, r0
 800669c:	0b79      	lsrs	r1, r7, #13
 800669e:	0800      	lsrs	r0, r0, #32
 80066a0:	0c81      	lsrs	r1, r0, #18
 80066a2:	0800      	lsrs	r0, r0, #32
 80066a4:	527c      	strh	r4, [r7, r1]
 80066a6:	2000      	movs	r0, #0
 80066a8:	0c01      	lsrs	r1, r0, #16
 80066aa:	0800      	lsrs	r0, r0, #32
 80066ac:	05e1      	lsls	r1, r4, #23
 80066ae:	0800      	lsrs	r0, r0, #32
 80066b0:	06d5      	lsls	r5, r2, #27
 80066b2:	0800      	lsrs	r0, r0, #32
 80066b4:	0699      	lsls	r1, r3, #26
 80066b6:	0800      	lsrs	r0, r0, #32
 80066b8:	16d1      	asrs	r1, r2, #27
 80066ba:	0800      	lsrs	r0, r0, #32

080066bc <CutErrorState>:
 80066bc:	4b01      	ldr	r3, [pc, #4]	; (80066c4 <CutErrorState+0x8>)
 80066be:	7858      	ldrb	r0, [r3, #1]
 80066c0:	4770      	bx	lr
 80066c2:	bf00      	nop
 80066c4:	527c      	strh	r4, [r7, r1]
 80066c6:	2000      	movs	r0, #0

080066c8 <Cutter>:
 80066c8:	b570      	push	{r4, r5, r6, lr}
 80066ca:	4c50      	ldr	r4, [pc, #320]	; (800680c <Cutter+0x144>)
 80066cc:	7823      	ldrb	r3, [r4, #0]
 80066ce:	2b04      	cmp	r3, #4
 80066d0:	f200 8098 	bhi.w	8006804 <Cutter+0x13c>
 80066d4:	e8df f003 	tbb	[pc, r3]
 80066d8:	0c0b      	lsrs	r3, r1, #16
 80066da:	5c39      	ldrb	r1, [r7, r0]
 80066dc:	0003      	movs	r3, r0
 80066de:	484c      	ldr	r0, [pc, #304]	; (8006810 <Cutter+0x148>)
 80066e0:	4b4c      	ldr	r3, [pc, #304]	; (8006814 <Cutter+0x14c>)
 80066e2:	f44f 7100 	mov.w	r1, #512	; 0x200
 80066e6:	4798      	blx	r3
 80066e8:	2800      	cmp	r0, #0
 80066ea:	d163      	bne.n	80067b4 <Cutter+0xec>
 80066ec:	7020      	strb	r0, [r4, #0]
 80066ee:	bd70      	pop	{r4, r5, r6, pc}
 80066f0:	4849      	ldr	r0, [pc, #292]	; (8006818 <Cutter+0x150>)
 80066f2:	4b4a      	ldr	r3, [pc, #296]	; (800681c <Cutter+0x154>)
 80066f4:	4798      	blx	r3
 80066f6:	2800      	cmp	r0, #0
 80066f8:	d0f9      	beq.n	80066ee <Cutter+0x26>
 80066fa:	2200      	movs	r2, #0
 80066fc:	4611      	mov	r1, r2
 80066fe:	4b48      	ldr	r3, [pc, #288]	; (8006820 <Cutter+0x158>)
 8006700:	4d48      	ldr	r5, [pc, #288]	; (8006824 <Cutter+0x15c>)
 8006702:	2017      	movs	r0, #23
 8006704:	4798      	blx	r3
 8006706:	4b48      	ldr	r3, [pc, #288]	; (8006828 <Cutter+0x160>)
 8006708:	2109      	movs	r1, #9
 800670a:	2001      	movs	r0, #1
 800670c:	4798      	blx	r3
 800670e:	2201      	movs	r2, #1
 8006710:	2100      	movs	r1, #0
 8006712:	4b46      	ldr	r3, [pc, #280]	; (800682c <Cutter+0x164>)
 8006714:	f44f 7000 	mov.w	r0, #512	; 0x200
 8006718:	4798      	blx	r3
 800671a:	4b45      	ldr	r3, [pc, #276]	; (8006830 <Cutter+0x168>)
 800671c:	f44f 7000 	mov.w	r0, #512	; 0x200
 8006720:	4798      	blx	r3
 8006722:	4b44      	ldr	r3, [pc, #272]	; (8006834 <Cutter+0x16c>)
 8006724:	f44f 7000 	mov.w	r0, #512	; 0x200
 8006728:	4798      	blx	r3
 800672a:	4843      	ldr	r0, [pc, #268]	; (8006838 <Cutter+0x170>)
 800672c:	2200      	movs	r2, #0
 800672e:	2104      	movs	r1, #4
 8006730:	47a8      	blx	r5
 8006732:	4841      	ldr	r0, [pc, #260]	; (8006838 <Cutter+0x170>)
 8006734:	2201      	movs	r2, #1
 8006736:	2108      	movs	r1, #8
 8006738:	47a8      	blx	r5
 800673a:	4b40      	ldr	r3, [pc, #256]	; (800683c <Cutter+0x174>)
 800673c:	4836      	ldr	r0, [pc, #216]	; (8006818 <Cutter+0x150>)
 800673e:	f640 31b8 	movw	r1, #3000	; 0xbb8
 8006742:	4798      	blx	r3
 8006744:	2302      	movs	r3, #2
 8006746:	7023      	strb	r3, [r4, #0]
 8006748:	bd70      	pop	{r4, r5, r6, pc}
 800674a:	4833      	ldr	r0, [pc, #204]	; (8006818 <Cutter+0x150>)
 800674c:	4b33      	ldr	r3, [pc, #204]	; (800681c <Cutter+0x154>)
 800674e:	4798      	blx	r3
 8006750:	2800      	cmp	r0, #0
 8006752:	d0cc      	beq.n	80066ee <Cutter+0x26>
 8006754:	4838      	ldr	r0, [pc, #224]	; (8006838 <Cutter+0x170>)
 8006756:	4d33      	ldr	r5, [pc, #204]	; (8006824 <Cutter+0x15c>)
 8006758:	2200      	movs	r2, #0
 800675a:	2104      	movs	r1, #4
 800675c:	47a8      	blx	r5
 800675e:	4836      	ldr	r0, [pc, #216]	; (8006838 <Cutter+0x170>)
 8006760:	2200      	movs	r2, #0
 8006762:	2108      	movs	r1, #8
 8006764:	47a8      	blx	r5
 8006766:	2100      	movs	r1, #0
 8006768:	2203      	movs	r2, #3
 800676a:	4b30      	ldr	r3, [pc, #192]	; (800682c <Cutter+0x164>)
 800676c:	7021      	strb	r1, [r4, #0]
 800676e:	f44f 7000 	mov.w	r0, #512	; 0x200
 8006772:	4798      	blx	r3
 8006774:	4b2e      	ldr	r3, [pc, #184]	; (8006830 <Cutter+0x168>)
 8006776:	f44f 7000 	mov.w	r0, #512	; 0x200
 800677a:	4798      	blx	r3
 800677c:	4b30      	ldr	r3, [pc, #192]	; (8006840 <Cutter+0x178>)
 800677e:	2017      	movs	r0, #23
 8006780:	4798      	blx	r3
 8006782:	4b30      	ldr	r3, [pc, #192]	; (8006844 <Cutter+0x17c>)
 8006784:	f44f 7000 	mov.w	r0, #512	; 0x200
 8006788:	4798      	blx	r3
 800678a:	2301      	movs	r3, #1
 800678c:	7063      	strb	r3, [r4, #1]
 800678e:	bd70      	pop	{r4, r5, r6, pc}
 8006790:	4821      	ldr	r0, [pc, #132]	; (8006818 <Cutter+0x150>)
 8006792:	4b22      	ldr	r3, [pc, #136]	; (800681c <Cutter+0x154>)
 8006794:	4798      	blx	r3
 8006796:	2800      	cmp	r0, #0
 8006798:	d0a9      	beq.n	80066ee <Cutter+0x26>
 800679a:	2104      	movs	r1, #4
 800679c:	8021      	strh	r1, [r4, #0]
 800679e:	4c21      	ldr	r4, [pc, #132]	; (8006824 <Cutter+0x15c>)
 80067a0:	4825      	ldr	r0, [pc, #148]	; (8006838 <Cutter+0x170>)
 80067a2:	2200      	movs	r2, #0
 80067a4:	47a0      	blx	r4
 80067a6:	4623      	mov	r3, r4
 80067a8:	4823      	ldr	r0, [pc, #140]	; (8006838 <Cutter+0x170>)
 80067aa:	e8bd 4070 	ldmia.w	sp!, {r4, r5, r6, lr}
 80067ae:	2200      	movs	r2, #0
 80067b0:	2108      	movs	r1, #8
 80067b2:	4718      	bx	r3
 80067b4:	2200      	movs	r2, #0
 80067b6:	4611      	mov	r1, r2
 80067b8:	4b19      	ldr	r3, [pc, #100]	; (8006820 <Cutter+0x158>)
 80067ba:	4d1a      	ldr	r5, [pc, #104]	; (8006824 <Cutter+0x15c>)
 80067bc:	2017      	movs	r0, #23
 80067be:	4798      	blx	r3
 80067c0:	4b19      	ldr	r3, [pc, #100]	; (8006828 <Cutter+0x160>)
 80067c2:	2109      	movs	r1, #9
 80067c4:	2001      	movs	r0, #1
 80067c6:	4798      	blx	r3
 80067c8:	2201      	movs	r2, #1
 80067ca:	2100      	movs	r1, #0
 80067cc:	4b17      	ldr	r3, [pc, #92]	; (800682c <Cutter+0x164>)
 80067ce:	f44f 7000 	mov.w	r0, #512	; 0x200
 80067d2:	4798      	blx	r3
 80067d4:	4b16      	ldr	r3, [pc, #88]	; (8006830 <Cutter+0x168>)
 80067d6:	f44f 7000 	mov.w	r0, #512	; 0x200
 80067da:	4798      	blx	r3
 80067dc:	4b15      	ldr	r3, [pc, #84]	; (8006834 <Cutter+0x16c>)
 80067de:	f44f 7000 	mov.w	r0, #512	; 0x200
 80067e2:	4798      	blx	r3
 80067e4:	4814      	ldr	r0, [pc, #80]	; (8006838 <Cutter+0x170>)
 80067e6:	2200      	movs	r2, #0
 80067e8:	2104      	movs	r1, #4
 80067ea:	47a8      	blx	r5
 80067ec:	4812      	ldr	r0, [pc, #72]	; (8006838 <Cutter+0x170>)
 80067ee:	2201      	movs	r2, #1
 80067f0:	2108      	movs	r1, #8
 80067f2:	47a8      	blx	r5
 80067f4:	4b11      	ldr	r3, [pc, #68]	; (800683c <Cutter+0x174>)
 80067f6:	4808      	ldr	r0, [pc, #32]	; (8006818 <Cutter+0x150>)
 80067f8:	f640 31b8 	movw	r1, #3000	; 0xbb8
 80067fc:	4798      	blx	r3
 80067fe:	2302      	movs	r3, #2
 8006800:	8023      	strh	r3, [r4, #0]
 8006802:	bd70      	pop	{r4, r5, r6, pc}
 8006804:	2300      	movs	r3, #0
 8006806:	7023      	strb	r3, [r4, #0]
 8006808:	bd70      	pop	{r4, r5, r6, pc}
 800680a:	bf00      	nop
 800680c:	527c      	strh	r4, [r7, r1]
 800680e:	2000      	movs	r0, #0
 8006810:	0c00      	lsrs	r0, r0, #16
 8006812:	4001      	ands	r1, r0
 8006814:	0b85      	lsrs	r5, r0, #14
 8006816:	0800      	lsrs	r0, r0, #32
 8006818:	5280      	strh	r0, [r0, r2]
 800681a:	2000      	movs	r0, #0
 800681c:	1749      	asrs	r1, r1, #29
 800681e:	0800      	lsrs	r0, r0, #32
 8006820:	0c81      	lsrs	r1, r0, #18
 8006822:	0800      	lsrs	r0, r0, #32
 8006824:	0b79      	lsrs	r1, r7, #13
 8006826:	0800      	lsrs	r0, r0, #32
 8006828:	0c01      	lsrs	r1, r0, #16
 800682a:	0800      	lsrs	r0, r0, #32
 800682c:	05e1      	lsls	r1, r4, #23
 800682e:	0800      	lsrs	r0, r0, #32
 8006830:	06d5      	lsls	r5, r2, #27
 8006832:	0800      	lsrs	r0, r0, #32
 8006834:	0699      	lsls	r1, r3, #26
 8006836:	0800      	lsrs	r0, r0, #32
 8006838:	1000      	asrs	r0, r0, #32
 800683a:	4001      	ands	r1, r0
 800683c:	16d1      	asrs	r1, r2, #27
 800683e:	0800      	lsrs	r0, r0, #32
 8006840:	0d1d      	lsrs	r5, r3, #20
 8006842:	0800      	lsrs	r0, r0, #32
 8006844:	06ad      	lsls	r5, r5, #26
 8006846:	0800      	lsrs	r0, r0, #32

08006848 <getCutState>:
 8006848:	4b02      	ldr	r3, [pc, #8]	; (8006854 <getCutState+0xc>)
 800684a:	7818      	ldrb	r0, [r3, #0]
 800684c:	fab0 f080 	clz	r0, r0
 8006850:	0940      	lsrs	r0, r0, #5
 8006852:	4770      	bx	lr
 8006854:	527c      	strh	r4, [r7, r1]
 8006856:	2000      	movs	r0, #0

08006858 <cutter_isr>:
 8006858:	b570      	push	{r4, r5, r6, lr}
 800685a:	4d12      	ldr	r5, [pc, #72]	; (80068a4 <cutter_isr+0x4c>)
 800685c:	4c12      	ldr	r4, [pc, #72]	; (80068a8 <cutter_isr+0x50>)
 800685e:	4628      	mov	r0, r5
 8006860:	2201      	movs	r2, #1
 8006862:	2104      	movs	r1, #4
 8006864:	47a0      	blx	r4
 8006866:	4628      	mov	r0, r5
 8006868:	2201      	movs	r2, #1
 800686a:	2108      	movs	r1, #8
 800686c:	47a0      	blx	r4
 800686e:	2100      	movs	r1, #0
 8006870:	2203      	movs	r2, #3
 8006872:	4b0e      	ldr	r3, [pc, #56]	; (80068ac <cutter_isr+0x54>)
 8006874:	f44f 7000 	mov.w	r0, #512	; 0x200
 8006878:	4798      	blx	r3
 800687a:	4b0d      	ldr	r3, [pc, #52]	; (80068b0 <cutter_isr+0x58>)
 800687c:	f44f 7000 	mov.w	r0, #512	; 0x200
 8006880:	4798      	blx	r3
 8006882:	4b0c      	ldr	r3, [pc, #48]	; (80068b4 <cutter_isr+0x5c>)
 8006884:	2017      	movs	r0, #23
 8006886:	4798      	blx	r3
 8006888:	4b0b      	ldr	r3, [pc, #44]	; (80068b8 <cutter_isr+0x60>)
 800688a:	f44f 7000 	mov.w	r0, #512	; 0x200
 800688e:	4798      	blx	r3
 8006890:	480a      	ldr	r0, [pc, #40]	; (80068bc <cutter_isr+0x64>)
 8006892:	2303      	movs	r3, #3
 8006894:	f800 3b04 	strb.w	r3, [r0], #4
 8006898:	2164      	movs	r1, #100	; 0x64
 800689a:	e8bd 4070 	ldmia.w	sp!, {r4, r5, r6, lr}
 800689e:	4b08      	ldr	r3, [pc, #32]	; (80068c0 <cutter_isr+0x68>)
 80068a0:	4718      	bx	r3
 80068a2:	bf00      	nop
 80068a4:	1000      	asrs	r0, r0, #32
 80068a6:	4001      	ands	r1, r0
 80068a8:	0b79      	lsrs	r1, r7, #13
 80068aa:	0800      	lsrs	r0, r0, #32
 80068ac:	05e1      	lsls	r1, r4, #23
 80068ae:	0800      	lsrs	r0, r0, #32
 80068b0:	06d5      	lsls	r5, r2, #27
 80068b2:	0800      	lsrs	r0, r0, #32
 80068b4:	0d1d      	lsrs	r5, r3, #20
 80068b6:	0800      	lsrs	r0, r0, #32
 80068b8:	06ad      	lsls	r5, r5, #26
 80068ba:	0800      	lsrs	r0, r0, #32
 80068bc:	527c      	strh	r4, [r7, r1]
 80068be:	2000      	movs	r0, #0
 80068c0:	16d1      	asrs	r1, r2, #27
 80068c2:	0800      	lsrs	r0, r0, #32

080068c4 <u32TOASII>:
 80068c4:	f04f 3330 	mov.w	r3, #808464432	; 0x30303030
 80068c8:	6003      	str	r3, [r0, #0]
 80068ca:	6043      	str	r3, [r0, #4]
 80068cc:	8103      	strh	r3, [r0, #8]
 80068ce:	2900      	cmp	r1, #0
 80068d0:	d071      	beq.n	80069b6 <u32TOASII+0xf2>
 80068d2:	b410      	push	{r4}
 80068d4:	4c44      	ldr	r4, [pc, #272]	; (80069e8 <u32TOASII+0x124>)
 80068d6:	fba4 2301 	umull	r2, r3, r4, r1
 80068da:	08db      	lsrs	r3, r3, #3
 80068dc:	eb03 0283 	add.w	r2, r3, r3, lsl #2
 80068e0:	eba1 0242 	sub.w	r2, r1, r2, lsl #1
 80068e4:	3230      	adds	r2, #48	; 0x30
 80068e6:	2909      	cmp	r1, #9
 80068e8:	7242      	strb	r2, [r0, #9]
 80068ea:	d966      	bls.n	80069ba <u32TOASII+0xf6>
 80068ec:	fba4 c203 	umull	ip, r2, r4, r3
 80068f0:	08d2      	lsrs	r2, r2, #3
 80068f2:	eb02 0c82 	add.w	ip, r2, r2, lsl #2
 80068f6:	eba3 034c 	sub.w	r3, r3, ip, lsl #1
 80068fa:	3330      	adds	r3, #48	; 0x30
 80068fc:	2963      	cmp	r1, #99	; 0x63
 80068fe:	7203      	strb	r3, [r0, #8]
 8006900:	d961      	bls.n	80069c6 <u32TOASII+0x102>
 8006902:	fba4 c302 	umull	ip, r3, r4, r2
 8006906:	08db      	lsrs	r3, r3, #3
 8006908:	eb03 0c83 	add.w	ip, r3, r3, lsl #2
 800690c:	eba2 024c 	sub.w	r2, r2, ip, lsl #1
 8006910:	3230      	adds	r2, #48	; 0x30
 8006912:	f5b1 7f7a 	cmp.w	r1, #1000	; 0x3e8
 8006916:	71c2      	strb	r2, [r0, #7]
 8006918:	d359      	bcc.n	80069ce <u32TOASII+0x10a>
 800691a:	fba4 c203 	umull	ip, r2, r4, r3
 800691e:	08d2      	lsrs	r2, r2, #3
 8006920:	eb02 0c82 	add.w	ip, r2, r2, lsl #2
 8006924:	eba3 034c 	sub.w	r3, r3, ip, lsl #1
 8006928:	3330      	adds	r3, #48	; 0x30
 800692a:	7183      	strb	r3, [r0, #6]
 800692c:	f242 730f 	movw	r3, #9999	; 0x270f
 8006930:	4299      	cmp	r1, r3
 8006932:	d94e      	bls.n	80069d2 <u32TOASII+0x10e>
 8006934:	fba4 c302 	umull	ip, r3, r4, r2
 8006938:	08db      	lsrs	r3, r3, #3
 800693a:	eb03 0c83 	add.w	ip, r3, r3, lsl #2
 800693e:	eba2 024c 	sub.w	r2, r2, ip, lsl #1
 8006942:	3230      	adds	r2, #48	; 0x30
 8006944:	7142      	strb	r2, [r0, #5]
 8006946:	4a29      	ldr	r2, [pc, #164]	; (80069ec <u32TOASII+0x128>)
 8006948:	4291      	cmp	r1, r2
 800694a:	d93e      	bls.n	80069ca <u32TOASII+0x106>
 800694c:	fba4 c203 	umull	ip, r2, r4, r3
 8006950:	08d2      	lsrs	r2, r2, #3
 8006952:	eb02 0c82 	add.w	ip, r2, r2, lsl #2
 8006956:	eba3 034c 	sub.w	r3, r3, ip, lsl #1
 800695a:	3330      	adds	r3, #48	; 0x30
 800695c:	7103      	strb	r3, [r0, #4]
 800695e:	4b24      	ldr	r3, [pc, #144]	; (80069f0 <u32TOASII+0x12c>)
 8006960:	4299      	cmp	r1, r3
 8006962:	d938      	bls.n	80069d6 <u32TOASII+0x112>
 8006964:	fba4 c302 	umull	ip, r3, r4, r2
 8006968:	08db      	lsrs	r3, r3, #3
 800696a:	eb03 0c83 	add.w	ip, r3, r3, lsl #2
 800696e:	eba2 024c 	sub.w	r2, r2, ip, lsl #1
 8006972:	3230      	adds	r2, #48	; 0x30
 8006974:	70c2      	strb	r2, [r0, #3]
 8006976:	4a1f      	ldr	r2, [pc, #124]	; (80069f4 <u32TOASII+0x130>)
 8006978:	4291      	cmp	r1, r2
 800697a:	d32e      	bcc.n	80069da <u32TOASII+0x116>
 800697c:	fba4 c203 	umull	ip, r2, r4, r3
 8006980:	08d2      	lsrs	r2, r2, #3
 8006982:	eb02 0c82 	add.w	ip, r2, r2, lsl #2
 8006986:	eba3 034c 	sub.w	r3, r3, ip, lsl #1
 800698a:	3330      	adds	r3, #48	; 0x30
 800698c:	7083      	strb	r3, [r0, #2]
 800698e:	4b1a      	ldr	r3, [pc, #104]	; (80069f8 <u32TOASII+0x134>)
 8006990:	4299      	cmp	r1, r3
 8006992:	d924      	bls.n	80069de <u32TOASII+0x11a>
 8006994:	fba4 4302 	umull	r4, r3, r4, r2
 8006998:	08db      	lsrs	r3, r3, #3
 800699a:	eb03 0483 	add.w	r4, r3, r3, lsl #2
 800699e:	eba2 0244 	sub.w	r2, r2, r4, lsl #1
 80069a2:	4c16      	ldr	r4, [pc, #88]	; (80069fc <u32TOASII+0x138>)
 80069a4:	3230      	adds	r2, #48	; 0x30
 80069a6:	42a1      	cmp	r1, r4
 80069a8:	7042      	strb	r2, [r0, #1]
 80069aa:	d91a      	bls.n	80069e2 <u32TOASII+0x11e>
 80069ac:	3330      	adds	r3, #48	; 0x30
 80069ae:	7003      	strb	r3, [r0, #0]
 80069b0:	bc10      	pop	{r4}
 80069b2:	2000      	movs	r0, #0
 80069b4:	4770      	bx	lr
 80069b6:	2009      	movs	r0, #9
 80069b8:	4770      	bx	lr
 80069ba:	2001      	movs	r0, #1
 80069bc:	f1c0 000a 	rsb	r0, r0, #10
 80069c0:	b2c0      	uxtb	r0, r0
 80069c2:	bc10      	pop	{r4}
 80069c4:	4770      	bx	lr
 80069c6:	2002      	movs	r0, #2
 80069c8:	e7f8      	b.n	80069bc <u32TOASII+0xf8>
 80069ca:	2005      	movs	r0, #5
 80069cc:	e7f6      	b.n	80069bc <u32TOASII+0xf8>
 80069ce:	2003      	movs	r0, #3
 80069d0:	e7f4      	b.n	80069bc <u32TOASII+0xf8>
 80069d2:	2004      	movs	r0, #4
 80069d4:	e7f2      	b.n	80069bc <u32TOASII+0xf8>
 80069d6:	2006      	movs	r0, #6
 80069d8:	e7f0      	b.n	80069bc <u32TOASII+0xf8>
 80069da:	2007      	movs	r0, #7
 80069dc:	e7ee      	b.n	80069bc <u32TOASII+0xf8>
 80069de:	2008      	movs	r0, #8
 80069e0:	e7ec      	b.n	80069bc <u32TOASII+0xf8>
 80069e2:	2009      	movs	r0, #9
 80069e4:	e7ea      	b.n	80069bc <u32TOASII+0xf8>
 80069e6:	bf00      	nop
 80069e8:	cccd      	ldmia	r4!, {r0, r2, r3, r6, r7}
 80069ea:	cccc      	ldmia	r4!, {r2, r3, r6, r7}
 80069ec:	869f      	strh	r7, [r3, #52]	; 0x34
 80069ee:	0001      	movs	r1, r0
 80069f0:	423f      	tst	r7, r7
 80069f2:	000f      	movs	r7, r1
 80069f4:	9680      	str	r6, [sp, #512]	; 0x200
 80069f6:	0098      	lsls	r0, r3, #2
 80069f8:	e0ff      	b.n	8006bfa <_malloc_r+0x106>
 80069fa:	05f5      	lsls	r5, r6, #23
 80069fc:	c9ff      	ldmia	r1, {r0, r1, r2, r3, r4, r5, r6, r7}
 80069fe:	3b9a      	subs	r3, #154	; 0x9a

08006a00 <copyBuff>:
 8006a00:	b3ba      	cbz	r2, 8006a72 <copyBuff+0x72>
 8006a02:	b510      	push	{r4, lr}
 8006a04:	1c4c      	adds	r4, r1, #1
 8006a06:	1b04      	subs	r4, r0, r4
 8006a08:	1e53      	subs	r3, r2, #1
 8006a0a:	2c02      	cmp	r4, #2
 8006a0c:	b29b      	uxth	r3, r3
 8006a0e:	d926      	bls.n	8006a5e <copyBuff+0x5e>
 8006a10:	2b07      	cmp	r3, #7
 8006a12:	d924      	bls.n	8006a5e <copyBuff+0x5e>
 8006a14:	0894      	lsrs	r4, r2, #2
 8006a16:	3c01      	subs	r4, #1
 8006a18:	fa1f fe84 	uxth.w	lr, r4
 8006a1c:	1d0c      	adds	r4, r1, #4
 8006a1e:	460b      	mov	r3, r1
 8006a20:	4684      	mov	ip, r0
 8006a22:	eb04 048e 	add.w	r4, r4, lr, lsl #2
 8006a26:	f853 eb04 	ldr.w	lr, [r3], #4
 8006a2a:	f84c eb04 	str.w	lr, [ip], #4
 8006a2e:	42a3      	cmp	r3, r4
 8006a30:	d1f9      	bne.n	8006a26 <copyBuff+0x26>
 8006a32:	f022 0403 	bic.w	r4, r2, #3
 8006a36:	42a2      	cmp	r2, r4
 8006a38:	b2a3      	uxth	r3, r4
 8006a3a:	d00f      	beq.n	8006a5c <copyBuff+0x5c>
 8006a3c:	5ccc      	ldrb	r4, [r1, r3]
 8006a3e:	54c4      	strb	r4, [r0, r3]
 8006a40:	1c5c      	adds	r4, r3, #1
 8006a42:	b2a4      	uxth	r4, r4
 8006a44:	42a2      	cmp	r2, r4
 8006a46:	d909      	bls.n	8006a5c <copyBuff+0x5c>
 8006a48:	3302      	adds	r3, #2
 8006a4a:	b29b      	uxth	r3, r3
 8006a4c:	f811 c004 	ldrb.w	ip, [r1, r4]
 8006a50:	f800 c004 	strb.w	ip, [r0, r4]
 8006a54:	429a      	cmp	r2, r3
 8006a56:	d901      	bls.n	8006a5c <copyBuff+0x5c>
 8006a58:	5cca      	ldrb	r2, [r1, r3]
 8006a5a:	54c2      	strb	r2, [r0, r3]
 8006a5c:	bd10      	pop	{r4, pc}
 8006a5e:	1e4a      	subs	r2, r1, #1
 8006a60:	3801      	subs	r0, #1
 8006a62:	4419      	add	r1, r3
 8006a64:	f812 3f01 	ldrb.w	r3, [r2, #1]!
 8006a68:	f800 3f01 	strb.w	r3, [r0, #1]!
 8006a6c:	428a      	cmp	r2, r1
 8006a6e:	d1f9      	bne.n	8006a64 <copyBuff+0x64>
 8006a70:	bd10      	pop	{r4, pc}
 8006a72:	4770      	bx	lr

08006a74 <setBuff>:
 8006a74:	b10a      	cbz	r2, 8006a7a <setBuff+0x6>
 8006a76:	4b01      	ldr	r3, [pc, #4]	; (8006a7c <setBuff+0x8>)
 8006a78:	4718      	bx	r3
 8006a7a:	4770      	bx	lr
 8006a7c:	7055      	strb	r5, [r2, #1]
 8006a7e:	0800      	lsrs	r0, r0, #32

08006a80 <getCurrentstandFont>:
 8006a80:	4b01      	ldr	r3, [pc, #4]	; (8006a88 <getCurrentstandFont+0x8>)
 8006a82:	f853 0020 	ldr.w	r0, [r3, r0, lsl #2]
 8006a86:	4770      	bx	lr
 8006a88:	778c      	strb	r4, [r1, #30]
 8006a8a:	0800      	lsrs	r0, r0, #32

08006a8c <__libc_init_array>:
 8006a8c:	b570      	push	{r4, r5, r6, lr}
 8006a8e:	4e0d      	ldr	r6, [pc, #52]	; (8006ac4 <__libc_init_array+0x38>)
 8006a90:	4d0d      	ldr	r5, [pc, #52]	; (8006ac8 <__libc_init_array+0x3c>)
 8006a92:	1b76      	subs	r6, r6, r5
 8006a94:	10b6      	asrs	r6, r6, #2
 8006a96:	d006      	beq.n	8006aa6 <__libc_init_array+0x1a>
 8006a98:	2400      	movs	r4, #0
 8006a9a:	f855 3b04 	ldr.w	r3, [r5], #4
 8006a9e:	3401      	adds	r4, #1
 8006aa0:	4798      	blx	r3
 8006aa2:	42a6      	cmp	r6, r4
 8006aa4:	d1f9      	bne.n	8006a9a <__libc_init_array+0xe>
 8006aa6:	4e09      	ldr	r6, [pc, #36]	; (8006acc <__libc_init_array+0x40>)
 8006aa8:	4d09      	ldr	r5, [pc, #36]	; (8006ad0 <__libc_init_array+0x44>)
 8006aaa:	1b76      	subs	r6, r6, r5
 8006aac:	f000 fd16 	bl	80074dc <_init>
 8006ab0:	10b6      	asrs	r6, r6, #2
 8006ab2:	d006      	beq.n	8006ac2 <__libc_init_array+0x36>
 8006ab4:	2400      	movs	r4, #0
 8006ab6:	f855 3b04 	ldr.w	r3, [r5], #4
 8006aba:	3401      	adds	r4, #1
 8006abc:	4798      	blx	r3
 8006abe:	42a6      	cmp	r6, r4
 8006ac0:	d1f9      	bne.n	8006ab6 <__libc_init_array+0x2a>
 8006ac2:	bd70      	pop	{r4, r5, r6, pc}
 8006ac4:	8b08      	ldrh	r0, [r1, #24]
 8006ac6:	0800      	lsrs	r0, r0, #32
 8006ac8:	8b08      	ldrh	r0, [r1, #24]
 8006aca:	0800      	lsrs	r0, r0, #32
 8006acc:	8b10      	ldrh	r0, [r2, #24]
 8006ace:	0800      	lsrs	r0, r0, #32
 8006ad0:	8b08      	ldrh	r0, [r1, #24]
 8006ad2:	0800      	lsrs	r0, r0, #32

08006ad4 <malloc>:
 8006ad4:	4b02      	ldr	r3, [pc, #8]	; (8006ae0 <malloc+0xc>)
 8006ad6:	4601      	mov	r1, r0
 8006ad8:	6818      	ldr	r0, [r3, #0]
 8006ada:	f000 b80b 	b.w	8006af4 <_malloc_r>
 8006ade:	bf00      	nop
 8006ae0:	0130      	lsls	r0, r6, #4
 8006ae2:	2000      	movs	r0, #0

08006ae4 <free>:
 8006ae4:	4b02      	ldr	r3, [pc, #8]	; (8006af0 <free+0xc>)
 8006ae6:	4601      	mov	r1, r0
 8006ae8:	6818      	ldr	r0, [r3, #0]
 8006aea:	f000 bb99 	b.w	8007220 <_free_r>
 8006aee:	bf00      	nop
 8006af0:	0130      	lsls	r0, r6, #4
 8006af2:	2000      	movs	r0, #0

08006af4 <_malloc_r>:
 8006af4:	e92d 4ff0 	stmdb	sp!, {r4, r5, r6, r7, r8, r9, sl, fp, lr}
 8006af8:	f101 060b 	add.w	r6, r1, #11
 8006afc:	2e16      	cmp	r6, #22
 8006afe:	b083      	sub	sp, #12
 8006b00:	4604      	mov	r4, r0
 8006b02:	d824      	bhi.n	8006b4e <_malloc_r+0x5a>
 8006b04:	2910      	cmp	r1, #16
 8006b06:	f200 80ba 	bhi.w	8006c7e <_malloc_r+0x18a>
 8006b0a:	f000 faf5 	bl	80070f8 <__malloc_lock>
 8006b0e:	2610      	movs	r6, #16
 8006b10:	2218      	movs	r2, #24
 8006b12:	2002      	movs	r0, #2
 8006b14:	4fb5      	ldr	r7, [pc, #724]	; (8006dec <_malloc_r+0x2f8>)
 8006b16:	443a      	add	r2, r7
 8006b18:	f1a2 0108 	sub.w	r1, r2, #8
 8006b1c:	6853      	ldr	r3, [r2, #4]
 8006b1e:	428b      	cmp	r3, r1
 8006b20:	f000 80ba 	beq.w	8006c98 <_malloc_r+0x1a4>
 8006b24:	685a      	ldr	r2, [r3, #4]
 8006b26:	68d9      	ldr	r1, [r3, #12]
 8006b28:	f022 0203 	bic.w	r2, r2, #3
 8006b2c:	441a      	add	r2, r3
 8006b2e:	689d      	ldr	r5, [r3, #8]
 8006b30:	60e9      	str	r1, [r5, #12]
 8006b32:	608d      	str	r5, [r1, #8]
 8006b34:	6851      	ldr	r1, [r2, #4]
 8006b36:	f041 0101 	orr.w	r1, r1, #1
 8006b3a:	4620      	mov	r0, r4
 8006b3c:	6051      	str	r1, [r2, #4]
 8006b3e:	f103 0508 	add.w	r5, r3, #8
 8006b42:	f000 fadf 	bl	8007104 <__malloc_unlock>
 8006b46:	4628      	mov	r0, r5
 8006b48:	b003      	add	sp, #12
 8006b4a:	e8bd 8ff0 	ldmia.w	sp!, {r4, r5, r6, r7, r8, r9, sl, fp, pc}
 8006b4e:	f036 0607 	bics.w	r6, r6, #7
 8006b52:	f100 8094 	bmi.w	8006c7e <_malloc_r+0x18a>
 8006b56:	42b1      	cmp	r1, r6
 8006b58:	f200 8091 	bhi.w	8006c7e <_malloc_r+0x18a>
 8006b5c:	f000 facc 	bl	80070f8 <__malloc_lock>
 8006b60:	f5b6 7ffc 	cmp.w	r6, #504	; 0x1f8
 8006b64:	f0c0 819a 	bcc.w	8006e9c <_malloc_r+0x3a8>
 8006b68:	0a73      	lsrs	r3, r6, #9
 8006b6a:	f000 808f 	beq.w	8006c8c <_malloc_r+0x198>
 8006b6e:	2b04      	cmp	r3, #4
 8006b70:	f200 816f 	bhi.w	8006e52 <_malloc_r+0x35e>
 8006b74:	09b3      	lsrs	r3, r6, #6
 8006b76:	f103 0039 	add.w	r0, r3, #57	; 0x39
 8006b7a:	f103 0c38 	add.w	ip, r3, #56	; 0x38
 8006b7e:	00c3      	lsls	r3, r0, #3
 8006b80:	4f9a      	ldr	r7, [pc, #616]	; (8006dec <_malloc_r+0x2f8>)
 8006b82:	443b      	add	r3, r7
 8006b84:	f1a3 0508 	sub.w	r5, r3, #8
 8006b88:	685b      	ldr	r3, [r3, #4]
 8006b8a:	429d      	cmp	r5, r3
 8006b8c:	d106      	bne.n	8006b9c <_malloc_r+0xa8>
 8006b8e:	e00c      	b.n	8006baa <_malloc_r+0xb6>
 8006b90:	2900      	cmp	r1, #0
 8006b92:	f280 8127 	bge.w	8006de4 <_malloc_r+0x2f0>
 8006b96:	68db      	ldr	r3, [r3, #12]
 8006b98:	429d      	cmp	r5, r3
 8006b9a:	d006      	beq.n	8006baa <_malloc_r+0xb6>
 8006b9c:	685a      	ldr	r2, [r3, #4]
 8006b9e:	f022 0203 	bic.w	r2, r2, #3
 8006ba2:	1b91      	subs	r1, r2, r6
 8006ba4:	290f      	cmp	r1, #15
 8006ba6:	ddf3      	ble.n	8006b90 <_malloc_r+0x9c>
 8006ba8:	4660      	mov	r0, ip
 8006baa:	693d      	ldr	r5, [r7, #16]
 8006bac:	f8df c240 	ldr.w	ip, [pc, #576]	; 8006df0 <_malloc_r+0x2fc>
 8006bb0:	4565      	cmp	r5, ip
 8006bb2:	d07c      	beq.n	8006cae <_malloc_r+0x1ba>
 8006bb4:	686a      	ldr	r2, [r5, #4]
 8006bb6:	f022 0203 	bic.w	r2, r2, #3
 8006bba:	1b93      	subs	r3, r2, r6
 8006bbc:	2b0f      	cmp	r3, #15
 8006bbe:	f300 817b 	bgt.w	8006eb8 <_malloc_r+0x3c4>
 8006bc2:	2b00      	cmp	r3, #0
 8006bc4:	e9c7 cc04 	strd	ip, ip, [r7, #16]
 8006bc8:	f280 816c 	bge.w	8006ea4 <_malloc_r+0x3b0>
 8006bcc:	f5b2 7f00 	cmp.w	r2, #512	; 0x200
 8006bd0:	f080 811a 	bcs.w	8006e08 <_malloc_r+0x314>
 8006bd4:	08d3      	lsrs	r3, r2, #3
 8006bd6:	6879      	ldr	r1, [r7, #4]
 8006bd8:	3301      	adds	r3, #1
 8006bda:	ea4f 1e52 	mov.w	lr, r2, lsr #5
 8006bde:	2201      	movs	r2, #1
 8006be0:	fa02 f20e 	lsl.w	r2, r2, lr
 8006be4:	430a      	orrs	r2, r1
 8006be6:	f857 e033 	ldr.w	lr, [r7, r3, lsl #3]
 8006bea:	f8c5 e008 	str.w	lr, [r5, #8]
 8006bee:	eb07 01c3 	add.w	r1, r7, r3, lsl #3
 8006bf2:	3908      	subs	r1, #8
 8006bf4:	60e9      	str	r1, [r5, #12]
 8006bf6:	607a      	str	r2, [r7, #4]
 8006bf8:	f847 5033 	str.w	r5, [r7, r3, lsl #3]
 8006bfc:	f8ce 500c 	str.w	r5, [lr, #12]
 8006c00:	1083      	asrs	r3, r0, #2
 8006c02:	2101      	movs	r1, #1
 8006c04:	4099      	lsls	r1, r3
 8006c06:	4291      	cmp	r1, r2
 8006c08:	d857      	bhi.n	8006cba <_malloc_r+0x1c6>
 8006c0a:	4211      	tst	r1, r2
 8006c0c:	d106      	bne.n	8006c1c <_malloc_r+0x128>
 8006c0e:	f020 0003 	bic.w	r0, r0, #3
 8006c12:	0049      	lsls	r1, r1, #1
 8006c14:	4211      	tst	r1, r2
 8006c16:	f100 0004 	add.w	r0, r0, #4
 8006c1a:	d0fa      	beq.n	8006c12 <_malloc_r+0x11e>
 8006c1c:	eb07 09c0 	add.w	r9, r7, r0, lsl #3
 8006c20:	464d      	mov	r5, r9
 8006c22:	4686      	mov	lr, r0
 8006c24:	f8d5 800c 	ldr.w	r8, [r5, #12]
 8006c28:	4545      	cmp	r5, r8
 8006c2a:	d108      	bne.n	8006c3e <_malloc_r+0x14a>
 8006c2c:	e11d      	b.n	8006e6a <_malloc_r+0x376>
 8006c2e:	2b00      	cmp	r3, #0
 8006c30:	f280 8124 	bge.w	8006e7c <_malloc_r+0x388>
 8006c34:	f8d8 800c 	ldr.w	r8, [r8, #12]
 8006c38:	4545      	cmp	r5, r8
 8006c3a:	f000 8116 	beq.w	8006e6a <_malloc_r+0x376>
 8006c3e:	f8d8 2004 	ldr.w	r2, [r8, #4]
 8006c42:	f022 0203 	bic.w	r2, r2, #3
 8006c46:	1b93      	subs	r3, r2, r6
 8006c48:	2b0f      	cmp	r3, #15
 8006c4a:	ddf0      	ble.n	8006c2e <_malloc_r+0x13a>
 8006c4c:	4620      	mov	r0, r4
 8006c4e:	e9d8 5402 	ldrd	r5, r4, [r8, #8]
 8006c52:	eb08 0106 	add.w	r1, r8, r6
 8006c56:	f046 0601 	orr.w	r6, r6, #1
 8006c5a:	f8c8 6004 	str.w	r6, [r8, #4]
 8006c5e:	60ec      	str	r4, [r5, #12]
 8006c60:	60a5      	str	r5, [r4, #8]
 8006c62:	f043 0401 	orr.w	r4, r3, #1
 8006c66:	e9c7 1104 	strd	r1, r1, [r7, #16]
 8006c6a:	e9c1 cc02 	strd	ip, ip, [r1, #8]
 8006c6e:	604c      	str	r4, [r1, #4]
 8006c70:	f848 3002 	str.w	r3, [r8, r2]
 8006c74:	f000 fa46 	bl	8007104 <__malloc_unlock>
 8006c78:	f108 0508 	add.w	r5, r8, #8
 8006c7c:	e002      	b.n	8006c84 <_malloc_r+0x190>
 8006c7e:	230c      	movs	r3, #12
 8006c80:	6023      	str	r3, [r4, #0]
 8006c82:	2500      	movs	r5, #0
 8006c84:	4628      	mov	r0, r5
 8006c86:	b003      	add	sp, #12
 8006c88:	e8bd 8ff0 	ldmia.w	sp!, {r4, r5, r6, r7, r8, r9, sl, fp, pc}
 8006c8c:	f44f 7300 	mov.w	r3, #512	; 0x200
 8006c90:	2040      	movs	r0, #64	; 0x40
 8006c92:	f04f 0c3f 	mov.w	ip, #63	; 0x3f
 8006c96:	e773      	b.n	8006b80 <_malloc_r+0x8c>
 8006c98:	68d3      	ldr	r3, [r2, #12]
 8006c9a:	429a      	cmp	r2, r3
 8006c9c:	bf08      	it	eq
 8006c9e:	3002      	addeq	r0, #2
 8006ca0:	f47f af40 	bne.w	8006b24 <_malloc_r+0x30>
 8006ca4:	693d      	ldr	r5, [r7, #16]
 8006ca6:	f8df c148 	ldr.w	ip, [pc, #328]	; 8006df0 <_malloc_r+0x2fc>
 8006caa:	4565      	cmp	r5, ip
 8006cac:	d182      	bne.n	8006bb4 <_malloc_r+0xc0>
 8006cae:	687a      	ldr	r2, [r7, #4]
 8006cb0:	1083      	asrs	r3, r0, #2
 8006cb2:	2101      	movs	r1, #1
 8006cb4:	4099      	lsls	r1, r3
 8006cb6:	4291      	cmp	r1, r2
 8006cb8:	d9a7      	bls.n	8006c0a <_malloc_r+0x116>
 8006cba:	68bd      	ldr	r5, [r7, #8]
 8006cbc:	686b      	ldr	r3, [r5, #4]
 8006cbe:	f023 0903 	bic.w	r9, r3, #3
 8006cc2:	454e      	cmp	r6, r9
 8006cc4:	d803      	bhi.n	8006cce <_malloc_r+0x1da>
 8006cc6:	eba9 0306 	sub.w	r3, r9, r6
 8006cca:	2b0f      	cmp	r3, #15
 8006ccc:	dc7a      	bgt.n	8006dc4 <_malloc_r+0x2d0>
 8006cce:	f8df b124 	ldr.w	fp, [pc, #292]	; 8006df4 <_malloc_r+0x300>
 8006cd2:	4b49      	ldr	r3, [pc, #292]	; (8006df8 <_malloc_r+0x304>)
 8006cd4:	f8db 2000 	ldr.w	r2, [fp]
 8006cd8:	681b      	ldr	r3, [r3, #0]
 8006cda:	3201      	adds	r2, #1
 8006cdc:	4433      	add	r3, r6
 8006cde:	eb05 0a09 	add.w	sl, r5, r9
 8006ce2:	f000 8133 	beq.w	8006f4c <_malloc_r+0x458>
 8006ce6:	f503 5380 	add.w	r3, r3, #4096	; 0x1000
 8006cea:	330f      	adds	r3, #15
 8006cec:	f423 687f 	bic.w	r8, r3, #4080	; 0xff0
 8006cf0:	f028 080f 	bic.w	r8, r8, #15
 8006cf4:	4641      	mov	r1, r8
 8006cf6:	4620      	mov	r0, r4
 8006cf8:	f000 fa0a 	bl	8007110 <_sbrk_r>
 8006cfc:	1c41      	adds	r1, r0, #1
 8006cfe:	4602      	mov	r2, r0
 8006d00:	f000 80f3 	beq.w	8006eea <_malloc_r+0x3f6>
 8006d04:	4582      	cmp	sl, r0
 8006d06:	f200 80ee 	bhi.w	8006ee6 <_malloc_r+0x3f2>
 8006d0a:	4b3c      	ldr	r3, [pc, #240]	; (8006dfc <_malloc_r+0x308>)
 8006d0c:	6819      	ldr	r1, [r3, #0]
 8006d0e:	4441      	add	r1, r8
 8006d10:	6019      	str	r1, [r3, #0]
 8006d12:	4608      	mov	r0, r1
 8006d14:	f000 814e 	beq.w	8006fb4 <_malloc_r+0x4c0>
 8006d18:	f8db 1000 	ldr.w	r1, [fp]
 8006d1c:	9301      	str	r3, [sp, #4]
 8006d1e:	3101      	adds	r1, #1
 8006d20:	bf1b      	ittet	ne
 8006d22:	eba2 0a0a 	subne.w	sl, r2, sl
 8006d26:	4450      	addne	r0, sl
 8006d28:	f8cb 2000 	streq.w	r2, [fp]
 8006d2c:	6018      	strne	r0, [r3, #0]
 8006d2e:	f012 0b07 	ands.w	fp, r2, #7
 8006d32:	f000 8117 	beq.w	8006f64 <_malloc_r+0x470>
 8006d36:	f1cb 0108 	rsb	r1, fp, #8
 8006d3a:	440a      	add	r2, r1
 8006d3c:	f5cb 5180 	rsb	r1, fp, #4096	; 0x1000
 8006d40:	4490      	add	r8, r2
 8006d42:	3108      	adds	r1, #8
 8006d44:	eba1 0108 	sub.w	r1, r1, r8
 8006d48:	f3c1 0a0b 	ubfx	sl, r1, #0, #12
 8006d4c:	4651      	mov	r1, sl
 8006d4e:	4620      	mov	r0, r4
 8006d50:	9200      	str	r2, [sp, #0]
 8006d52:	f000 f9dd 	bl	8007110 <_sbrk_r>
 8006d56:	1c42      	adds	r2, r0, #1
 8006d58:	e9dd 2300 	ldrd	r2, r3, [sp]
 8006d5c:	f000 814f 	beq.w	8006ffe <_malloc_r+0x50a>
 8006d60:	1a80      	subs	r0, r0, r2
 8006d62:	eb00 080a 	add.w	r8, r0, sl
 8006d66:	6819      	ldr	r1, [r3, #0]
 8006d68:	60ba      	str	r2, [r7, #8]
 8006d6a:	f048 0001 	orr.w	r0, r8, #1
 8006d6e:	4451      	add	r1, sl
 8006d70:	42bd      	cmp	r5, r7
 8006d72:	6050      	str	r0, [r2, #4]
 8006d74:	6019      	str	r1, [r3, #0]
 8006d76:	f000 8129 	beq.w	8006fcc <_malloc_r+0x4d8>
 8006d7a:	f1b9 0f0f 	cmp.w	r9, #15
 8006d7e:	f240 8127 	bls.w	8006fd0 <_malloc_r+0x4dc>
 8006d82:	6868      	ldr	r0, [r5, #4]
 8006d84:	f1a9 0c0c 	sub.w	ip, r9, #12
 8006d88:	f02c 0c07 	bic.w	ip, ip, #7
 8006d8c:	f000 0001 	and.w	r0, r0, #1
 8006d90:	ea40 000c 	orr.w	r0, r0, ip
 8006d94:	6068      	str	r0, [r5, #4]
 8006d96:	f04f 0e05 	mov.w	lr, #5
 8006d9a:	eb05 000c 	add.w	r0, r5, ip
 8006d9e:	f1bc 0f0f 	cmp.w	ip, #15
 8006da2:	e9c0 ee01 	strd	lr, lr, [r0, #4]
 8006da6:	f200 8132 	bhi.w	800700e <_malloc_r+0x51a>
 8006daa:	6850      	ldr	r0, [r2, #4]
 8006dac:	4615      	mov	r5, r2
 8006dae:	4b14      	ldr	r3, [pc, #80]	; (8006e00 <_malloc_r+0x30c>)
 8006db0:	681a      	ldr	r2, [r3, #0]
 8006db2:	428a      	cmp	r2, r1
 8006db4:	bf38      	it	cc
 8006db6:	6019      	strcc	r1, [r3, #0]
 8006db8:	4b12      	ldr	r3, [pc, #72]	; (8006e04 <_malloc_r+0x310>)
 8006dba:	681a      	ldr	r2, [r3, #0]
 8006dbc:	428a      	cmp	r2, r1
 8006dbe:	bf38      	it	cc
 8006dc0:	6019      	strcc	r1, [r3, #0]
 8006dc2:	e094      	b.n	8006eee <_malloc_r+0x3fa>
 8006dc4:	19aa      	adds	r2, r5, r6
 8006dc6:	f043 0301 	orr.w	r3, r3, #1
 8006dca:	f046 0601 	orr.w	r6, r6, #1
 8006dce:	606e      	str	r6, [r5, #4]
 8006dd0:	4620      	mov	r0, r4
 8006dd2:	60ba      	str	r2, [r7, #8]
 8006dd4:	6053      	str	r3, [r2, #4]
 8006dd6:	f000 f995 	bl	8007104 <__malloc_unlock>
 8006dda:	3508      	adds	r5, #8
 8006ddc:	4628      	mov	r0, r5
 8006dde:	b003      	add	sp, #12
 8006de0:	e8bd 8ff0 	ldmia.w	sp!, {r4, r5, r6, r7, r8, r9, sl, fp, pc}
 8006de4:	68d9      	ldr	r1, [r3, #12]
 8006de6:	441a      	add	r2, r3
 8006de8:	e6a1      	b.n	8006b2e <_malloc_r+0x3a>
 8006dea:	bf00      	nop
 8006dec:	0560      	lsls	r0, r4, #21
 8006dee:	2000      	movs	r0, #0
 8006df0:	0568      	lsls	r0, r5, #21
 8006df2:	2000      	movs	r0, #0
 8006df4:	0968      	lsrs	r0, r5, #5
 8006df6:	2000      	movs	r0, #0
 8006df8:	52b4      	strh	r4, [r6, r2]
 8006dfa:	2000      	movs	r0, #0
 8006dfc:	5284      	strh	r4, [r0, r2]
 8006dfe:	2000      	movs	r0, #0
 8006e00:	52ac      	strh	r4, [r5, r2]
 8006e02:	2000      	movs	r0, #0
 8006e04:	52b0      	strh	r0, [r6, r2]
 8006e06:	2000      	movs	r0, #0
 8006e08:	f5b2 6f20 	cmp.w	r2, #2560	; 0xa00
 8006e0c:	ea4f 2352 	mov.w	r3, r2, lsr #9
 8006e10:	d363      	bcc.n	8006eda <_malloc_r+0x3e6>
 8006e12:	2b14      	cmp	r3, #20
 8006e14:	f200 80b7 	bhi.w	8006f86 <_malloc_r+0x492>
 8006e18:	f103 015c 	add.w	r1, r3, #92	; 0x5c
 8006e1c:	00c9      	lsls	r1, r1, #3
 8006e1e:	335b      	adds	r3, #91	; 0x5b
 8006e20:	eb07 0e01 	add.w	lr, r7, r1
 8006e24:	5879      	ldr	r1, [r7, r1]
 8006e26:	f1ae 0e08 	sub.w	lr, lr, #8
 8006e2a:	458e      	cmp	lr, r1
 8006e2c:	f000 8091 	beq.w	8006f52 <_malloc_r+0x45e>
 8006e30:	684b      	ldr	r3, [r1, #4]
 8006e32:	f023 0303 	bic.w	r3, r3, #3
 8006e36:	4293      	cmp	r3, r2
 8006e38:	d902      	bls.n	8006e40 <_malloc_r+0x34c>
 8006e3a:	6889      	ldr	r1, [r1, #8]
 8006e3c:	458e      	cmp	lr, r1
 8006e3e:	d1f7      	bne.n	8006e30 <_malloc_r+0x33c>
 8006e40:	f8d1 e00c 	ldr.w	lr, [r1, #12]
 8006e44:	687a      	ldr	r2, [r7, #4]
 8006e46:	e9c5 1e02 	strd	r1, lr, [r5, #8]
 8006e4a:	f8ce 5008 	str.w	r5, [lr, #8]
 8006e4e:	60cd      	str	r5, [r1, #12]
 8006e50:	e6d6      	b.n	8006c00 <_malloc_r+0x10c>
 8006e52:	2b14      	cmp	r3, #20
 8006e54:	d959      	bls.n	8006f0a <_malloc_r+0x416>
 8006e56:	2b54      	cmp	r3, #84	; 0x54
 8006e58:	f200 809d 	bhi.w	8006f96 <_malloc_r+0x4a2>
 8006e5c:	0b33      	lsrs	r3, r6, #12
 8006e5e:	f103 006f 	add.w	r0, r3, #111	; 0x6f
 8006e62:	f103 0c6e 	add.w	ip, r3, #110	; 0x6e
 8006e66:	00c3      	lsls	r3, r0, #3
 8006e68:	e68a      	b.n	8006b80 <_malloc_r+0x8c>
 8006e6a:	f10e 0e01 	add.w	lr, lr, #1
 8006e6e:	f01e 0f03 	tst.w	lr, #3
 8006e72:	f105 0508 	add.w	r5, r5, #8
 8006e76:	f47f aed5 	bne.w	8006c24 <_malloc_r+0x130>
 8006e7a:	e051      	b.n	8006f20 <_malloc_r+0x42c>
 8006e7c:	4442      	add	r2, r8
 8006e7e:	4645      	mov	r5, r8
 8006e80:	6853      	ldr	r3, [r2, #4]
 8006e82:	f8d8 100c 	ldr.w	r1, [r8, #12]
 8006e86:	f043 0301 	orr.w	r3, r3, #1
 8006e8a:	6053      	str	r3, [r2, #4]
 8006e8c:	f855 3f08 	ldr.w	r3, [r5, #8]!
 8006e90:	4620      	mov	r0, r4
 8006e92:	60d9      	str	r1, [r3, #12]
 8006e94:	608b      	str	r3, [r1, #8]
 8006e96:	f000 f935 	bl	8007104 <__malloc_unlock>
 8006e9a:	e6f3      	b.n	8006c84 <_malloc_r+0x190>
 8006e9c:	08f0      	lsrs	r0, r6, #3
 8006e9e:	f106 0208 	add.w	r2, r6, #8
 8006ea2:	e637      	b.n	8006b14 <_malloc_r+0x20>
 8006ea4:	442a      	add	r2, r5
 8006ea6:	4620      	mov	r0, r4
 8006ea8:	6853      	ldr	r3, [r2, #4]
 8006eaa:	f043 0301 	orr.w	r3, r3, #1
 8006eae:	6053      	str	r3, [r2, #4]
 8006eb0:	3508      	adds	r5, #8
 8006eb2:	f000 f927 	bl	8007104 <__malloc_unlock>
 8006eb6:	e6e5      	b.n	8006c84 <_malloc_r+0x190>
 8006eb8:	19a9      	adds	r1, r5, r6
 8006eba:	4620      	mov	r0, r4
 8006ebc:	f046 0601 	orr.w	r6, r6, #1
 8006ec0:	f043 0401 	orr.w	r4, r3, #1
 8006ec4:	606e      	str	r6, [r5, #4]
 8006ec6:	e9c7 1104 	strd	r1, r1, [r7, #16]
 8006eca:	e9c1 cc02 	strd	ip, ip, [r1, #8]
 8006ece:	604c      	str	r4, [r1, #4]
 8006ed0:	50ab      	str	r3, [r5, r2]
 8006ed2:	f000 f917 	bl	8007104 <__malloc_unlock>
 8006ed6:	3508      	adds	r5, #8
 8006ed8:	e6d4      	b.n	8006c84 <_malloc_r+0x190>
 8006eda:	0993      	lsrs	r3, r2, #6
 8006edc:	f103 0139 	add.w	r1, r3, #57	; 0x39
 8006ee0:	00c9      	lsls	r1, r1, #3
 8006ee2:	3338      	adds	r3, #56	; 0x38
 8006ee4:	e79c      	b.n	8006e20 <_malloc_r+0x32c>
 8006ee6:	42bd      	cmp	r5, r7
 8006ee8:	d05f      	beq.n	8006faa <_malloc_r+0x4b6>
 8006eea:	68bd      	ldr	r5, [r7, #8]
 8006eec:	6868      	ldr	r0, [r5, #4]
 8006eee:	f020 0803 	bic.w	r8, r0, #3
 8006ef2:	4546      	cmp	r6, r8
 8006ef4:	eba8 0306 	sub.w	r3, r8, r6
 8006ef8:	d802      	bhi.n	8006f00 <_malloc_r+0x40c>
 8006efa:	2b0f      	cmp	r3, #15
 8006efc:	f73f af62 	bgt.w	8006dc4 <_malloc_r+0x2d0>
 8006f00:	4620      	mov	r0, r4
 8006f02:	f000 f8ff 	bl	8007104 <__malloc_unlock>
 8006f06:	2500      	movs	r5, #0
 8006f08:	e6bc      	b.n	8006c84 <_malloc_r+0x190>
 8006f0a:	f103 005c 	add.w	r0, r3, #92	; 0x5c
 8006f0e:	f103 0c5b 	add.w	ip, r3, #91	; 0x5b
 8006f12:	00c3      	lsls	r3, r0, #3
 8006f14:	e634      	b.n	8006b80 <_malloc_r+0x8c>
 8006f16:	f859 3908 	ldr.w	r3, [r9], #-8
 8006f1a:	454b      	cmp	r3, r9
 8006f1c:	f040 8096 	bne.w	800704c <_malloc_r+0x558>
 8006f20:	f010 0f03 	tst.w	r0, #3
 8006f24:	f100 30ff 	add.w	r0, r0, #4294967295
 8006f28:	d1f5      	bne.n	8006f16 <_malloc_r+0x422>
 8006f2a:	687b      	ldr	r3, [r7, #4]
 8006f2c:	ea23 0301 	bic.w	r3, r3, r1
 8006f30:	607b      	str	r3, [r7, #4]
 8006f32:	0049      	lsls	r1, r1, #1
 8006f34:	4299      	cmp	r1, r3
 8006f36:	f63f aec0 	bhi.w	8006cba <_malloc_r+0x1c6>
 8006f3a:	b919      	cbnz	r1, 8006f44 <_malloc_r+0x450>
 8006f3c:	e6bd      	b.n	8006cba <_malloc_r+0x1c6>
 8006f3e:	0049      	lsls	r1, r1, #1
 8006f40:	f10e 0e04 	add.w	lr, lr, #4
 8006f44:	4219      	tst	r1, r3
 8006f46:	d0fa      	beq.n	8006f3e <_malloc_r+0x44a>
 8006f48:	4670      	mov	r0, lr
 8006f4a:	e667      	b.n	8006c1c <_malloc_r+0x128>
 8006f4c:	f103 0810 	add.w	r8, r3, #16
 8006f50:	e6d0      	b.n	8006cf4 <_malloc_r+0x200>
 8006f52:	109a      	asrs	r2, r3, #2
 8006f54:	f04f 0801 	mov.w	r8, #1
 8006f58:	687b      	ldr	r3, [r7, #4]
 8006f5a:	fa08 f202 	lsl.w	r2, r8, r2
 8006f5e:	431a      	orrs	r2, r3
 8006f60:	607a      	str	r2, [r7, #4]
 8006f62:	e770      	b.n	8006e46 <_malloc_r+0x352>
 8006f64:	eb02 0108 	add.w	r1, r2, r8
 8006f68:	4249      	negs	r1, r1
 8006f6a:	f3c1 0a0b 	ubfx	sl, r1, #0, #12
 8006f6e:	4651      	mov	r1, sl
 8006f70:	4620      	mov	r0, r4
 8006f72:	9200      	str	r2, [sp, #0]
 8006f74:	f000 f8cc 	bl	8007110 <_sbrk_r>
 8006f78:	1c43      	adds	r3, r0, #1
 8006f7a:	e9dd 2300 	ldrd	r2, r3, [sp]
 8006f7e:	f47f aeef 	bne.w	8006d60 <_malloc_r+0x26c>
 8006f82:	46da      	mov	sl, fp
 8006f84:	e6ef      	b.n	8006d66 <_malloc_r+0x272>
 8006f86:	2b54      	cmp	r3, #84	; 0x54
 8006f88:	d825      	bhi.n	8006fd6 <_malloc_r+0x4e2>
 8006f8a:	0b13      	lsrs	r3, r2, #12
 8006f8c:	f103 016f 	add.w	r1, r3, #111	; 0x6f
 8006f90:	00c9      	lsls	r1, r1, #3
 8006f92:	336e      	adds	r3, #110	; 0x6e
 8006f94:	e744      	b.n	8006e20 <_malloc_r+0x32c>
 8006f96:	f5b3 7faa 	cmp.w	r3, #340	; 0x154
 8006f9a:	d825      	bhi.n	8006fe8 <_malloc_r+0x4f4>
 8006f9c:	0bf3      	lsrs	r3, r6, #15
 8006f9e:	f103 0078 	add.w	r0, r3, #120	; 0x78
 8006fa2:	f103 0c77 	add.w	ip, r3, #119	; 0x77
 8006fa6:	00c3      	lsls	r3, r0, #3
 8006fa8:	e5ea      	b.n	8006b80 <_malloc_r+0x8c>
 8006faa:	4b29      	ldr	r3, [pc, #164]	; (8007050 <_malloc_r+0x55c>)
 8006fac:	6818      	ldr	r0, [r3, #0]
 8006fae:	4440      	add	r0, r8
 8006fb0:	6018      	str	r0, [r3, #0]
 8006fb2:	e6b1      	b.n	8006d18 <_malloc_r+0x224>
 8006fb4:	f3ca 0c0b 	ubfx	ip, sl, #0, #12
 8006fb8:	f1bc 0f00 	cmp.w	ip, #0
 8006fbc:	f47f aeac 	bne.w	8006d18 <_malloc_r+0x224>
 8006fc0:	68bd      	ldr	r5, [r7, #8]
 8006fc2:	44c8      	add	r8, r9
 8006fc4:	f048 0001 	orr.w	r0, r8, #1
 8006fc8:	6068      	str	r0, [r5, #4]
 8006fca:	e6f0      	b.n	8006dae <_malloc_r+0x2ba>
 8006fcc:	4615      	mov	r5, r2
 8006fce:	e6ee      	b.n	8006dae <_malloc_r+0x2ba>
 8006fd0:	2301      	movs	r3, #1
 8006fd2:	6053      	str	r3, [r2, #4]
 8006fd4:	e794      	b.n	8006f00 <_malloc_r+0x40c>
 8006fd6:	f5b3 7faa 	cmp.w	r3, #340	; 0x154
 8006fda:	d823      	bhi.n	8007024 <_malloc_r+0x530>
 8006fdc:	0bd3      	lsrs	r3, r2, #15
 8006fde:	f103 0178 	add.w	r1, r3, #120	; 0x78
 8006fe2:	00c9      	lsls	r1, r1, #3
 8006fe4:	3377      	adds	r3, #119	; 0x77
 8006fe6:	e71b      	b.n	8006e20 <_malloc_r+0x32c>
 8006fe8:	f240 5254 	movw	r2, #1364	; 0x554
 8006fec:	4293      	cmp	r3, r2
 8006fee:	d823      	bhi.n	8007038 <_malloc_r+0x544>
 8006ff0:	0cb3      	lsrs	r3, r6, #18
 8006ff2:	f103 007d 	add.w	r0, r3, #125	; 0x7d
 8006ff6:	f103 0c7c 	add.w	ip, r3, #124	; 0x7c
 8006ffa:	00c3      	lsls	r3, r0, #3
 8006ffc:	e5c0      	b.n	8006b80 <_malloc_r+0x8c>
 8006ffe:	f1ab 0b08 	sub.w	fp, fp, #8
 8007002:	44d8      	add	r8, fp
 8007004:	eba8 0802 	sub.w	r8, r8, r2
 8007008:	f04f 0a00 	mov.w	sl, #0
 800700c:	e6ab      	b.n	8006d66 <_malloc_r+0x272>
 800700e:	f105 0108 	add.w	r1, r5, #8
 8007012:	4620      	mov	r0, r4
 8007014:	9300      	str	r3, [sp, #0]
 8007016:	f000 f903 	bl	8007220 <_free_r>
 800701a:	68bd      	ldr	r5, [r7, #8]
 800701c:	9b00      	ldr	r3, [sp, #0]
 800701e:	6868      	ldr	r0, [r5, #4]
 8007020:	6819      	ldr	r1, [r3, #0]
 8007022:	e6c4      	b.n	8006dae <_malloc_r+0x2ba>
 8007024:	f240 5154 	movw	r1, #1364	; 0x554
 8007028:	428b      	cmp	r3, r1
 800702a:	d80b      	bhi.n	8007044 <_malloc_r+0x550>
 800702c:	0c93      	lsrs	r3, r2, #18
 800702e:	f103 017d 	add.w	r1, r3, #125	; 0x7d
 8007032:	00c9      	lsls	r1, r1, #3
 8007034:	337c      	adds	r3, #124	; 0x7c
 8007036:	e6f3      	b.n	8006e20 <_malloc_r+0x32c>
 8007038:	f44f 737e 	mov.w	r3, #1016	; 0x3f8
 800703c:	207f      	movs	r0, #127	; 0x7f
 800703e:	f04f 0c7e 	mov.w	ip, #126	; 0x7e
 8007042:	e59d      	b.n	8006b80 <_malloc_r+0x8c>
 8007044:	f44f 717e 	mov.w	r1, #1016	; 0x3f8
 8007048:	237e      	movs	r3, #126	; 0x7e
 800704a:	e6e9      	b.n	8006e20 <_malloc_r+0x32c>
 800704c:	687b      	ldr	r3, [r7, #4]
 800704e:	e770      	b.n	8006f32 <_malloc_r+0x43e>
 8007050:	5284      	strh	r4, [r0, r2]
 8007052:	2000      	movs	r0, #0

08007054 <memset>:
 8007054:	0783      	lsls	r3, r0, #30
 8007056:	b530      	push	{r4, r5, lr}
 8007058:	d048      	beq.n	80070ec <memset+0x98>
 800705a:	1e54      	subs	r4, r2, #1
 800705c:	2a00      	cmp	r2, #0
 800705e:	d03f      	beq.n	80070e0 <memset+0x8c>
 8007060:	b2ca      	uxtb	r2, r1
 8007062:	4603      	mov	r3, r0
 8007064:	e001      	b.n	800706a <memset+0x16>
 8007066:	3c01      	subs	r4, #1
 8007068:	d33a      	bcc.n	80070e0 <memset+0x8c>
 800706a:	f803 2b01 	strb.w	r2, [r3], #1
 800706e:	079d      	lsls	r5, r3, #30
 8007070:	d1f9      	bne.n	8007066 <memset+0x12>
 8007072:	2c03      	cmp	r4, #3
 8007074:	d92d      	bls.n	80070d2 <memset+0x7e>
 8007076:	b2cd      	uxtb	r5, r1
 8007078:	ea45 2505 	orr.w	r5, r5, r5, lsl #8
 800707c:	2c0f      	cmp	r4, #15
 800707e:	ea45 4505 	orr.w	r5, r5, r5, lsl #16
 8007082:	d936      	bls.n	80070f2 <memset+0x9e>
 8007084:	f1a4 0210 	sub.w	r2, r4, #16
 8007088:	f022 0c0f 	bic.w	ip, r2, #15
 800708c:	f103 0e20 	add.w	lr, r3, #32
 8007090:	44e6      	add	lr, ip
 8007092:	ea4f 1c12 	mov.w	ip, r2, lsr #4
 8007096:	f103 0210 	add.w	r2, r3, #16
 800709a:	e942 5504 	strd	r5, r5, [r2, #-16]
 800709e:	e942 5502 	strd	r5, r5, [r2, #-8]
 80070a2:	3210      	adds	r2, #16
 80070a4:	4572      	cmp	r2, lr
 80070a6:	d1f8      	bne.n	800709a <memset+0x46>
 80070a8:	f10c 0201 	add.w	r2, ip, #1
 80070ac:	f014 0f0c 	tst.w	r4, #12
 80070b0:	eb03 1202 	add.w	r2, r3, r2, lsl #4
 80070b4:	f004 0c0f 	and.w	ip, r4, #15
 80070b8:	d013      	beq.n	80070e2 <memset+0x8e>
 80070ba:	f1ac 0304 	sub.w	r3, ip, #4
 80070be:	f023 0303 	bic.w	r3, r3, #3
 80070c2:	3304      	adds	r3, #4
 80070c4:	4413      	add	r3, r2
 80070c6:	f842 5b04 	str.w	r5, [r2], #4
 80070ca:	4293      	cmp	r3, r2
 80070cc:	d1fb      	bne.n	80070c6 <memset+0x72>
 80070ce:	f00c 0403 	and.w	r4, ip, #3
 80070d2:	b12c      	cbz	r4, 80070e0 <memset+0x8c>
 80070d4:	b2ca      	uxtb	r2, r1
 80070d6:	441c      	add	r4, r3
 80070d8:	f803 2b01 	strb.w	r2, [r3], #1
 80070dc:	429c      	cmp	r4, r3
 80070de:	d1fb      	bne.n	80070d8 <memset+0x84>
 80070e0:	bd30      	pop	{r4, r5, pc}
 80070e2:	4664      	mov	r4, ip
 80070e4:	4613      	mov	r3, r2
 80070e6:	2c00      	cmp	r4, #0
 80070e8:	d1f4      	bne.n	80070d4 <memset+0x80>
 80070ea:	e7f9      	b.n	80070e0 <memset+0x8c>
 80070ec:	4603      	mov	r3, r0
 80070ee:	4614      	mov	r4, r2
 80070f0:	e7bf      	b.n	8007072 <memset+0x1e>
 80070f2:	461a      	mov	r2, r3
 80070f4:	46a4      	mov	ip, r4
 80070f6:	e7e0      	b.n	80070ba <memset+0x66>

080070f8 <__malloc_lock>:
 80070f8:	4801      	ldr	r0, [pc, #4]	; (8007100 <__malloc_lock+0x8>)
 80070fa:	f000 b997 	b.w	800742c <__retarget_lock_acquire_recursive>
 80070fe:	bf00      	nop
 8007100:	52bc      	strh	r4, [r7, r2]
 8007102:	2000      	movs	r0, #0

08007104 <__malloc_unlock>:
 8007104:	4801      	ldr	r0, [pc, #4]	; (800710c <__malloc_unlock+0x8>)
 8007106:	f000 b993 	b.w	8007430 <__retarget_lock_release_recursive>
 800710a:	bf00      	nop
 800710c:	52bc      	strh	r4, [r7, r2]
 800710e:	2000      	movs	r0, #0

08007110 <_sbrk_r>:
 8007110:	b538      	push	{r3, r4, r5, lr}
 8007112:	4d07      	ldr	r5, [pc, #28]	; (8007130 <_sbrk_r+0x20>)
 8007114:	2200      	movs	r2, #0
 8007116:	4604      	mov	r4, r0
 8007118:	4608      	mov	r0, r1
 800711a:	602a      	str	r2, [r5, #0]
 800711c:	f000 f9d0 	bl	80074c0 <_sbrk>
 8007120:	1c43      	adds	r3, r0, #1
 8007122:	d000      	beq.n	8007126 <_sbrk_r+0x16>
 8007124:	bd38      	pop	{r3, r4, r5, pc}
 8007126:	682b      	ldr	r3, [r5, #0]
 8007128:	2b00      	cmp	r3, #0
 800712a:	d0fb      	beq.n	8007124 <_sbrk_r+0x14>
 800712c:	6023      	str	r3, [r4, #0]
 800712e:	bd38      	pop	{r3, r4, r5, pc}
 8007130:	52c0      	strh	r0, [r0, r3]
 8007132:	2000      	movs	r0, #0

08007134 <register_fini>:
 8007134:	4b02      	ldr	r3, [pc, #8]	; (8007140 <register_fini+0xc>)
 8007136:	b113      	cbz	r3, 800713e <register_fini+0xa>
 8007138:	4802      	ldr	r0, [pc, #8]	; (8007144 <register_fini+0x10>)
 800713a:	f000 b805 	b.w	8007148 <atexit>
 800713e:	4770      	bx	lr
 8007140:	0000      	movs	r0, r0
 8007142:	0000      	movs	r0, r0
 8007144:	7155      	strb	r5, [r2, #5]
 8007146:	0800      	lsrs	r0, r0, #32

08007148 <atexit>:
 8007148:	2300      	movs	r3, #0
 800714a:	4601      	mov	r1, r0
 800714c:	461a      	mov	r2, r3
 800714e:	4618      	mov	r0, r3
 8007150:	f000 b970 	b.w	8007434 <__register_exitproc>

08007154 <__libc_fini_array>:
 8007154:	b538      	push	{r3, r4, r5, lr}
 8007156:	4b08      	ldr	r3, [pc, #32]	; (8007178 <__libc_fini_array+0x24>)
 8007158:	4d08      	ldr	r5, [pc, #32]	; (800717c <__libc_fini_array+0x28>)
 800715a:	1b5b      	subs	r3, r3, r5
 800715c:	109c      	asrs	r4, r3, #2
 800715e:	d007      	beq.n	8007170 <__libc_fini_array+0x1c>
 8007160:	3b04      	subs	r3, #4
 8007162:	441d      	add	r5, r3
 8007164:	3c01      	subs	r4, #1
 8007166:	f855 3904 	ldr.w	r3, [r5], #-4
 800716a:	4798      	blx	r3
 800716c:	2c00      	cmp	r4, #0
 800716e:	d1f9      	bne.n	8007164 <__libc_fini_array+0x10>
 8007170:	e8bd 4038 	ldmia.w	sp!, {r3, r4, r5, lr}
 8007174:	f000 b9b8 	b.w	80074e8 <_fini>
 8007178:	8b14      	ldrh	r4, [r2, #24]
 800717a:	0800      	lsrs	r0, r0, #32
 800717c:	8b10      	ldrh	r0, [r2, #24]
 800717e:	0800      	lsrs	r0, r0, #32

08007180 <_malloc_trim_r>:
 8007180:	b5f8      	push	{r3, r4, r5, r6, r7, lr}
 8007182:	4f24      	ldr	r7, [pc, #144]	; (8007214 <_malloc_trim_r+0x94>)
 8007184:	460c      	mov	r4, r1
 8007186:	4606      	mov	r6, r0
 8007188:	f7ff ffb6 	bl	80070f8 <__malloc_lock>
 800718c:	68ba      	ldr	r2, [r7, #8]
 800718e:	6855      	ldr	r5, [r2, #4]
 8007190:	f5c4 637e 	rsb	r3, r4, #4064	; 0xfe0
 8007194:	330f      	adds	r3, #15
 8007196:	f025 0503 	bic.w	r5, r5, #3
 800719a:	442b      	add	r3, r5
 800719c:	f423 637f 	bic.w	r3, r3, #4080	; 0xff0
 80071a0:	f023 030f 	bic.w	r3, r3, #15
 80071a4:	f5a3 5480 	sub.w	r4, r3, #4096	; 0x1000
 80071a8:	f5b4 5f80 	cmp.w	r4, #4096	; 0x1000
 80071ac:	db07      	blt.n	80071be <_malloc_trim_r+0x3e>
 80071ae:	2100      	movs	r1, #0
 80071b0:	4630      	mov	r0, r6
 80071b2:	f7ff ffad 	bl	8007110 <_sbrk_r>
 80071b6:	68bb      	ldr	r3, [r7, #8]
 80071b8:	442b      	add	r3, r5
 80071ba:	4298      	cmp	r0, r3
 80071bc:	d004      	beq.n	80071c8 <_malloc_trim_r+0x48>
 80071be:	4630      	mov	r0, r6
 80071c0:	f7ff ffa0 	bl	8007104 <__malloc_unlock>
 80071c4:	2000      	movs	r0, #0
 80071c6:	bdf8      	pop	{r3, r4, r5, r6, r7, pc}
 80071c8:	4261      	negs	r1, r4
 80071ca:	4630      	mov	r0, r6
 80071cc:	f7ff ffa0 	bl	8007110 <_sbrk_r>
 80071d0:	3001      	adds	r0, #1
 80071d2:	d00d      	beq.n	80071f0 <_malloc_trim_r+0x70>
 80071d4:	4a10      	ldr	r2, [pc, #64]	; (8007218 <_malloc_trim_r+0x98>)
 80071d6:	68bb      	ldr	r3, [r7, #8]
 80071d8:	1b2d      	subs	r5, r5, r4
 80071da:	f045 0501 	orr.w	r5, r5, #1
 80071de:	605d      	str	r5, [r3, #4]
 80071e0:	6813      	ldr	r3, [r2, #0]
 80071e2:	4630      	mov	r0, r6
 80071e4:	1b1b      	subs	r3, r3, r4
 80071e6:	6013      	str	r3, [r2, #0]
 80071e8:	f7ff ff8c 	bl	8007104 <__malloc_unlock>
 80071ec:	2001      	movs	r0, #1
 80071ee:	bdf8      	pop	{r3, r4, r5, r6, r7, pc}
 80071f0:	2100      	movs	r1, #0
 80071f2:	4630      	mov	r0, r6
 80071f4:	f7ff ff8c 	bl	8007110 <_sbrk_r>
 80071f8:	68ba      	ldr	r2, [r7, #8]
 80071fa:	1a83      	subs	r3, r0, r2
 80071fc:	2b0f      	cmp	r3, #15
 80071fe:	ddde      	ble.n	80071be <_malloc_trim_r+0x3e>
 8007200:	f043 0301 	orr.w	r3, r3, #1
 8007204:	6053      	str	r3, [r2, #4]
 8007206:	4b05      	ldr	r3, [pc, #20]	; (800721c <_malloc_trim_r+0x9c>)
 8007208:	4903      	ldr	r1, [pc, #12]	; (8007218 <_malloc_trim_r+0x98>)
 800720a:	681b      	ldr	r3, [r3, #0]
 800720c:	1ac0      	subs	r0, r0, r3
 800720e:	6008      	str	r0, [r1, #0]
 8007210:	e7d5      	b.n	80071be <_malloc_trim_r+0x3e>
 8007212:	bf00      	nop
 8007214:	0560      	lsls	r0, r4, #21
 8007216:	2000      	movs	r0, #0
 8007218:	5284      	strh	r4, [r0, r2]
 800721a:	2000      	movs	r0, #0
 800721c:	0968      	lsrs	r0, r5, #5
 800721e:	2000      	movs	r0, #0

08007220 <_free_r>:
 8007220:	2900      	cmp	r1, #0
 8007222:	d061      	beq.n	80072e8 <_free_r+0xc8>
 8007224:	b5f8      	push	{r3, r4, r5, r6, r7, lr}
 8007226:	460c      	mov	r4, r1
 8007228:	4606      	mov	r6, r0
 800722a:	f7ff ff65 	bl	80070f8 <__malloc_lock>
 800722e:	f854 2c04 	ldr.w	r2, [r4, #-4]
 8007232:	4f7b      	ldr	r7, [pc, #492]	; (8007420 <_free_r+0x200>)
 8007234:	f1a4 0508 	sub.w	r5, r4, #8
 8007238:	f022 0101 	bic.w	r1, r2, #1
 800723c:	eb05 0c01 	add.w	ip, r5, r1
 8007240:	68b8      	ldr	r0, [r7, #8]
 8007242:	f8dc 3004 	ldr.w	r3, [ip, #4]
 8007246:	4560      	cmp	r0, ip
 8007248:	f023 0303 	bic.w	r3, r3, #3
 800724c:	f000 808b 	beq.w	8007366 <_free_r+0x146>
 8007250:	07d2      	lsls	r2, r2, #31
 8007252:	f8cc 3004 	str.w	r3, [ip, #4]
 8007256:	d432      	bmi.n	80072be <_free_r+0x9e>
 8007258:	f854 2c08 	ldr.w	r2, [r4, #-8]
 800725c:	1aad      	subs	r5, r5, r2
 800725e:	4411      	add	r1, r2
 8007260:	68aa      	ldr	r2, [r5, #8]
 8007262:	f107 0008 	add.w	r0, r7, #8
 8007266:	4282      	cmp	r2, r0
 8007268:	d06a      	beq.n	8007340 <_free_r+0x120>
 800726a:	eb0c 0403 	add.w	r4, ip, r3
 800726e:	f8d4 e004 	ldr.w	lr, [r4, #4]
 8007272:	68ec      	ldr	r4, [r5, #12]
 8007274:	60d4      	str	r4, [r2, #12]
 8007276:	f01e 0f01 	tst.w	lr, #1
 800727a:	60a2      	str	r2, [r4, #8]
 800727c:	f000 8097 	beq.w	80073ae <_free_r+0x18e>
 8007280:	f041 0301 	orr.w	r3, r1, #1
 8007284:	606b      	str	r3, [r5, #4]
 8007286:	f8cc 1000 	str.w	r1, [ip]
 800728a:	f5b1 7f00 	cmp.w	r1, #512	; 0x200
 800728e:	d235      	bcs.n	80072fc <_free_r+0xdc>
 8007290:	687a      	ldr	r2, [r7, #4]
 8007292:	08cb      	lsrs	r3, r1, #3
 8007294:	0948      	lsrs	r0, r1, #5
 8007296:	2101      	movs	r1, #1
 8007298:	3301      	adds	r3, #1
 800729a:	4081      	lsls	r1, r0
 800729c:	4311      	orrs	r1, r2
 800729e:	6079      	str	r1, [r7, #4]
 80072a0:	eb07 02c3 	add.w	r2, r7, r3, lsl #3
 80072a4:	f857 1033 	ldr.w	r1, [r7, r3, lsl #3]
 80072a8:	3a08      	subs	r2, #8
 80072aa:	e9c5 1202 	strd	r1, r2, [r5, #8]
 80072ae:	f847 5033 	str.w	r5, [r7, r3, lsl #3]
 80072b2:	60cd      	str	r5, [r1, #12]
 80072b4:	4630      	mov	r0, r6
 80072b6:	e8bd 40f8 	ldmia.w	sp!, {r3, r4, r5, r6, r7, lr}
 80072ba:	f7ff bf23 	b.w	8007104 <__malloc_unlock>
 80072be:	eb0c 0203 	add.w	r2, ip, r3
 80072c2:	6852      	ldr	r2, [r2, #4]
 80072c4:	07d0      	lsls	r0, r2, #31
 80072c6:	d410      	bmi.n	80072ea <_free_r+0xca>
 80072c8:	4419      	add	r1, r3
 80072ca:	f107 0008 	add.w	r0, r7, #8
 80072ce:	f8dc 3008 	ldr.w	r3, [ip, #8]
 80072d2:	4283      	cmp	r3, r0
 80072d4:	d073      	beq.n	80073be <_free_r+0x19e>
 80072d6:	f8dc 200c 	ldr.w	r2, [ip, #12]
 80072da:	60da      	str	r2, [r3, #12]
 80072dc:	6093      	str	r3, [r2, #8]
 80072de:	f041 0301 	orr.w	r3, r1, #1
 80072e2:	606b      	str	r3, [r5, #4]
 80072e4:	5069      	str	r1, [r5, r1]
 80072e6:	e7d0      	b.n	800728a <_free_r+0x6a>
 80072e8:	4770      	bx	lr
 80072ea:	f041 0301 	orr.w	r3, r1, #1
 80072ee:	f5b1 7f00 	cmp.w	r1, #512	; 0x200
 80072f2:	f844 3c04 	str.w	r3, [r4, #-4]
 80072f6:	f8cc 1000 	str.w	r1, [ip]
 80072fa:	d3c9      	bcc.n	8007290 <_free_r+0x70>
 80072fc:	f5b1 6f20 	cmp.w	r1, #2560	; 0xa00
 8007300:	ea4f 2351 	mov.w	r3, r1, lsr #9
 8007304:	d248      	bcs.n	8007398 <_free_r+0x178>
 8007306:	098b      	lsrs	r3, r1, #6
 8007308:	f103 0039 	add.w	r0, r3, #57	; 0x39
 800730c:	f103 0238 	add.w	r2, r3, #56	; 0x38
 8007310:	00c3      	lsls	r3, r0, #3
 8007312:	18f8      	adds	r0, r7, r3
 8007314:	58fb      	ldr	r3, [r7, r3]
 8007316:	3808      	subs	r0, #8
 8007318:	4298      	cmp	r0, r3
 800731a:	d059      	beq.n	80073d0 <_free_r+0x1b0>
 800731c:	685a      	ldr	r2, [r3, #4]
 800731e:	f022 0203 	bic.w	r2, r2, #3
 8007322:	428a      	cmp	r2, r1
 8007324:	d902      	bls.n	800732c <_free_r+0x10c>
 8007326:	689b      	ldr	r3, [r3, #8]
 8007328:	4298      	cmp	r0, r3
 800732a:	d1f7      	bne.n	800731c <_free_r+0xfc>
 800732c:	68d8      	ldr	r0, [r3, #12]
 800732e:	e9c5 3002 	strd	r3, r0, [r5, #8]
 8007332:	6085      	str	r5, [r0, #8]
 8007334:	60dd      	str	r5, [r3, #12]
 8007336:	4630      	mov	r0, r6
 8007338:	e8bd 40f8 	ldmia.w	sp!, {r3, r4, r5, r6, r7, lr}
 800733c:	f7ff bee2 	b.w	8007104 <__malloc_unlock>
 8007340:	eb0c 0203 	add.w	r2, ip, r3
 8007344:	6852      	ldr	r2, [r2, #4]
 8007346:	07d2      	lsls	r2, r2, #31
 8007348:	d463      	bmi.n	8007412 <_free_r+0x1f2>
 800734a:	440b      	add	r3, r1
 800734c:	e9dc 1202 	ldrd	r1, r2, [ip, #8]
 8007350:	60ca      	str	r2, [r1, #12]
 8007352:	6091      	str	r1, [r2, #8]
 8007354:	f043 0201 	orr.w	r2, r3, #1
 8007358:	606a      	str	r2, [r5, #4]
 800735a:	4630      	mov	r0, r6
 800735c:	50eb      	str	r3, [r5, r3]
 800735e:	e8bd 40f8 	ldmia.w	sp!, {r3, r4, r5, r6, r7, lr}
 8007362:	f7ff becf 	b.w	8007104 <__malloc_unlock>
 8007366:	440b      	add	r3, r1
 8007368:	07d1      	lsls	r1, r2, #31
 800736a:	d407      	bmi.n	800737c <_free_r+0x15c>
 800736c:	f854 2c08 	ldr.w	r2, [r4, #-8]
 8007370:	1aad      	subs	r5, r5, r2
 8007372:	4413      	add	r3, r2
 8007374:	e9d5 1202 	ldrd	r1, r2, [r5, #8]
 8007378:	60ca      	str	r2, [r1, #12]
 800737a:	6091      	str	r1, [r2, #8]
 800737c:	f043 0201 	orr.w	r2, r3, #1
 8007380:	606a      	str	r2, [r5, #4]
 8007382:	4a28      	ldr	r2, [pc, #160]	; (8007424 <_free_r+0x204>)
 8007384:	60bd      	str	r5, [r7, #8]
 8007386:	6812      	ldr	r2, [r2, #0]
 8007388:	429a      	cmp	r2, r3
 800738a:	d893      	bhi.n	80072b4 <_free_r+0x94>
 800738c:	4b26      	ldr	r3, [pc, #152]	; (8007428 <_free_r+0x208>)
 800738e:	4630      	mov	r0, r6
 8007390:	6819      	ldr	r1, [r3, #0]
 8007392:	f7ff fef5 	bl	8007180 <_malloc_trim_r>
 8007396:	e78d      	b.n	80072b4 <_free_r+0x94>
 8007398:	2b14      	cmp	r3, #20
 800739a:	d90a      	bls.n	80073b2 <_free_r+0x192>
 800739c:	2b54      	cmp	r3, #84	; 0x54
 800739e:	d81f      	bhi.n	80073e0 <_free_r+0x1c0>
 80073a0:	0b0b      	lsrs	r3, r1, #12
 80073a2:	f103 006f 	add.w	r0, r3, #111	; 0x6f
 80073a6:	f103 026e 	add.w	r2, r3, #110	; 0x6e
 80073aa:	00c3      	lsls	r3, r0, #3
 80073ac:	e7b1      	b.n	8007312 <_free_r+0xf2>
 80073ae:	4419      	add	r1, r3
 80073b0:	e78d      	b.n	80072ce <_free_r+0xae>
 80073b2:	f103 005c 	add.w	r0, r3, #92	; 0x5c
 80073b6:	f103 025b 	add.w	r2, r3, #91	; 0x5b
 80073ba:	00c3      	lsls	r3, r0, #3
 80073bc:	e7a9      	b.n	8007312 <_free_r+0xf2>
 80073be:	f041 0301 	orr.w	r3, r1, #1
 80073c2:	e9c7 5504 	strd	r5, r5, [r7, #16]
 80073c6:	e9c5 0002 	strd	r0, r0, [r5, #8]
 80073ca:	606b      	str	r3, [r5, #4]
 80073cc:	5069      	str	r1, [r5, r1]
 80073ce:	e771      	b.n	80072b4 <_free_r+0x94>
 80073d0:	6879      	ldr	r1, [r7, #4]
 80073d2:	1092      	asrs	r2, r2, #2
 80073d4:	2401      	movs	r4, #1
 80073d6:	fa04 f202 	lsl.w	r2, r4, r2
 80073da:	430a      	orrs	r2, r1
 80073dc:	607a      	str	r2, [r7, #4]
 80073de:	e7a6      	b.n	800732e <_free_r+0x10e>
 80073e0:	f5b3 7faa 	cmp.w	r3, #340	; 0x154
 80073e4:	d806      	bhi.n	80073f4 <_free_r+0x1d4>
 80073e6:	0bcb      	lsrs	r3, r1, #15
 80073e8:	f103 0078 	add.w	r0, r3, #120	; 0x78
 80073ec:	f103 0277 	add.w	r2, r3, #119	; 0x77
 80073f0:	00c3      	lsls	r3, r0, #3
 80073f2:	e78e      	b.n	8007312 <_free_r+0xf2>
 80073f4:	f240 5254 	movw	r2, #1364	; 0x554
 80073f8:	4293      	cmp	r3, r2
 80073fa:	d806      	bhi.n	800740a <_free_r+0x1ea>
 80073fc:	0c8b      	lsrs	r3, r1, #18
 80073fe:	f103 007d 	add.w	r0, r3, #125	; 0x7d
 8007402:	f103 027c 	add.w	r2, r3, #124	; 0x7c
 8007406:	00c3      	lsls	r3, r0, #3
 8007408:	e783      	b.n	8007312 <_free_r+0xf2>
 800740a:	f44f 737e 	mov.w	r3, #1016	; 0x3f8
 800740e:	227e      	movs	r2, #126	; 0x7e
 8007410:	e77f      	b.n	8007312 <_free_r+0xf2>
 8007412:	f041 0301 	orr.w	r3, r1, #1
 8007416:	606b      	str	r3, [r5, #4]
 8007418:	f8cc 1000 	str.w	r1, [ip]
 800741c:	e74a      	b.n	80072b4 <_free_r+0x94>
 800741e:	bf00      	nop
 8007420:	0560      	lsls	r0, r4, #21
 8007422:	2000      	movs	r0, #0
 8007424:	096c      	lsrs	r4, r5, #5
 8007426:	2000      	movs	r0, #0
 8007428:	52b4      	strh	r4, [r6, r2]
 800742a:	2000      	movs	r0, #0

0800742c <__retarget_lock_acquire_recursive>:
 800742c:	4770      	bx	lr
 800742e:	bf00      	nop

08007430 <__retarget_lock_release_recursive>:
 8007430:	4770      	bx	lr
 8007432:	bf00      	nop

08007434 <__register_exitproc>:
 8007434:	e92d 47f0 	stmdb	sp!, {r4, r5, r6, r7, r8, r9, sl, lr}
 8007438:	f8df a07c 	ldr.w	sl, [pc, #124]	; 80074b8 <__register_exitproc+0x84>
 800743c:	4606      	mov	r6, r0
 800743e:	f8da 0000 	ldr.w	r0, [sl]
 8007442:	4698      	mov	r8, r3
 8007444:	460f      	mov	r7, r1
 8007446:	4691      	mov	r9, r2
 8007448:	f7ff fff0 	bl	800742c <__retarget_lock_acquire_recursive>
 800744c:	4b1b      	ldr	r3, [pc, #108]	; (80074bc <__register_exitproc+0x88>)
 800744e:	681b      	ldr	r3, [r3, #0]
 8007450:	f8d3 4148 	ldr.w	r4, [r3, #328]	; 0x148
 8007454:	b324      	cbz	r4, 80074a0 <__register_exitproc+0x6c>
 8007456:	6865      	ldr	r5, [r4, #4]
 8007458:	2d1f      	cmp	r5, #31
 800745a:	dc26      	bgt.n	80074aa <__register_exitproc+0x76>
 800745c:	b95e      	cbnz	r6, 8007476 <__register_exitproc+0x42>
 800745e:	1c6b      	adds	r3, r5, #1
 8007460:	3502      	adds	r5, #2
 8007462:	f8da 0000 	ldr.w	r0, [sl]
 8007466:	6063      	str	r3, [r4, #4]
 8007468:	f844 7025 	str.w	r7, [r4, r5, lsl #2]
 800746c:	f7ff ffe0 	bl	8007430 <__retarget_lock_release_recursive>
 8007470:	2000      	movs	r0, #0
 8007472:	e8bd 87f0 	ldmia.w	sp!, {r4, r5, r6, r7, r8, r9, sl, pc}
 8007476:	eb04 0185 	add.w	r1, r4, r5, lsl #2
 800747a:	2301      	movs	r3, #1
 800747c:	f8c1 9088 	str.w	r9, [r1, #136]	; 0x88
 8007480:	f8d4 2188 	ldr.w	r2, [r4, #392]	; 0x188
 8007484:	40ab      	lsls	r3, r5
 8007486:	431a      	orrs	r2, r3
 8007488:	2e02      	cmp	r6, #2
 800748a:	f8c4 2188 	str.w	r2, [r4, #392]	; 0x188
 800748e:	f8c1 8108 	str.w	r8, [r1, #264]	; 0x108
 8007492:	d1e4      	bne.n	800745e <__register_exitproc+0x2a>
 8007494:	f8d4 218c 	ldr.w	r2, [r4, #396]	; 0x18c
 8007498:	4313      	orrs	r3, r2
 800749a:	f8c4 318c 	str.w	r3, [r4, #396]	; 0x18c
 800749e:	e7de      	b.n	800745e <__register_exitproc+0x2a>
 80074a0:	f503 74a6 	add.w	r4, r3, #332	; 0x14c
 80074a4:	f8c3 4148 	str.w	r4, [r3, #328]	; 0x148
 80074a8:	e7d5      	b.n	8007456 <__register_exitproc+0x22>
 80074aa:	f8da 0000 	ldr.w	r0, [sl]
 80074ae:	f7ff ffbf 	bl	8007430 <__retarget_lock_release_recursive>
 80074b2:	f04f 30ff 	mov.w	r0, #4294967295
 80074b6:	e7dc      	b.n	8007472 <__register_exitproc+0x3e>
 80074b8:	0970      	lsrs	r0, r6, #5
 80074ba:	2000      	movs	r0, #0
 80074bc:	8b04      	ldrh	r4, [r0, #24]
 80074be:	0800      	lsrs	r0, r0, #32

080074c0 <_sbrk>:
 80074c0:	4a04      	ldr	r2, [pc, #16]	; (80074d4 <_sbrk+0x14>)
 80074c2:	4905      	ldr	r1, [pc, #20]	; (80074d8 <_sbrk+0x18>)
 80074c4:	6813      	ldr	r3, [r2, #0]
 80074c6:	2b00      	cmp	r3, #0
 80074c8:	bf08      	it	eq
 80074ca:	460b      	moveq	r3, r1
 80074cc:	4418      	add	r0, r3
 80074ce:	6010      	str	r0, [r2, #0]
 80074d0:	4618      	mov	r0, r3
 80074d2:	4770      	bx	lr
 80074d4:	52c4      	strh	r4, [r0, r3]
 80074d6:	2000      	movs	r0, #0
 80074d8:	52c8      	strh	r0, [r1, r3]
 80074da:	2000      	movs	r0, #0

080074dc <_init>:
 80074dc:	b5f8      	push	{r3, r4, r5, r6, r7, lr}
 80074de:	bf00      	nop
 80074e0:	bcf8      	pop	{r3, r4, r5, r6, r7}
 80074e2:	bc08      	pop	{r3}
 80074e4:	469e      	mov	lr, r3
 80074e6:	4770      	bx	lr

080074e8 <_fini>:
 80074e8:	b5f8      	push	{r3, r4, r5, r6, r7, lr}
 80074ea:	bf00      	nop
 80074ec:	bcf8      	pop	{r3, r4, r5, r6, r7}
 80074ee:	bc08      	pop	{r3}
 80074f0:	469e      	mov	lr, r3
 80074f2:	4770      	bx	lr

Disassembly of section .rodata:

080074f4 <printer_config_desc-0x18>:
	...
 80074fc:	0201      	lsls	r1, r0, #8
 80074fe:	0403      	lsls	r3, r0, #16
 8007500:	0706      	lsls	r6, r0, #28
 8007502:	0908      	lsrs	r0, r1, #4
 8007504:	0000      	movs	r0, r0
 8007506:	0000      	movs	r0, r0
 8007508:	0201      	lsls	r1, r0, #8
 800750a:	0403      	lsls	r3, r0, #16

0800750c <printer_config_desc>:
 800750c:	0209      	lsls	r1, r1, #8
 800750e:	0020      	movs	r0, r4
 8007510:	0101      	lsls	r1, r0, #4
 8007512:	a000      	add	r0, pc, #0	; (adr r0, 8007514 <printer_config_desc+0x8>)
 8007514:	0932      	lsrs	r2, r6, #4
 8007516:	0004      	movs	r4, r0
 8007518:	0200      	lsls	r0, r0, #8
 800751a:	0107      	lsls	r7, r0, #4
 800751c:	0002      	movs	r2, r0
 800751e:	0507      	lsls	r7, r0, #20
 8007520:	0282      	lsls	r2, r0, #10
 8007522:	0040      	lsls	r0, r0, #1
 8007524:	0700      	lsls	r0, r0, #28
 8007526:	0205      	lsls	r5, r0, #8
 8007528:	4002      	ands	r2, r0
	...

0800752c <usbd_msc_strings>:
 800752c:	7640      	strb	r0, [r0, #25]
 800752e:	0800      	lsrs	r0, r0, #32
 8007530:	75be      	strb	r6, [r7, #22]
 8007532:	0800      	lsrs	r0, r0, #32
 8007534:	753c      	strb	r4, [r7, #20]
 8007536:	0800      	lsrs	r0, r0, #32
 8007538:	00ac      	lsls	r4, r5, #2
 800753a:	2000      	movs	r0, #0

0800753c <product_string>:
 800753c:	0324      	lsls	r4, r4, #12
 800753e:	0053      	lsls	r3, r2, #1
 8007540:	006d      	lsls	r5, r5, #1
 8007542:	0061      	lsls	r1, r4, #1
 8007544:	0072      	lsls	r2, r6, #1
 8007546:	0074      	lsls	r4, r6, #1
 8007548:	005f      	lsls	r7, r3, #1
 800754a:	0055      	lsls	r5, r2, #1
 800754c:	0053      	lsls	r3, r2, #1
 800754e:	0042      	lsls	r2, r0, #1
 8007550:	005f      	lsls	r7, r3, #1
 8007552:	0050      	lsls	r0, r2, #1
 8007554:	0072      	lsls	r2, r6, #1
 8007556:	0069      	lsls	r1, r5, #1
 8007558:	006e      	lsls	r6, r5, #1
 800755a:	0074      	lsls	r4, r6, #1
 800755c:	0065      	lsls	r5, r4, #1
 800755e:	0072      	lsls	r2, r6, #1
	...

080075be <manufacturer_string>:
 80075be:	0320      	lsls	r0, r4, #12
 80075c0:	0073      	lsls	r3, r6, #1
 80075c2:	006d      	lsls	r5, r5, #1
 80075c4:	0061      	lsls	r1, r4, #1
 80075c6:	0072      	lsls	r2, r6, #1
 80075c8:	0074      	lsls	r4, r6, #1
 80075ca:	0020      	movs	r0, r4
 80075cc:	0053      	lsls	r3, r2, #1
 80075ce:	006f      	lsls	r7, r5, #1
 80075d0:	006c      	lsls	r4, r5, #1
 80075d2:	0075      	lsls	r5, r6, #1
 80075d4:	0074      	lsls	r4, r6, #1
 80075d6:	0069      	lsls	r1, r5, #1
 80075d8:	006f      	lsls	r7, r5, #1
 80075da:	006e      	lsls	r6, r5, #1
 80075dc:	0073      	lsls	r3, r6, #1
	...

08007640 <usbd_language_id_desc>:
 8007640:	0304      	lsls	r4, r0, #12
 8007642:	0409      	lsls	r1, r1, #16

08007644 <printer_dev_desc>:
 8007644:	0112      	lsls	r2, r2, #4
 8007646:	0200      	lsls	r0, r0, #8
 8007648:	0000      	movs	r0, r0
 800764a:	4000      	ands	r0, r0
 800764c:	28e9      	cmp	r0, #233	; 0xe9
 800764e:	028d      	lsls	r5, r1, #10
 8007650:	0100      	lsls	r0, r0, #4
 8007652:	0201      	lsls	r1, r0, #8
 8007654:	0103      	lsls	r3, r0, #4
	...

08007658 <ep_type>:
 8007658:	0000      	movs	r0, r0
 800765a:	0000      	movs	r0, r0
 800765c:	0001      	movs	r1, r0
 800765e:	0000      	movs	r0, r0
 8007660:	0002      	movs	r2, r0
 8007662:	0000      	movs	r0, r0
 8007664:	0003      	movs	r3, r0
	...

08007668 <_std_dev_req>:
 8007668:	1b45      	subs	r5, r0, r5
 800766a:	0800      	lsrs	r0, r0, #32
 800766c:	1e49      	subs	r1, r1, #1
 800766e:	0800      	lsrs	r0, r0, #32
 8007670:	1b19      	subs	r1, r3, r4
 8007672:	0800      	lsrs	r0, r0, #32
 8007674:	1df5      	adds	r5, r6, #7
 8007676:	0800      	lsrs	r0, r0, #32
 8007678:	1b19      	subs	r1, r3, r4
 800767a:	0800      	lsrs	r0, r0, #32
 800767c:	1d55      	adds	r5, r2, #5
 800767e:	0800      	lsrs	r0, r0, #32
 8007680:	1bd9      	subs	r1, r3, r7
 8007682:	0800      	lsrs	r0, r0, #32
 8007684:	1ead      	subs	r5, r5, #2
 8007686:	0800      	lsrs	r0, r0, #32
 8007688:	1c99      	adds	r1, r3, #2
 800768a:	0800      	lsrs	r0, r0, #32
 800768c:	1cd1      	adds	r1, r2, #3
 800768e:	0800      	lsrs	r0, r0, #32
 8007690:	1d9f      	adds	r7, r3, #6
 8007692:	0800      	lsrs	r0, r0, #32
 8007694:	1dcb      	adds	r3, r1, #7
 8007696:	0800      	lsrs	r0, r0, #32
 8007698:	1eb1      	subs	r1, r6, #2
 800769a:	0800      	lsrs	r0, r0, #32

0800769c <USB_SPEED>:
 800769c:	0203      	lsls	r3, r0, #8
 800769e:	0201      	lsls	r1, r0, #8

080076a0 <EP0_MAXLEN>:
 80076a0:	0000      	movs	r0, r0
 80076a2:	0003      	movs	r3, r0

080076a4 <gstDEL_CMD>:
 80076a4:	0004      	movs	r4, r0
 80076a6:	0000      	movs	r0, r0
 80076a8:	2d59      	cmp	r5, #89	; 0x59
 80076aa:	0800      	lsrs	r0, r0, #32
 80076ac:	0005      	movs	r5, r0
 80076ae:	0000      	movs	r0, r0
 80076b0:	3539      	adds	r5, #57	; 0x39
 80076b2:	0800      	lsrs	r0, r0, #32
 80076b4:	0014      	movs	r4, r2
 80076b6:	0000      	movs	r0, r0
 80076b8:	353d      	adds	r5, #61	; 0x3d
 80076ba:	0800      	lsrs	r0, r0, #32

080076bc <gstESC_CMD>:
 80076bc:	0020      	movs	r0, r4
 80076be:	0000      	movs	r0, r0
 80076c0:	3509      	adds	r5, #9
 80076c2:	0800      	lsrs	r0, r0, #32
 80076c4:	0021      	movs	r1, r4
 80076c6:	0000      	movs	r0, r0
 80076c8:	3305      	adds	r3, #5
 80076ca:	0800      	lsrs	r0, r0, #32
 80076cc:	0024      	movs	r4, r4
 80076ce:	0000      	movs	r0, r0
 80076d0:	34d5      	adds	r4, #213	; 0xd5
 80076d2:	0800      	lsrs	r0, r0, #32
 80076d4:	0025      	movs	r5, r4
 80076d6:	0000      	movs	r0, r0
 80076d8:	34a5      	adds	r4, #165	; 0xa5
 80076da:	0800      	lsrs	r0, r0, #32
 80076dc:	0026      	movs	r6, r4
 80076de:	0000      	movs	r0, r0
 80076e0:	3405      	adds	r4, #5
 80076e2:	0800      	lsrs	r0, r0, #32
 80076e4:	002a      	movs	r2, r5
 80076e6:	0000      	movs	r0, r0
 80076e8:	3371      	adds	r3, #113	; 0x71
 80076ea:	0800      	lsrs	r0, r0, #32
 80076ec:	002d      	movs	r5, r5
 80076ee:	0000      	movs	r0, r0
 80076f0:	32ad      	adds	r2, #173	; 0xad
 80076f2:	0800      	lsrs	r0, r0, #32
 80076f4:	0032      	movs	r2, r6
 80076f6:	0000      	movs	r0, r0
 80076f8:	2e35      	cmp	r6, #53	; 0x35
 80076fa:	0800      	lsrs	r0, r0, #32
 80076fc:	0033      	movs	r3, r6
 80076fe:	0000      	movs	r0, r0
 8007700:	3281      	adds	r2, #129	; 0x81
 8007702:	0800      	lsrs	r0, r0, #32
 8007704:	003f      	movs	r7, r7
 8007706:	0000      	movs	r0, r0
 8007708:	3541      	adds	r5, #65	; 0x41
 800770a:	0800      	lsrs	r0, r0, #32
 800770c:	0044      	lsls	r4, r0, #1
 800770e:	0000      	movs	r0, r0
 8007710:	3225      	adds	r2, #37	; 0x25
 8007712:	0800      	lsrs	r0, r0, #32
 8007714:	0045      	lsls	r5, r0, #1
 8007716:	0000      	movs	r0, r0
 8007718:	31f9      	adds	r1, #249	; 0xf9
 800771a:	0800      	lsrs	r0, r0, #32
 800771c:	0047      	lsls	r7, r0, #1
 800771e:	0000      	movs	r0, r0
 8007720:	31c9      	adds	r1, #201	; 0xc9
 8007722:	0800      	lsrs	r0, r0, #32
 8007724:	004a      	lsls	r2, r1, #1
 8007726:	0000      	movs	r0, r0
 8007728:	3545      	adds	r5, #69	; 0x45
 800772a:	0800      	lsrs	r0, r0, #32
 800772c:	0064      	lsls	r4, r4, #1
 800772e:	0000      	movs	r0, r0
 8007730:	2e55      	cmp	r6, #85	; 0x55
 8007732:	0800      	lsrs	r0, r0, #32
 8007734:	004d      	lsls	r5, r1, #1
 8007736:	0000      	movs	r0, r0
 8007738:	3115      	adds	r1, #21
 800773a:	0800      	lsrs	r0, r0, #32
 800773c:	0056      	lsls	r6, r2, #1
 800773e:	0000      	movs	r0, r0
 8007740:	30c9      	adds	r0, #201	; 0xc9
 8007742:	0800      	lsrs	r0, r0, #32
 8007744:	0061      	lsls	r1, r4, #1
 8007746:	0000      	movs	r0, r0
 8007748:	3069      	adds	r0, #105	; 0x69
 800774a:	0800      	lsrs	r0, r0, #32
 800774c:	007b      	lsls	r3, r7, #1
 800774e:	0000      	movs	r0, r0
 8007750:	303d      	adds	r0, #61	; 0x3d
 8007752:	0800      	lsrs	r0, r0, #32
 8007754:	005c      	lsls	r4, r3, #1
 8007756:	0000      	movs	r0, r0
 8007758:	3009      	adds	r0, #9
 800775a:	0800      	lsrs	r0, r0, #32

0800775c <gstFS_CMD>:
 800775c:	0070      	lsls	r0, r6, #1
 800775e:	0000      	movs	r0, r0
 8007760:	2f91      	cmp	r7, #145	; 0x91
 8007762:	0800      	lsrs	r0, r0, #32
 8007764:	0071      	lsls	r1, r6, #1
 8007766:	0000      	movs	r0, r0
 8007768:	2f21      	cmp	r7, #33	; 0x21
 800776a:	0800      	lsrs	r0, r0, #32
 800776c:	0072      	lsls	r2, r6, #1
 800776e:	0000      	movs	r0, r0
 8007770:	3535      	adds	r5, #53	; 0x35
 8007772:	0800      	lsrs	r0, r0, #32

08007774 <gstGS_CMD>:
 8007774:	0021      	movs	r1, r4
 8007776:	0000      	movs	r0, r0
 8007778:	2ee1      	cmp	r6, #225	; 0xe1
 800777a:	0800      	lsrs	r0, r0, #32
 800777c:	0056      	lsls	r6, r2, #1
 800777e:	0000      	movs	r0, r0
 8007780:	2d61      	cmp	r5, #97	; 0x61
 8007782:	0800      	lsrs	r0, r0, #32

08007784 <gu8FeedPhase>:
 8007784:	0101      	lsls	r1, r0, #4
 8007786:	0100      	lsls	r0, r0, #4
 8007788:	0000      	movs	r0, r0
 800778a:	0001      	movs	r1, r0

0800778c <gstStandFonts>:
 800778c:	7d98      	ldrb	r0, [r3, #22]
 800778e:	0800      	lsrs	r0, r0, #32
 8007790:	0000      	movs	r0, r0
 8007792:	0000      	movs	r0, r0
 8007794:	7798      	strb	r0, [r3, #30]
 8007796:	0800      	lsrs	r0, r0, #32

08007798 <gst8x16Font>:
 8007798:	77a8      	strb	r0, [r5, #30]
 800779a:	0800      	lsrs	r0, r0, #32
 800779c:	0008      	movs	r0, r1
 800779e:	0000      	movs	r0, r0
 80077a0:	0010      	movs	r0, r2
 80077a2:	0000      	movs	r0, r0
 80077a4:	0010      	movs	r0, r2
	...

080077a8 <gu8Font_8x16>:
	...
 80077bc:	407e      	eors	r6, r7
 80077be:	e7fe      	b.n	80077be <gu8Font_8x16+0x16>
 80077c0:	407e      	eors	r6, r7
	...
 80077ca:	0013      	movs	r3, r2
 80077cc:	000f      	movs	r7, r1
 80077ce:	0000      	movs	r0, r0
 80077d0:	0013      	movs	r3, r2
 80077d2:	000f      	movs	r7, r1
 80077d4:	0000      	movs	r0, r0
 80077d6:	0000      	movs	r0, r0
 80077d8:	0400      	lsls	r0, r0, #16
 80077da:	7c10      	ldrb	r0, [r2, #16]
 80077dc:	07f0      	lsls	r0, r6, #31
 80077de:	041e      	lsls	r6, r3, #16
 80077e0:	7c10      	ldrb	r0, [r2, #16]
 80077e2:	07f0      	lsls	r0, r6, #31
 80077e4:	041e      	lsls	r6, r3, #16
 80077e6:	0010      	movs	r0, r2
 80077e8:	1c38      	adds	r0, r7, #0
 80077ea:	2444      	movs	r4, #68	; 0x44
 80077ec:	2082      	movs	r0, #130	; 0x82
 80077ee:	ffff 2082 	vaddl.u<illegal width 64>	q9, d31, d2
 80077f2:	1114      	asrs	r4, r2, #4
 80077f4:	0e18      	lsrs	r0, r3, #24
 80077f6:	0000      	movs	r0, r0
 80077f8:	c03c      	stmia	r0!, {r2, r3, r4, r5}
 80077fa:	3842      	subs	r0, #66	; 0x42
 80077fc:	0642      	lsls	r2, r0, #25
 80077fe:	3dbc      	subs	r5, #188	; 0xbc
 8007800:	4260      	negs	r0, r4
 8007802:	421c      	tst	r4, r3
 8007804:	3c03      	subs	r4, #3
 8007806:	0000      	movs	r0, r0
 8007808:	1c00      	adds	r0, r0, #0
 800780a:	233c      	movs	r3, #60	; 0x3c
 800780c:	20c2      	movs	r0, #194	; 0xc2
 800780e:	2722      	movs	r7, #34	; 0x22
 8007810:	189c      	adds	r4, r3, r2
 8007812:	1780      	asrs	r0, r0, #30
 8007814:	2080      	movs	r0, #128	; 0x80
 8007816:	0000      	movs	r0, r0
 8007818:	0013      	movs	r3, r2
 800781a:	0013      	movs	r3, r2
 800781c:	000f      	movs	r7, r1
	...
 800782e:	0ff0      	lsrs	r0, r6, #31
 8007830:	300c      	adds	r0, #12
 8007832:	4002      	ands	r2, r0
 8007834:	8001      	strh	r1, [r0, #0]
 8007836:	0000      	movs	r0, r0
 8007838:	8001      	strh	r1, [r0, #0]
 800783a:	4002      	ands	r2, r0
 800783c:	300c      	adds	r0, #12
 800783e:	0ff0      	lsrs	r0, r6, #31
	...
 8007848:	0360      	lsls	r0, r4, #13
 800784a:	0140      	lsls	r0, r0, #5
 800784c:	0490      	lsls	r0, r2, #18
 800784e:	0ff8      	lsrs	r0, r7, #31
 8007850:	0490      	lsls	r0, r2, #18
 8007852:	0140      	lsls	r0, r0, #5
 8007854:	0360      	lsls	r0, r4, #13
 8007856:	0000      	movs	r0, r0
 8007858:	0080      	lsls	r0, r0, #2
 800785a:	0080      	lsls	r0, r0, #2
 800785c:	0080      	lsls	r0, r0, #2
 800785e:	0ff8      	lsrs	r0, r7, #31
 8007860:	0080      	lsls	r0, r0, #2
 8007862:	0080      	lsls	r0, r0, #2
 8007864:	0080      	lsls	r0, r0, #2
 8007866:	0000      	movs	r0, r0
 8007868:	9800      	ldr	r0, [sp, #0]
 800786a:	9800      	ldr	r0, [sp, #0]
 800786c:	7800      	ldrb	r0, [r0, #0]
	...
 8007876:	0000      	movs	r0, r0
 8007878:	0080      	lsls	r0, r0, #2
 800787a:	0080      	lsls	r0, r0, #2
 800787c:	0080      	lsls	r0, r0, #2
 800787e:	0080      	lsls	r0, r0, #2
 8007880:	0080      	lsls	r0, r0, #2
 8007882:	0080      	lsls	r0, r0, #2
 8007884:	0080      	lsls	r0, r0, #2
 8007886:	0000      	movs	r0, r0
 8007888:	3000      	adds	r0, #0
 800788a:	7800      	ldrb	r0, [r0, #0]
 800788c:	3000      	adds	r0, #0
	...
 8007896:	0000      	movs	r0, r0
 8007898:	c000      	stmia	r0!, {}
 800789a:	3000      	adds	r0, #0
 800789c:	0c00      	lsrs	r0, r0, #16
 800789e:	0380      	lsls	r0, r0, #14
 80078a0:	0070      	lsls	r0, r6, #1
 80078a2:	000c      	movs	r4, r1
 80078a4:	0003      	movs	r3, r0
 80078a6:	0000      	movs	r0, r0
 80078a8:	0000      	movs	r0, r0
 80078aa:	0ff0      	lsrs	r0, r6, #31
 80078ac:	300c      	adds	r0, #12
 80078ae:	4002      	ands	r2, r0
 80078b0:	4002      	ands	r2, r0
 80078b2:	300c      	adds	r0, #12
 80078b4:	0ff0      	lsrs	r0, r6, #31
 80078b6:	0000      	movs	r0, r0
 80078b8:	0000      	movs	r0, r0
 80078ba:	2004      	movs	r0, #4
 80078bc:	2004      	movs	r0, #4
 80078be:	3ffe      	subs	r7, #254	; 0xfe
 80078c0:	2000      	movs	r0, #0
 80078c2:	2000      	movs	r0, #0
 80078c4:	0000      	movs	r0, r0
 80078c6:	0000      	movs	r0, r0
 80078c8:	0000      	movs	r0, r0
 80078ca:	3018      	adds	r0, #24
 80078cc:	2c14      	cmp	r4, #20
 80078ce:	2202      	movs	r2, #2
 80078d0:	2182      	movs	r1, #130	; 0x82
 80078d2:	2044      	movs	r0, #68	; 0x44
 80078d4:	3838      	subs	r0, #56	; 0x38
 80078d6:	0000      	movs	r0, r0
 80078d8:	0c18      	lsrs	r0, r3, #16
 80078da:	1004      	asrs	r4, r0, #32
 80078dc:	2082      	movs	r0, #130	; 0x82
 80078de:	2082      	movs	r0, #130	; 0x82
 80078e0:	2082      	movs	r0, #130	; 0x82
 80078e2:	1144      	asrs	r4, r0, #5
 80078e4:	0e38      	lsrs	r0, r7, #24
 80078e6:	0000      	movs	r0, r0
 80078e8:	0380      	lsls	r0, r0, #14
 80078ea:	0260      	lsls	r0, r4, #9
 80078ec:	2218      	movs	r2, #24
 80078ee:	2204      	movs	r2, #4
 80078f0:	3ffe      	subs	r7, #254	; 0xfe
 80078f2:	2200      	movs	r2, #0
 80078f4:	0200      	lsls	r0, r0, #8
 80078f6:	0000      	movs	r0, r0
 80078f8:	0cfe      	lsrs	r6, r7, #19
 80078fa:	1442      	asrs	r2, r0, #17
 80078fc:	2022      	movs	r0, #34	; 0x22
 80078fe:	2022      	movs	r0, #34	; 0x22
 8007900:	2022      	movs	r0, #34	; 0x22
 8007902:	1042      	asrs	r2, r0, #1
 8007904:	0f80      	lsrs	r0, r0, #30
 8007906:	0000      	movs	r0, r0
 8007908:	0ff0      	lsrs	r0, r6, #31
 800790a:	108c      	asrs	r4, r1, #2
 800790c:	2042      	movs	r0, #66	; 0x42
 800790e:	2042      	movs	r0, #66	; 0x42
 8007910:	2042      	movs	r0, #66	; 0x42
 8007912:	108a      	asrs	r2, r1, #2
 8007914:	0f0c      	lsrs	r4, r1, #28
 8007916:	0000      	movs	r0, r0
 8007918:	000e      	movs	r6, r1
 800791a:	0002      	movs	r2, r0
 800791c:	0002      	movs	r2, r0
 800791e:	7802      	ldrb	r2, [r0, #0]
 8007920:	0782      	lsls	r2, r0, #30
 8007922:	0072      	lsls	r2, r6, #1
 8007924:	000e      	movs	r6, r1
 8007926:	0000      	movs	r0, r0
 8007928:	0e38      	lsrs	r0, r7, #24
 800792a:	1144      	asrs	r4, r0, #5
 800792c:	2082      	movs	r0, #130	; 0x82
 800792e:	2082      	movs	r0, #130	; 0x82
 8007930:	2082      	movs	r0, #130	; 0x82
 8007932:	1144      	asrs	r4, r0, #5
 8007934:	0e38      	lsrs	r0, r7, #24
 8007936:	0000      	movs	r0, r0
 8007938:	0878      	lsrs	r0, r7, #1
 800793a:	1084      	asrs	r4, r0, #2
 800793c:	2102      	movs	r1, #2
 800793e:	2102      	movs	r1, #2
 8007940:	2102      	movs	r1, #2
 8007942:	1084      	asrs	r4, r0, #2
 8007944:	0ff8      	lsrs	r0, r7, #31
 8007946:	0000      	movs	r0, r0
 8007948:	0000      	movs	r0, r0
 800794a:	0000      	movs	r0, r0
 800794c:	3060      	adds	r0, #96	; 0x60
 800794e:	3060      	adds	r0, #96	; 0x60
 8007950:	3060      	adds	r0, #96	; 0x60
	...
 800795a:	0000      	movs	r0, r0
 800795c:	9860      	ldr	r0, [sp, #384]	; 0x180
 800795e:	f860 3860 	str??.w	r3, [r0, <undefined>]
	...
 800796a:	0000      	movs	r0, r0
 800796c:	0180      	lsls	r0, r0, #6
 800796e:	0660      	lsls	r0, r4, #25
 8007970:	1818      	adds	r0, r3, r0
 8007972:	6006      	str	r6, [r0, #0]
 8007974:	8001      	strh	r1, [r0, #0]
 8007976:	0000      	movs	r0, r0
 8007978:	0220      	lsls	r0, r4, #8
 800797a:	0220      	lsls	r0, r4, #8
 800797c:	0220      	lsls	r0, r4, #8
 800797e:	0220      	lsls	r0, r4, #8
 8007980:	0220      	lsls	r0, r4, #8
 8007982:	0220      	lsls	r0, r4, #8
 8007984:	0220      	lsls	r0, r4, #8
 8007986:	0000      	movs	r0, r0
 8007988:	8001      	strh	r1, [r0, #0]
 800798a:	6006      	str	r6, [r0, #0]
 800798c:	1818      	adds	r0, r3, r0
 800798e:	0660      	lsls	r0, r4, #25
 8007990:	0180      	lsls	r0, r0, #6
 8007992:	0000      	movs	r0, r0
 8007994:	0000      	movs	r0, r0
 8007996:	0000      	movs	r0, r0
 8007998:	0018      	movs	r0, r3
 800799a:	0014      	movs	r4, r2
 800799c:	4002      	ands	r2, r0
 800799e:	e602      	b.n	80075a6 <product_string+0x6a>
 80079a0:	4102      	asrs	r2, r0
 80079a2:	00c4      	lsls	r4, r0, #3
 80079a4:	0038      	movs	r0, r7
 80079a6:	0000      	movs	r0, r0
 80079a8:	0ff8      	lsrs	r0, r7, #31
 80079aa:	1004      	asrs	r4, r0, #32
 80079ac:	23e2      	movs	r3, #226	; 0xe2
 80079ae:	2412      	movs	r4, #18
 80079b0:	2412      	movs	r4, #18
 80079b2:	2222      	movs	r2, #34	; 0x22
 80079b4:	17fc      	asrs	r4, r7, #31
 80079b6:	0000      	movs	r0, r0
 80079b8:	3c00      	subs	r4, #0
 80079ba:	23e0      	movs	r3, #224	; 0xe0
 80079bc:	021c      	lsls	r4, r3, #8
 80079be:	0202      	lsls	r2, r0, #8
 80079c0:	021c      	lsls	r4, r3, #8
 80079c2:	23e0      	movs	r3, #224	; 0xe0
 80079c4:	3c00      	subs	r4, #0
 80079c6:	0000      	movs	r0, r0
 80079c8:	2002      	movs	r0, #2
 80079ca:	3ffe      	subs	r7, #254	; 0xfe
 80079cc:	2082      	movs	r0, #130	; 0x82
 80079ce:	2082      	movs	r0, #130	; 0x82
 80079d0:	2082      	movs	r0, #130	; 0x82
 80079d2:	2144      	movs	r1, #68	; 0x44
 80079d4:	1e38      	subs	r0, r7, #0
 80079d6:	0000      	movs	r0, r0
 80079d8:	07f0      	lsls	r0, r6, #31
 80079da:	180c      	adds	r4, r1, r0
 80079dc:	2002      	movs	r0, #2
 80079de:	2002      	movs	r0, #2
 80079e0:	2002      	movs	r0, #2
 80079e2:	2004      	movs	r0, #4
 80079e4:	1c0e      	adds	r6, r1, #0
 80079e6:	0000      	movs	r0, r0
 80079e8:	2002      	movs	r0, #2
 80079ea:	3ffe      	subs	r7, #254	; 0xfe
 80079ec:	2002      	movs	r0, #2
 80079ee:	2002      	movs	r0, #2
 80079f0:	2002      	movs	r0, #2
 80079f2:	180c      	adds	r4, r1, r0
 80079f4:	07f0      	lsls	r0, r6, #31
 80079f6:	0000      	movs	r0, r0
 80079f8:	2002      	movs	r0, #2
 80079fa:	3ffe      	subs	r7, #254	; 0xfe
 80079fc:	2082      	movs	r0, #130	; 0x82
 80079fe:	2082      	movs	r0, #130	; 0x82
 8007a00:	23e2      	movs	r3, #226	; 0xe2
 8007a02:	2002      	movs	r0, #2
 8007a04:	3c0e      	subs	r4, #14
 8007a06:	0000      	movs	r0, r0
 8007a08:	2002      	movs	r0, #2
 8007a0a:	3ffe      	subs	r7, #254	; 0xfe
 8007a0c:	2082      	movs	r0, #130	; 0x82
 8007a0e:	2082      	movs	r0, #130	; 0x82
 8007a10:	03e2      	lsls	r2, r4, #15
 8007a12:	0002      	movs	r2, r0
 8007a14:	000e      	movs	r6, r1
 8007a16:	0000      	movs	r0, r0
 8007a18:	07e0      	lsls	r0, r4, #31
 8007a1a:	1818      	adds	r0, r3, r0
 8007a1c:	1004      	asrs	r4, r0, #32
 8007a1e:	2002      	movs	r0, #2
 8007a20:	2082      	movs	r0, #130	; 0x82
 8007a22:	1084      	asrs	r4, r0, #2
 8007a24:	3f8e      	subs	r7, #142	; 0x8e
 8007a26:	0080      	lsls	r0, r0, #2
 8007a28:	2002      	movs	r0, #2
 8007a2a:	3ffe      	subs	r7, #254	; 0xfe
 8007a2c:	2042      	movs	r0, #66	; 0x42
 8007a2e:	0040      	lsls	r0, r0, #1
 8007a30:	0040      	lsls	r0, r0, #1
 8007a32:	2042      	movs	r0, #66	; 0x42
 8007a34:	3ffe      	subs	r7, #254	; 0xfe
 8007a36:	2002      	movs	r0, #2
 8007a38:	2002      	movs	r0, #2
 8007a3a:	2002      	movs	r0, #2
 8007a3c:	2002      	movs	r0, #2
 8007a3e:	3ffe      	subs	r7, #254	; 0xfe
 8007a40:	2002      	movs	r0, #2
 8007a42:	2002      	movs	r0, #2
 8007a44:	2002      	movs	r0, #2
 8007a46:	0000      	movs	r0, r0
 8007a48:	0e00      	lsrs	r0, r0, #24
 8007a4a:	1000      	asrs	r0, r0, #32
 8007a4c:	2000      	movs	r0, #0
 8007a4e:	2002      	movs	r0, #2
 8007a50:	2002      	movs	r0, #2
 8007a52:	1002      	asrs	r2, r0, #32
 8007a54:	0ffe      	lsrs	r6, r7, #31
 8007a56:	0002      	movs	r2, r0
 8007a58:	2002      	movs	r0, #2
 8007a5a:	3ffe      	subs	r7, #254	; 0xfe
 8007a5c:	2042      	movs	r0, #66	; 0x42
 8007a5e:	00c0      	lsls	r0, r0, #3
 8007a60:	0330      	lsls	r0, r6, #12
 8007a62:	0c0e      	lsrs	r6, r1, #16
 8007a64:	3002      	adds	r0, #2
 8007a66:	2000      	movs	r0, #0
 8007a68:	2002      	movs	r0, #2
 8007a6a:	3ffe      	subs	r7, #254	; 0xfe
 8007a6c:	2002      	movs	r0, #2
 8007a6e:	2002      	movs	r0, #2
 8007a70:	2000      	movs	r0, #0
 8007a72:	2000      	movs	r0, #0
 8007a74:	3c00      	subs	r4, #0
 8007a76:	0000      	movs	r0, r0
 8007a78:	3ffe      	subs	r7, #254	; 0xfe
 8007a7a:	2004      	movs	r0, #4
 8007a7c:	0038      	movs	r0, r7
 8007a7e:	01c0      	lsls	r0, r0, #7
 8007a80:	0038      	movs	r0, r7
 8007a82:	2004      	movs	r0, #4
 8007a84:	3ffe      	subs	r7, #254	; 0xfe
 8007a86:	0000      	movs	r0, r0
 8007a88:	3ffe      	subs	r7, #254	; 0xfe
 8007a8a:	2004      	movs	r0, #4
 8007a8c:	0038      	movs	r0, r7
 8007a8e:	01c0      	lsls	r0, r0, #7
 8007a90:	0e00      	lsrs	r0, r0, #24
 8007a92:	1002      	asrs	r2, r0, #32
 8007a94:	3ffe      	subs	r7, #254	; 0xfe
 8007a96:	0002      	movs	r2, r0
 8007a98:	0ff8      	lsrs	r0, r7, #31
 8007a9a:	1004      	asrs	r4, r0, #32
 8007a9c:	2002      	movs	r0, #2
 8007a9e:	2002      	movs	r0, #2
 8007aa0:	2002      	movs	r0, #2
 8007aa2:	1004      	asrs	r4, r0, #32
 8007aa4:	0ff8      	lsrs	r0, r7, #31
 8007aa6:	0000      	movs	r0, r0
 8007aa8:	2002      	movs	r0, #2
 8007aaa:	3ffe      	subs	r7, #254	; 0xfe
 8007aac:	2102      	movs	r1, #2
 8007aae:	2102      	movs	r1, #2
 8007ab0:	0102      	lsls	r2, r0, #4
 8007ab2:	0084      	lsls	r4, r0, #2
 8007ab4:	0078      	lsls	r0, r7, #1
 8007ab6:	0000      	movs	r0, r0
 8007ab8:	07f0      	lsls	r0, r6, #31
 8007aba:	180c      	adds	r4, r1, r0
 8007abc:	2402      	movs	r4, #2
 8007abe:	2402      	movs	r4, #2
 8007ac0:	6402      	str	r2, [r0, #64]	; 0x40
 8007ac2:	980c      	ldr	r0, [sp, #48]	; 0x30
 8007ac4:	87f0      	strh	r0, [r6, #62]	; 0x3e
 8007ac6:	0000      	movs	r0, r0
 8007ac8:	2002      	movs	r0, #2
 8007aca:	3ffe      	subs	r7, #254	; 0xfe
 8007acc:	2082      	movs	r0, #130	; 0x82
 8007ace:	0082      	lsls	r2, r0, #2
 8007ad0:	0182      	lsls	r2, r0, #6
 8007ad2:	0e44      	lsrs	r4, r0, #25
 8007ad4:	3038      	adds	r0, #56	; 0x38
 8007ad6:	2000      	movs	r0, #0
 8007ad8:	3e38      	subs	r6, #56	; 0x38
 8007ada:	1044      	asrs	r4, r0, #1
 8007adc:	2042      	movs	r0, #66	; 0x42
 8007ade:	2082      	movs	r0, #130	; 0x82
 8007ae0:	2084      	movs	r0, #132	; 0x84
 8007ae2:	110e      	asrs	r6, r1, #4
 8007ae4:	0e00      	lsrs	r0, r0, #24
 8007ae6:	0000      	movs	r0, r0
 8007ae8:	000e      	movs	r6, r1
 8007aea:	2002      	movs	r0, #2
 8007aec:	2002      	movs	r0, #2
 8007aee:	3ffe      	subs	r7, #254	; 0xfe
 8007af0:	2002      	movs	r0, #2
 8007af2:	2002      	movs	r0, #2
 8007af4:	000e      	movs	r6, r1
 8007af6:	0000      	movs	r0, r0
 8007af8:	0002      	movs	r2, r0
 8007afa:	1ffe      	subs	r6, r7, #7
 8007afc:	2002      	movs	r0, #2
 8007afe:	2000      	movs	r0, #0
 8007b00:	2000      	movs	r0, #0
 8007b02:	2002      	movs	r0, #2
 8007b04:	1ffe      	subs	r6, r7, #7
 8007b06:	0002      	movs	r2, r0
 8007b08:	003e      	movs	r6, r7
 8007b0a:	03c2      	lsls	r2, r0, #15
 8007b0c:	0c00      	lsrs	r0, r0, #16
 8007b0e:	3000      	adds	r0, #0
 8007b10:	0c00      	lsrs	r0, r0, #16
 8007b12:	03c2      	lsls	r2, r0, #15
 8007b14:	003e      	movs	r6, r7
 8007b16:	0000      	movs	r0, r0
 8007b18:	07fe      	lsls	r6, r7, #31
 8007b1a:	3802      	subs	r0, #2
 8007b1c:	0700      	lsls	r0, r0, #28
 8007b1e:	00e0      	lsls	r0, r4, #3
 8007b20:	0700      	lsls	r0, r0, #28
 8007b22:	3802      	subs	r0, #2
 8007b24:	07fe      	lsls	r6, r7, #31
 8007b26:	0000      	movs	r0, r0
 8007b28:	3002      	adds	r0, #2
 8007b2a:	2c0e      	cmp	r4, #14
 8007b2c:	03b2      	lsls	r2, r6, #14
 8007b2e:	0040      	lsls	r0, r0, #1
 8007b30:	03b2      	lsls	r2, r6, #14
 8007b32:	2c0e      	cmp	r4, #14
 8007b34:	3002      	adds	r0, #2
 8007b36:	0000      	movs	r0, r0
 8007b38:	0006      	movs	r6, r0
 8007b3a:	203a      	movs	r0, #58	; 0x3a
 8007b3c:	20c0      	movs	r0, #192	; 0xc0
 8007b3e:	3f00      	subs	r7, #0
 8007b40:	20c0      	movs	r0, #192	; 0xc0
 8007b42:	203a      	movs	r0, #58	; 0x3a
 8007b44:	0006      	movs	r6, r0
 8007b46:	0000      	movs	r0, r0
 8007b48:	300e      	adds	r0, #14
 8007b4a:	2c02      	cmp	r4, #2
 8007b4c:	2302      	movs	r3, #2
 8007b4e:	20e2      	movs	r0, #226	; 0xe2
 8007b50:	201a      	movs	r0, #26
 8007b52:	2006      	movs	r0, #6
 8007b54:	3c02      	subs	r4, #2
	...
 8007b5e:	ffff 8001 	vaddl.u<illegal width 64>	q12, d15, d1
 8007b62:	8001      	strh	r1, [r0, #0]
 8007b64:	8001      	strh	r1, [r0, #0]
 8007b66:	0000      	movs	r0, r0
 8007b68:	0006      	movs	r6, r0
 8007b6a:	0018      	movs	r0, r3
 8007b6c:	0060      	lsls	r0, r4, #1
 8007b6e:	0180      	lsls	r0, r0, #6
 8007b70:	0600      	lsls	r0, r0, #24
 8007b72:	1800      	adds	r0, r0, r0
 8007b74:	6000      	str	r0, [r0, #0]
 8007b76:	0000      	movs	r0, r0
 8007b78:	8001      	strh	r1, [r0, #0]
 8007b7a:	8001      	strh	r1, [r0, #0]
 8007b7c:	8001      	strh	r1, [r0, #0]
 8007b7e:	ffff 0000 	vaddl.u<illegal width 64>	q8, d15, d0
 8007b82:	0000      	movs	r0, r0
 8007b84:	0000      	movs	r0, r0
 8007b86:	0000      	movs	r0, r0
 8007b88:	0008      	movs	r0, r1
 8007b8a:	0004      	movs	r4, r0
 8007b8c:	0002      	movs	r2, r0
 8007b8e:	0001      	movs	r1, r0
 8007b90:	0002      	movs	r2, r0
 8007b92:	0004      	movs	r4, r0
 8007b94:	0008      	movs	r0, r1
 8007b96:	0000      	movs	r0, r0
 8007b98:	8000      	strh	r0, [r0, #0]
 8007b9a:	8000      	strh	r0, [r0, #0]
 8007b9c:	8000      	strh	r0, [r0, #0]
 8007b9e:	8000      	strh	r0, [r0, #0]
 8007ba0:	8000      	strh	r0, [r0, #0]
 8007ba2:	8000      	strh	r0, [r0, #0]
 8007ba4:	8000      	strh	r0, [r0, #0]
 8007ba6:	0000      	movs	r0, r0
 8007ba8:	0000      	movs	r0, r0
 8007baa:	0000      	movs	r0, r0
 8007bac:	000f      	movs	r7, r1
 8007bae:	0013      	movs	r3, r2
	...
 8007bb8:	1c00      	adds	r0, r0, #0
 8007bba:	2240      	movs	r2, #64	; 0x40
 8007bbc:	2120      	movs	r1, #32
 8007bbe:	2120      	movs	r1, #32
 8007bc0:	2120      	movs	r1, #32
 8007bc2:	1120      	asrs	r0, r4, #4
 8007bc4:	3fc0      	subs	r7, #192	; 0xc0
 8007bc6:	2000      	movs	r0, #0
 8007bc8:	0002      	movs	r2, r0
 8007bca:	3ffe      	subs	r7, #254	; 0xfe
 8007bcc:	2020      	movs	r0, #32
 8007bce:	2020      	movs	r0, #32
 8007bd0:	2020      	movs	r0, #32
 8007bd2:	1040      	asrs	r0, r0, #1
 8007bd4:	0f80      	lsrs	r0, r0, #30
 8007bd6:	0000      	movs	r0, r0
 8007bd8:	0f80      	lsrs	r0, r0, #30
 8007bda:	1040      	asrs	r0, r0, #1
 8007bdc:	2020      	movs	r0, #32
 8007bde:	2020      	movs	r0, #32
 8007be0:	2020      	movs	r0, #32
 8007be2:	2040      	movs	r0, #64	; 0x40
 8007be4:	18e0      	adds	r0, r4, r3
 8007be6:	0000      	movs	r0, r0
 8007be8:	0f80      	lsrs	r0, r0, #30
 8007bea:	1040      	asrs	r0, r0, #1
 8007bec:	2020      	movs	r0, #32
 8007bee:	2020      	movs	r0, #32
 8007bf0:	2020      	movs	r0, #32
 8007bf2:	3ffe      	subs	r7, #254	; 0xfe
 8007bf4:	2002      	movs	r0, #2
 8007bf6:	0000      	movs	r0, r0
 8007bf8:	0f80      	lsrs	r0, r0, #30
 8007bfa:	1140      	asrs	r0, r0, #5
 8007bfc:	2120      	movs	r1, #32
 8007bfe:	2120      	movs	r1, #32
 8007c00:	2120      	movs	r1, #32
 8007c02:	2140      	movs	r1, #64	; 0x40
 8007c04:	1980      	adds	r0, r0, r6
 8007c06:	0000      	movs	r0, r0
 8007c08:	0020      	movs	r0, r4
 8007c0a:	2020      	movs	r0, #32
 8007c0c:	2020      	movs	r0, #32
 8007c0e:	3ffc      	subs	r7, #252	; 0xfc
 8007c10:	2022      	movs	r0, #34	; 0x22
 8007c12:	2022      	movs	r0, #34	; 0x22
 8007c14:	0022      	movs	r2, r4
 8007c16:	0004      	movs	r4, r0
 8007c18:	7000      	strb	r0, [r0, #0]
 8007c1a:	8dc0      	ldrh	r0, [r0, #46]	; 0x2e
 8007c1c:	8a20      	ldrh	r0, [r4, #16]
 8007c1e:	8a20      	ldrh	r0, [r4, #16]
 8007c20:	8a20      	ldrh	r0, [r4, #16]
 8007c22:	91c0      	str	r1, [sp, #768]	; 0x300
 8007c24:	6020      	str	r0, [r4, #0]
 8007c26:	0020      	movs	r0, r4
 8007c28:	2002      	movs	r0, #2
 8007c2a:	3ffe      	subs	r7, #254	; 0xfe
 8007c2c:	2040      	movs	r0, #64	; 0x40
 8007c2e:	0020      	movs	r0, r4
 8007c30:	0020      	movs	r0, r4
 8007c32:	2020      	movs	r0, #32
 8007c34:	3fc0      	subs	r7, #192	; 0xc0
 8007c36:	2000      	movs	r0, #0
 8007c38:	2000      	movs	r0, #0
 8007c3a:	2020      	movs	r0, #32
 8007c3c:	2020      	movs	r0, #32
 8007c3e:	2023      	movs	r0, #35	; 0x23
 8007c40:	3fe3      	subs	r7, #227	; 0xe3
 8007c42:	2000      	movs	r0, #0
 8007c44:	2000      	movs	r0, #0
 8007c46:	2000      	movs	r0, #0
 8007c48:	3000      	adds	r0, #0
 8007c4a:	4000      	ands	r0, r0
 8007c4c:	8020      	strh	r0, [r4, #0]
 8007c4e:	8020      	strh	r0, [r4, #0]
 8007c50:	8020      	strh	r0, [r4, #0]
 8007c52:	4023      	ands	r3, r4
 8007c54:	3fe3      	subs	r7, #227	; 0xe3
 8007c56:	0000      	movs	r0, r0
 8007c58:	2002      	movs	r0, #2
 8007c5a:	3ffe      	subs	r7, #254	; 0xfe
 8007c5c:	2200      	movs	r2, #0
 8007c5e:	0100      	lsls	r0, r0, #4
 8007c60:	0180      	lsls	r0, r0, #6
 8007c62:	0640      	lsls	r0, r0, #25
 8007c64:	3820      	subs	r0, #32
 8007c66:	2000      	movs	r0, #0
 8007c68:	2000      	movs	r0, #0
 8007c6a:	2002      	movs	r0, #2
 8007c6c:	2002      	movs	r0, #2
 8007c6e:	2002      	movs	r0, #2
 8007c70:	3ffe      	subs	r7, #254	; 0xfe
 8007c72:	2000      	movs	r0, #0
 8007c74:	2000      	movs	r0, #0
 8007c76:	2000      	movs	r0, #0
 8007c78:	3fc0      	subs	r7, #192	; 0xc0
 8007c7a:	2020      	movs	r0, #32
 8007c7c:	0020      	movs	r0, r4
 8007c7e:	3fc0      	subs	r7, #192	; 0xc0
 8007c80:	2020      	movs	r0, #32
 8007c82:	0020      	movs	r0, r4
 8007c84:	3fc0      	subs	r7, #192	; 0xc0
 8007c86:	2000      	movs	r0, #0
 8007c88:	2020      	movs	r0, #32
 8007c8a:	3fe0      	subs	r7, #224	; 0xe0
 8007c8c:	2040      	movs	r0, #64	; 0x40
 8007c8e:	0020      	movs	r0, r4
 8007c90:	0020      	movs	r0, r4
 8007c92:	2020      	movs	r0, #32
 8007c94:	3fc0      	subs	r7, #192	; 0xc0
 8007c96:	2000      	movs	r0, #0
 8007c98:	0f80      	lsrs	r0, r0, #30
 8007c9a:	1040      	asrs	r0, r0, #1
 8007c9c:	2020      	movs	r0, #32
 8007c9e:	2020      	movs	r0, #32
 8007ca0:	2020      	movs	r0, #32
 8007ca2:	1040      	asrs	r0, r0, #1
 8007ca4:	0f80      	lsrs	r0, r0, #30
 8007ca6:	0000      	movs	r0, r0
 8007ca8:	8020      	strh	r0, [r4, #0]
 8007caa:	ffe0 9020 	vaddl.u32	<illegal reg q12.5>, d0, d16
 8007cae:	9020      	str	r0, [sp, #128]	; 0x80
 8007cb0:	1020      	asrs	r0, r4, #32
 8007cb2:	0840      	lsrs	r0, r0, #1
 8007cb4:	0780      	lsls	r0, r0, #30
 8007cb6:	0000      	movs	r0, r0
 8007cb8:	0780      	lsls	r0, r0, #30
 8007cba:	0840      	lsrs	r0, r0, #1
 8007cbc:	1020      	asrs	r0, r4, #32
 8007cbe:	9020      	str	r0, [sp, #128]	; 0x80
 8007cc0:	9020      	str	r0, [sp, #128]	; 0x80
 8007cc2:	ffe0 8020 	vaddl.u32	q12, d0, d16
 8007cc6:	0000      	movs	r0, r0
 8007cc8:	2020      	movs	r0, #32
 8007cca:	2020      	movs	r0, #32
 8007ccc:	3fe0      	subs	r7, #224	; 0xe0
 8007cce:	2040      	movs	r0, #64	; 0x40
 8007cd0:	2020      	movs	r0, #32
 8007cd2:	2020      	movs	r0, #32
 8007cd4:	00c0      	lsls	r0, r0, #3
 8007cd6:	0000      	movs	r0, r0
 8007cd8:	3800      	subs	r0, #0
 8007cda:	11c0      	asrs	r0, r0, #7
 8007cdc:	2220      	movs	r2, #32
 8007cde:	2220      	movs	r2, #32
 8007ce0:	2220      	movs	r2, #32
 8007ce2:	2240      	movs	r2, #64	; 0x40
 8007ce4:	1ce0      	adds	r0, r4, #3
 8007ce6:	0000      	movs	r0, r0
 8007ce8:	0020      	movs	r0, r4
 8007cea:	0020      	movs	r0, r4
 8007cec:	1ffc      	subs	r4, r7, #7
 8007cee:	2020      	movs	r0, #32
 8007cf0:	2020      	movs	r0, #32
 8007cf2:	2020      	movs	r0, #32
 8007cf4:	1800      	adds	r0, r0, r0
 8007cf6:	0000      	movs	r0, r0
 8007cf8:	0020      	movs	r0, r4
 8007cfa:	1fe0      	subs	r0, r4, #7
 8007cfc:	2000      	movs	r0, #0
 8007cfe:	2000      	movs	r0, #0
 8007d00:	2000      	movs	r0, #0
 8007d02:	1020      	asrs	r0, r4, #32
 8007d04:	1fe0      	subs	r0, r4, #7
 8007d06:	2000      	movs	r0, #0
 8007d08:	00e0      	lsls	r0, r4, #3
 8007d0a:	0720      	lsls	r0, r4, #28
 8007d0c:	1800      	adds	r0, r0, r0
 8007d0e:	2000      	movs	r0, #0
 8007d10:	1800      	adds	r0, r0, r0
 8007d12:	0720      	lsls	r0, r4, #28
 8007d14:	00e0      	lsls	r0, r4, #3
 8007d16:	0000      	movs	r0, r0
 8007d18:	07e0      	lsls	r0, r4, #31
 8007d1a:	3800      	subs	r0, #0
 8007d1c:	0600      	lsls	r0, r0, #24
 8007d1e:	01e0      	lsls	r0, r4, #7
 8007d20:	0600      	lsls	r0, r0, #24
 8007d22:	3800      	subs	r0, #0
 8007d24:	07e0      	lsls	r0, r4, #31
 8007d26:	0000      	movs	r0, r0
 8007d28:	2020      	movs	r0, #32
 8007d2a:	3060      	adds	r0, #96	; 0x60
 8007d2c:	2da0      	cmp	r5, #160	; 0xa0
 8007d2e:	0200      	lsls	r0, r0, #8
 8007d30:	2da0      	cmp	r5, #160	; 0xa0
 8007d32:	3060      	adds	r0, #96	; 0x60
 8007d34:	2020      	movs	r0, #32
 8007d36:	0000      	movs	r0, r0
 8007d38:	6020      	str	r0, [r4, #0]
 8007d3a:	8060      	strh	r0, [r4, #2]
 8007d3c:	41a0      	sbcs	r0, r4
 8007d3e:	3200      	adds	r2, #0
 8007d40:	0c00      	lsrs	r0, r0, #16
 8007d42:	0320      	lsls	r0, r4, #12
 8007d44:	00e0      	lsls	r0, r4, #3
 8007d46:	0020      	movs	r0, r4
 8007d48:	2000      	movs	r0, #0
 8007d4a:	3060      	adds	r0, #96	; 0x60
 8007d4c:	2820      	cmp	r0, #32
 8007d4e:	2620      	movs	r6, #32
 8007d50:	21a0      	movs	r1, #160	; 0xa0
 8007d52:	2060      	movs	r0, #96	; 0x60
 8007d54:	3820      	subs	r0, #32
 8007d56:	0000      	movs	r0, r0
 8007d58:	0000      	movs	r0, r0
 8007d5a:	0000      	movs	r0, r0
 8007d5c:	0080      	lsls	r0, r0, #2
 8007d5e:	0140      	lsls	r0, r0, #5
 8007d60:	7e3e      	ldrb	r6, [r7, #24]
 8007d62:	8001      	strh	r1, [r0, #0]
 8007d64:	8001      	strh	r1, [r0, #0]
	...
 8007d6e:	ffff 0000 	vaddl.u<illegal width 64>	q8, d15, d0
 8007d72:	0000      	movs	r0, r0
 8007d74:	0000      	movs	r0, r0
 8007d76:	0000      	movs	r0, r0
 8007d78:	8001      	strh	r1, [r0, #0]
 8007d7a:	8001      	strh	r1, [r0, #0]
 8007d7c:	7e3e      	ldrb	r6, [r7, #24]
 8007d7e:	0140      	lsls	r0, r0, #5
 8007d80:	0080      	lsls	r0, r0, #2
 8007d82:	0000      	movs	r0, r0
 8007d84:	0000      	movs	r0, r0
 8007d86:	0000      	movs	r0, r0
 8007d88:	0002      	movs	r2, r0
 8007d8a:	0001      	movs	r1, r0
 8007d8c:	0001      	movs	r1, r0
 8007d8e:	0002      	movs	r2, r0
 8007d90:	0004      	movs	r4, r0
 8007d92:	0004      	movs	r4, r0
 8007d94:	0002      	movs	r2, r0
	...

08007d98 <gst12x24Font>:
 8007d98:	7da8      	ldrb	r0, [r5, #22]
 8007d9a:	0800      	lsrs	r0, r0, #32
 8007d9c:	000c      	movs	r4, r1
 8007d9e:	0000      	movs	r0, r0
 8007da0:	0018      	movs	r0, r3
 8007da2:	0000      	movs	r0, r0
 8007da4:	0024      	movs	r4, r4
	...

08007da8 <gu8Font12x24>:
	...
 8007dd8:	07fc      	lsls	r4, r7, #31
 8007dda:	fc1c 1cff 	ldc2	12, cr1, [ip], {255}	; 0xff
 8007dde:	07fc      	lsls	r4, r7, #31
 8007de0:	001c      	movs	r4, r3
	...
 8007df2:	2300      	movs	r3, #0
 8007df4:	0000      	movs	r0, r0
 8007df6:	001f      	movs	r7, r3
 8007df8:	0f00      	lsrs	r0, r0, #28
	...
 8007e02:	0023      	movs	r3, r4
 8007e04:	1f00      	subs	r0, r0, #4
 8007e06:	0000      	movs	r0, r0
 8007e08:	000f      	movs	r7, r1
	...
 8007e12:	0000      	movs	r0, r0
 8007e14:	8000      	strh	r0, [r0, #0]
 8007e16:	8001      	strh	r1, [r0, #0]
 8007e18:	0181      	lsls	r1, r0, #6
 8007e1a:	8180      	strh	r0, [r0, #12]
 8007e1c:	807f      	strh	r7, [r7, #2]
 8007e1e:	01ff      	lsls	r7, r7, #7
 8007e20:	81fe      	strh	r6, [r7, #14]
 8007e22:	8001      	strh	r1, [r0, #0]
 8007e24:	0181      	lsls	r1, r0, #6
 8007e26:	8180      	strh	r0, [r0, #12]
 8007e28:	807f      	strh	r7, [r7, #2]
 8007e2a:	01ff      	lsls	r7, r7, #7
 8007e2c:	81fe      	strh	r6, [r7, #14]
 8007e2e:	8001      	strh	r1, [r0, #0]
 8007e30:	0181      	lsls	r1, r0, #6
 8007e32:	0180      	lsls	r0, r0, #6
 8007e34:	0000      	movs	r0, r0
 8007e36:	0000      	movs	r0, r0
 8007e38:	03e0      	lsls	r0, r4, #15
 8007e3a:	f006 0e07 	and.w	lr, r6, #7
 8007e3e:	0610      	lsls	r0, r2, #24
 8007e40:	0808      	lsrs	r0, r1, #32
 8007e42:	100c      	asrs	r4, r1, #32
 8007e44:	0c08      	lsrs	r0, r1, #16
 8007e46:	fe10 7fff 	mrc2	15, 0, r7, cr0, cr15, {7}
 8007e4a:	1808      	adds	r0, r1, r0
 8007e4c:	0810      	lsrs	r0, r2, #32
 8007e4e:	1018      	asrs	r0, r3, #32
 8007e50:	3010      	adds	r0, #16
 8007e52:	7008      	strb	r0, [r1, #0]
 8007e54:	0ff0      	lsrs	r0, r6, #31
 8007e56:	e060      	b.n	8007f1a <gu8Font12x24+0x172>
 8007e58:	0007      	movs	r7, r0
 8007e5a:	0000      	movs	r0, r0
 8007e5c:	007c      	lsls	r4, r7, #1
 8007e5e:	fe60 1800 	vcmla.f16	d17, d0, d0[0], #180
 8007e62:	0082      	lsls	r2, r0, #2
 8007e64:	8206      	strh	r6, [r0, #16]
 8007e66:	0180      	lsls	r0, r0, #6
 8007e68:	60fe      	str	r6, [r7, #12]
 8007e6a:	7c00      	ldrb	r0, [r0, #16]
 8007e6c:	3e18      	subs	r6, #24
 8007e6e:	0600      	lsls	r0, r0, #24
 8007e70:	807f      	strh	r7, [r7, #2]
 8007e72:	4101      	asrs	r1, r0
 8007e74:	0060      	lsls	r0, r4, #1
 8007e76:	1841      	adds	r1, r0, r1
 8007e78:	7f00      	ldrb	r0, [r0, #28]
 8007e7a:	0006      	movs	r6, r0
 8007e7c:	003e      	movs	r6, r7
 8007e7e:	0000      	movs	r0, r0
 8007e80:	c000      	stmia	r0!, {}
 8007e82:	f007 0fe1 	and.w	pc, r7, #225	; 0xe1
 8007e86:	13f8      	asrs	r0, r7, #15
 8007e88:	0418      	lsls	r0, r3, #16
 8007e8a:	100e      	asrs	r6, r1, #32
 8007e8c:	1c04      	adds	r4, r0, #0
 8007e8e:	0410      	lsls	r0, r2, #16
 8007e90:	1073      	asrs	r3, r6, #1
 8007e92:	c184      	stmia	r1!, {r2, r7}
 8007e94:	f810 1b80 	ldrb.w	r1, [r0], #128
 8007e98:	0070      	lsls	r0, r6, #1
 8007e9a:	000e      	movs	r6, r1
 8007e9c:	1b40      	subs	r0, r0, r5
 8007e9e:	c000      	stmia	r0!, {}
 8007ea0:	0011      	movs	r1, r2
	...
 8007eaa:	0000      	movs	r0, r0
 8007eac:	2300      	movs	r3, #0
 8007eae:	0000      	movs	r0, r0
 8007eb0:	001f      	movs	r7, r3
 8007eb2:	0f00      	lsrs	r0, r0, #28
	...
 8007ed4:	7e00      	ldrb	r0, [r0, #24]
 8007ed6:	c000      	stmia	r0!, {}
 8007ed8:	03ff      	lsls	r7, r7, #15
 8007eda:	00f0      	lsls	r0, r6, #3
 8007edc:	1c0f      	adds	r7, r1, #0
 8007ede:	3800      	subs	r0, #0
 8007ee0:	0006      	movs	r6, r0
 8007ee2:	0160      	lsls	r0, r4, #5
 8007ee4:	8000      	strh	r0, [r0, #0]
	...
 8007eee:	0100      	lsls	r0, r0, #4
 8007ef0:	8000      	strh	r0, [r0, #0]
 8007ef2:	0006      	movs	r6, r0
 8007ef4:	1c60      	adds	r0, r4, #1
 8007ef6:	3800      	subs	r0, #0
 8007ef8:	00f0      	lsls	r0, r6, #3
 8007efa:	c00f      	stmia	r0!, {r0, r1, r2, r3}
 8007efc:	03ff      	lsls	r7, r7, #15
 8007efe:	7e00      	ldrb	r0, [r0, #24]
	...
 8007f10:	c300      	stmia	r3!, {}
 8007f12:	0000      	movs	r0, r0
 8007f14:	00c3      	lsls	r3, r0, #3
 8007f16:	6600      	str	r0, [r0, #96]	; 0x60
 8007f18:	0000      	movs	r0, r0
 8007f1a:	0024      	movs	r4, r4
 8007f1c:	ffc0 c003 	vaddl.u8	q14, d0, d3
 8007f20:	03ff      	lsls	r7, r7, #15
 8007f22:	2400      	movs	r4, #0
 8007f24:	0000      	movs	r0, r0
 8007f26:	0066      	lsls	r6, r4, #1
 8007f28:	c300      	stmia	r3!, {}
 8007f2a:	0000      	movs	r0, r0
 8007f2c:	00c3      	lsls	r3, r0, #3
	...
 8007f36:	0000      	movs	r0, r0
 8007f38:	0018      	movs	r0, r3
 8007f3a:	1800      	adds	r0, r0, r0
 8007f3c:	0000      	movs	r0, r0
 8007f3e:	0018      	movs	r0, r3
 8007f40:	1800      	adds	r0, r0, r0
 8007f42:	e000      	b.n	8007f46 <gu8Font12x24+0x19e>
 8007f44:	07ff      	lsls	r7, r7, #31
 8007f46:	ffe0 0007 	vaddl.u32	q8, d0, d7
 8007f4a:	0018      	movs	r0, r3
 8007f4c:	1800      	adds	r0, r0, r0
 8007f4e:	0000      	movs	r0, r0
 8007f50:	0018      	movs	r0, r3
 8007f52:	1800      	adds	r0, r0, r0
	...
 8007f60:	0000      	movs	r0, r0
 8007f62:	8c00      	ldrh	r0, [r0, #32]
 8007f64:	0000      	movs	r0, r0
 8007f66:	007c      	lsls	r4, r7, #1
 8007f68:	3c00      	subs	r4, #0
	...
 8007f7a:	0000      	movs	r0, r0
 8007f7c:	1800      	adds	r0, r0, r0
 8007f7e:	0000      	movs	r0, r0
 8007f80:	0018      	movs	r0, r3
 8007f82:	1800      	adds	r0, r0, r0
 8007f84:	0000      	movs	r0, r0
 8007f86:	0018      	movs	r0, r3
 8007f88:	1800      	adds	r0, r0, r0
 8007f8a:	0000      	movs	r0, r0
 8007f8c:	0018      	movs	r0, r3
 8007f8e:	1800      	adds	r0, r0, r0
 8007f90:	0000      	movs	r0, r0
 8007f92:	0018      	movs	r0, r3
 8007f94:	1800      	adds	r0, r0, r0
 8007f96:	0000      	movs	r0, r0
 8007f98:	0018      	movs	r0, r3
 8007f9a:	1800      	adds	r0, r0, r0
	...
 8007fa8:	0000      	movs	r0, r0
 8007faa:	1c00      	adds	r0, r0, #0
 8007fac:	0000      	movs	r0, r0
 8007fae:	001c      	movs	r4, r3
 8007fb0:	1c00      	adds	r0, r0, #0
	...
 8007fc6:	0070      	lsls	r0, r6, #1
 8007fc8:	1c00      	adds	r0, r0, #0
 8007fca:	0000      	movs	r0, r0
 8007fcc:	0007      	movs	r7, r0
 8007fce:	01c0      	lsls	r0, r0, #7
 8007fd0:	7000      	strb	r0, [r0, #0]
 8007fd2:	0000      	movs	r0, r0
 8007fd4:	001c      	movs	r4, r3
 8007fd6:	0700      	lsls	r0, r0, #28
 8007fd8:	c000      	stmia	r0!, {}
 8007fda:	0001      	movs	r1, r0
 8007fdc:	0070      	lsls	r0, r6, #1
 8007fde:	1c00      	adds	r0, r0, #0
 8007fe0:	0000      	movs	r0, r0
 8007fe2:	0006      	movs	r6, r0
 8007fe4:	0000      	movs	r0, r0
 8007fe6:	0000      	movs	r0, r0
 8007fe8:	ff00 c000 	vhadd.u8	d12, d0, d0
 8007fec:	03ff      	lsls	r7, r7, #15
 8007fee:	0070      	lsls	r0, r6, #1
 8007ff0:	180e      	adds	r6, r1, r0
 8007ff2:	1800      	adds	r0, r0, r0
 8007ff4:	000c      	movs	r4, r1
 8007ff6:	0430      	lsls	r0, r6, #16
 8007ff8:	2000      	movs	r0, #0
 8007ffa:	000c      	movs	r4, r1
 8007ffc:	1830      	adds	r0, r6, r0
 8007ffe:	1800      	adds	r0, r0, r0
 8008000:	0070      	lsls	r0, r6, #1
 8008002:	c00e      	stmia	r0!, {r1, r2, r3}
 8008004:	03ff      	lsls	r7, r7, #15
 8008006:	ff00 0000 	vhadd.u8	d0, d0, d0
 800800a:	0000      	movs	r0, r0
 800800c:	0000      	movs	r0, r0
 800800e:	2000      	movs	r0, #0
 8008010:	0000      	movs	r0, r0
 8008012:	0020      	movs	r0, r4
 8008014:	3020      	adds	r0, #32
 8008016:	2000      	movs	r0, #0
 8008018:	0038      	movs	r0, r7
 800801a:	fc20 3fff 	stc2	15, cr3, [r0], #-1020	; 0xfffffc04
 800801e:	fffc 003f 	vshr.u32	d16, d31, #4
 8008022:	2000      	movs	r0, #0
 8008024:	0000      	movs	r0, r0
 8008026:	0020      	movs	r0, r4
 8008028:	2000      	movs	r0, #0
 800802a:	0000      	movs	r0, r0
 800802c:	0000      	movs	r0, r0
 800802e:	0000      	movs	r0, r0
 8008030:	0040      	lsls	r0, r0, #1
 8008032:	3030      	adds	r0, #48	; 0x30
 8008034:	3c00      	subs	r4, #0
 8008036:	0018      	movs	r0, r3
 8008038:	0832      	lsrs	r2, r6, #32
 800803a:	3100      	adds	r1, #0
 800803c:	8004      	strh	r4, [r0, #0]
 800803e:	0430      	lsls	r0, r6, #16
 8008040:	3040      	adds	r0, #64	; 0x40
 8008042:	3004      	adds	r0, #4
 8008044:	0830      	lsrs	r0, r6, #32
 8008046:	3018      	adds	r0, #24
 8008048:	0e18      	lsrs	r0, r3, #24
 800804a:	f030 3807 	bics.w	r8, r0, #117901063	; 0x7070707
 800804e:	01e0      	lsls	r0, r4, #7
 8008050:	003e      	movs	r6, r7
 8008052:	0000      	movs	r0, r0
 8008054:	0010      	movs	r0, r2
 8008056:	0820      	lsrs	r0, r4, #32
 8008058:	2000      	movs	r0, #0
 800805a:	080c      	lsrs	r4, r1, #32
 800805c:	0420      	lsls	r0, r4, #16
 800805e:	200c      	movs	r0, #12
 8008060:	0c04      	lsrs	r4, r0, #16
 8008062:	0420      	lsls	r0, r4, #16
 8008064:	100c      	asrs	r4, r1, #32
 8008066:	0c0c      	lsrs	r4, r1, #16
 8008068:	1810      	adds	r0, r2, r0
 800806a:	181a      	adds	r2, r3, r0
 800806c:	39f8      	subs	r1, #248	; 0xf8
 800806e:	e00c      	b.n	800808a <gu8Font12x24+0x2e2>
 8008070:	07f0      	lsls	r0, r6, #31
 8008072:	e000      	b.n	8008076 <gu8Font12x24+0x2ce>
 8008074:	0003      	movs	r3, r0
 8008076:	0000      	movs	r0, r0
 8008078:	0000      	movs	r0, r0
 800807a:	0001      	movs	r1, r0
 800807c:	01c0      	lsls	r0, r0, #7
 800807e:	3000      	adds	r0, #0
 8008080:	0001      	movs	r1, r0
 8008082:	010c      	lsls	r4, r1, #4
 8008084:	0300      	lsls	r0, r0, #12
 8008086:	c001      	stmia	r0!, {r0}
 8008088:	2100      	movs	r1, #0
 800808a:	0030      	movs	r0, r6
 800808c:	fc21 3fff 	stc2	15, cr3, [r1], #-1020	; 0xfffffc04
 8008090:	fffc 003f 	vshr.u32	d16, d31, #4
 8008094:	2100      	movs	r1, #0
 8008096:	0000      	movs	r0, r0
 8008098:	0021      	movs	r1, r4
 800809a:	0000      	movs	r0, r0
 800809c:	0000      	movs	r0, r0
 800809e:	fc00 201f 	stc2	0, cr2, [r0], {31}
 80080a2:	0c0c      	lsrs	r4, r1, #16
 80080a4:	0c20      	lsrs	r0, r4, #16
 80080a6:	2006      	movs	r0, #6
 80080a8:	020c      	lsls	r4, r1, #8
 80080aa:	0c20      	lsrs	r0, r4, #16
 80080ac:	2002      	movs	r0, #2
 80080ae:	020c      	lsls	r4, r1, #8
 80080b0:	0c10      	lsrs	r0, r2, #16
 80080b2:	1006      	asrs	r6, r0, #32
 80080b4:	0c0c      	lsrs	r4, r1, #16
 80080b6:	0c1c      	lsrs	r4, r3, #16
 80080b8:	0ff8      	lsrs	r0, r7, #31
 80080ba:	f004 0003 	and.w	r0, r4, #3
 80080be:	0000      	movs	r0, r0
 80080c0:	ff00 c003 	vhadd.u8	d12, d0, d3
 80080c4:	0fff      	lsrs	r7, r7, #31
 80080c6:	08e0      	lsrs	r0, r4, #3
 80080c8:	301c      	adds	r0, #28
 80080ca:	1008      	asrs	r0, r1, #32
 80080cc:	0408      	lsls	r0, r1, #16
 80080ce:	0820      	lsrs	r0, r4, #32
 80080d0:	2004      	movs	r0, #4
 80080d2:	0404      	lsls	r4, r0, #16
 80080d4:	0420      	lsls	r0, r4, #16
 80080d6:	1004      	asrs	r4, r0, #32
 80080d8:	0804      	lsrs	r4, r0, #32
 80080da:	001c      	movs	r4, r3
 80080dc:	0ff8      	lsrs	r0, r7, #31
 80080de:	f000 0003 	and.w	r0, r0, #3
 80080e2:	0000      	movs	r0, r0
 80080e4:	007c      	lsls	r4, r7, #1
 80080e6:	1c00      	adds	r0, r0, #0
 80080e8:	0000      	movs	r0, r0
 80080ea:	000c      	movs	r4, r1
 80080ec:	0c00      	lsrs	r0, r0, #16
 80080ee:	0000      	movs	r0, r0
 80080f0:	800c      	strh	r4, [r1, #0]
 80080f2:	0c3f      	lsrs	r7, r7, #16
 80080f4:	3ff0      	subs	r7, #240	; 0xf0
 80080f6:	3c0c      	subs	r4, #12
 80080f8:	0c00      	lsrs	r0, r0, #16
 80080fa:	0003      	movs	r3, r0
 80080fc:	00cc      	lsls	r4, r1, #3
 80080fe:	2c00      	cmp	r4, #0
 8008100:	0000      	movs	r0, r0
 8008102:	001c      	movs	r4, r3
 8008104:	0000      	movs	r0, r0
 8008106:	0000      	movs	r0, r0
 8008108:	8000      	strh	r0, [r0, #0]
 800810a:	e007      	b.n	800811c <gu8Font12x24+0x374>
 800810c:	1fc1      	subs	r1, r0, #7
 800810e:	27f8      	movs	r7, #248	; 0xf8
 8008110:	0810      	lsrs	r0, r2, #32
 8008112:	201e      	movs	r0, #30
 8008114:	1c04      	adds	r4, r0, #0
 8008116:	0420      	lsls	r0, r4, #16
 8008118:	2018      	movs	r0, #24
 800811a:	3804      	subs	r0, #4
 800811c:	0820      	lsrs	r0, r4, #32
 800811e:	2034      	movs	r0, #52	; 0x34
 8008120:	63f8      	str	r0, [r7, #60]	; 0x3c
 8008122:	e010      	b.n	8008146 <gu8Font12x24+0x39e>
 8008124:	1fe1      	subs	r1, r4, #7
 8008126:	8000      	strh	r0, [r0, #0]
 8008128:	0007      	movs	r7, r0
 800812a:	0000      	movs	r0, r0
 800812c:	07c0      	lsls	r0, r0, #31
 800812e:	f000 001f 	and.w	r0, r0, #31
 8008132:	1038      	asrs	r0, r7, #32
 8008134:	0820      	lsrs	r0, r4, #32
 8008136:	2020      	movs	r0, #32
 8008138:	2004      	movs	r0, #4
 800813a:	0420      	lsls	r0, r4, #16
 800813c:	1020      	asrs	r0, r4, #32
 800813e:	2004      	movs	r0, #4
 8008140:	0810      	lsrs	r0, r2, #32
 8008142:	0c10      	lsrs	r0, r2, #16
 8008144:	1038      	asrs	r0, r7, #32
 8008146:	f007 03ff 	and.w	r3, r7, #255	; 0xff
 800814a:	ffc0 0000 	vaddl.u8	q8, d0, d0
	...
 800815a:	0000      	movs	r0, r0
 800815c:	0700      	lsls	r0, r0, #28
 800815e:	001c      	movs	r4, r3
 8008160:	1c07      	adds	r7, r0, #0
 8008162:	0700      	lsls	r0, r0, #28
 8008164:	001c      	movs	r4, r3
	...
 800817e:	0000      	movs	r0, r0
 8008180:	0700      	lsls	r0, r0, #28
 8008182:	008c      	lsls	r4, r1, #2
 8008184:	7c07      	ldrb	r7, [r0, #16]
 8008186:	0700      	lsls	r0, r0, #28
 8008188:	003c      	movs	r4, r7
	...
 800819a:	0000      	movs	r0, r0
 800819c:	0018      	movs	r0, r3
 800819e:	3c00      	subs	r4, #0
 80081a0:	0000      	movs	r0, r0
 80081a2:	0066      	lsls	r6, r4, #1
 80081a4:	c300      	stmia	r3!, {}
 80081a6:	8000      	strh	r0, [r0, #0]
 80081a8:	0181      	lsls	r1, r0, #6
 80081aa:	00c0      	lsls	r0, r0, #3
 80081ac:	6003      	str	r3, [r0, #0]
 80081ae:	0600      	lsls	r0, r0, #24
 80081b0:	0030      	movs	r0, r6
 80081b2:	180c      	adds	r4, r1, r0
 80081b4:	1800      	adds	r0, r0, r0
 80081b6:	000c      	movs	r4, r1
 80081b8:	0030      	movs	r0, r6
 80081ba:	0000      	movs	r0, r0
 80081bc:	c300      	stmia	r3!, {}
 80081be:	0000      	movs	r0, r0
 80081c0:	00c3      	lsls	r3, r0, #3
 80081c2:	c300      	stmia	r3!, {}
 80081c4:	0000      	movs	r0, r0
 80081c6:	00c3      	lsls	r3, r0, #3
 80081c8:	c300      	stmia	r3!, {}
 80081ca:	0000      	movs	r0, r0
 80081cc:	00c3      	lsls	r3, r0, #3
 80081ce:	c300      	stmia	r3!, {}
 80081d0:	0000      	movs	r0, r0
 80081d2:	00c3      	lsls	r3, r0, #3
 80081d4:	c300      	stmia	r3!, {}
 80081d6:	0000      	movs	r0, r0
 80081d8:	00c3      	lsls	r3, r0, #3
 80081da:	c300      	stmia	r3!, {}
 80081dc:	0000      	movs	r0, r0
 80081de:	0000      	movs	r0, r0
 80081e0:	0000      	movs	r0, r0
 80081e2:	0c00      	lsrs	r0, r0, #16
 80081e4:	3000      	adds	r0, #0
 80081e6:	0018      	movs	r0, r3
 80081e8:	3018      	adds	r0, #24
 80081ea:	0c00      	lsrs	r0, r0, #16
 80081ec:	0060      	lsls	r0, r4, #1
 80081ee:	c006      	stmia	r0!, {r1, r2}
 80081f0:	0300      	lsls	r0, r0, #12
 80081f2:	8180      	strh	r0, [r0, #12]
 80081f4:	0001      	movs	r1, r0
 80081f6:	00c3      	lsls	r3, r0, #3
 80081f8:	6600      	str	r0, [r0, #96]	; 0x60
 80081fa:	0000      	movs	r0, r0
 80081fc:	003c      	movs	r4, r7
 80081fe:	1800      	adds	r0, r0, r0
 8008200:	0000      	movs	r0, r0
 8008202:	0000      	movs	r0, r0
 8008204:	0000      	movs	r0, r0
 8008206:	7000      	strb	r0, [r0, #0]
 8008208:	0000      	movs	r0, r0
 800820a:	00f8      	lsls	r0, r7, #3
 800820c:	c800      	ldmia	r0!, {}
 800820e:	0000      	movs	r0, r0
 8008210:	0004      	movs	r4, r0
 8008212:	041c      	lsls	r4, r3, #16
 8008214:	1ce0      	adds	r0, r4, #3
 8008216:	1804      	adds	r4, r0, r0
 8008218:	041c      	lsls	r4, r3, #16
 800821a:	000c      	movs	r4, r1
 800821c:	0708      	lsls	r0, r1, #28
 800821e:	f800 0003 	strb.w	r0, [r0, r3]
 8008222:	01f0      	lsls	r0, r6, #7
 8008224:	0000      	movs	r0, r0
 8008226:	0000      	movs	r0, r0
 8008228:	ffc0 7003 	vaddl.u8	<illegal reg q11.5>, d0, d3
 800822c:	0e00      	lsrs	r0, r0, #24
 800822e:	fe18 0418 	mrc2	4, 0, r0, cr8, cr8, {0}
 8008232:	21ff      	movs	r1, #255	; 0xff
 8008234:	0084      	lsls	r4, r0, #2
 8008236:	8421      	strh	r1, [r4, #32]
 8008238:	2181      	movs	r1, #129	; 0x81
 800823a:	ff04 8420 	vshl.u8	d8, d16, d4
 800823e:	21ff      	movs	r1, #255	; 0xff
 8008240:	0018      	movs	r0, r3
 8008242:	7011      	strb	r1, [r2, #0]
 8008244:	1180      	asrs	r0, r0, #6
 8008246:	ffc0 0008 	vaddl.u8	q8, d0, d8
 800824a:	0000      	movs	r0, r0
 800824c:	0000      	movs	r0, r0
 800824e:	0010      	movs	r0, r2
 8008250:	1f00      	subs	r0, r0, #4
 8008252:	f000 0010 	and.w	r0, r0, #16
 8008256:	004e      	lsls	r6, r1, #1
 8008258:	41e0      	rors	r0, r4
 800825a:	1c00      	adds	r0, r0, #0
 800825c:	0040      	lsls	r0, r0, #1
 800825e:	40fc      	lsrs	r4, r7
 8008260:	e000      	b.n	8008264 <gu8Font12x24+0x4bc>
 8008262:	004f      	lsls	r7, r1, #1
 8008264:	ff00 0010 	vqadd.u8	d0, d0, d0
 8008268:	1ff0      	subs	r0, r6, #7
 800826a:	0000      	movs	r0, r0
 800826c:	001f      	movs	r7, r3
 800826e:	1000      	asrs	r0, r0, #32
 8008270:	0004      	movs	r4, r0
 8008272:	fc10 1fff 	ldc2	15, cr1, [r0], {255}	; 0xff
 8008276:	fffc 041f 	vsri.32	d16, d15, #4
 800827a:	1008      	asrs	r0, r1, #32
 800827c:	0804      	lsrs	r4, r0, #32
 800827e:	0410      	lsls	r0, r2, #16
 8008280:	1008      	asrs	r0, r1, #32
 8008282:	0804      	lsrs	r4, r0, #32
 8008284:	0810      	lsrs	r0, r2, #32
 8008286:	0814      	lsrs	r4, r2, #32
 8008288:	33f8      	adds	r3, #248	; 0xf8
 800828a:	f00c 07e1 	and.w	r7, ip, #225	; 0xe1
 800828e:	c000      	stmia	r0!, {}
 8008290:	0003      	movs	r3, r0
 8008292:	0000      	movs	r0, r0
 8008294:	0000      	movs	r0, r0
 8008296:	c000      	stmia	r0!, {}
 8008298:	01ff      	lsls	r7, r7, #7
 800829a:	fff0 3807 	vtbl.8	d19, {d0}, d7
 800829e:	0e00      	lsrs	r0, r0, #24
 80082a0:	0008      	movs	r0, r1
 80082a2:	0408      	lsls	r0, r1, #16
 80082a4:	1000      	asrs	r0, r0, #32
 80082a6:	0004      	movs	r4, r0
 80082a8:	0410      	lsls	r0, r2, #16
 80082aa:	1000      	asrs	r0, r0, #32
 80082ac:	0008      	movs	r0, r1
 80082ae:	1808      	adds	r0, r1, r0
 80082b0:	0800      	lsrs	r0, r0, #32
 80082b2:	003c      	movs	r4, r7
 80082b4:	0006      	movs	r6, r0
 80082b6:	0000      	movs	r0, r0
 80082b8:	0004      	movs	r4, r0
 80082ba:	fc10 1fff 	ldc2	15, cr1, [r0], {255}	; 0xff
 80082be:	fffc 041f 	vsri.32	d16, d15, #4
 80082c2:	1000      	asrs	r0, r0, #32
 80082c4:	0004      	movs	r4, r0
 80082c6:	0410      	lsls	r0, r2, #16
 80082c8:	1000      	asrs	r0, r0, #32
 80082ca:	0008      	movs	r0, r1
 80082cc:	1808      	adds	r0, r1, r0
 80082ce:	0c00      	lsrs	r0, r0, #16
 80082d0:	0070      	lsls	r0, r6, #1
 80082d2:	e007      	b.n	80082e4 <gu8Font12x24+0x53c>
 80082d4:	03ff      	lsls	r7, r7, #15
 80082d6:	ff80 0000 	vaddl.u8	q0, d0, d0
 80082da:	0000      	movs	r0, r0
 80082dc:	0004      	movs	r4, r0
 80082de:	fc10 1fff 	ldc2	15, cr1, [r0], {255}	; 0xff
 80082e2:	fffc 041f 	vsri.32	d16, d15, #4
 80082e6:	1008      	asrs	r0, r1, #32
 80082e8:	0804      	lsrs	r4, r0, #32
 80082ea:	0410      	lsls	r0, r2, #16
 80082ec:	1008      	asrs	r0, r1, #32
 80082ee:	1c04      	adds	r4, r0, #0
 80082f0:	0410      	lsls	r0, r2, #16
 80082f2:	107f      	asrs	r7, r7, #1
 80082f4:	000c      	movs	r4, r1
 80082f6:	1c18      	adds	r0, r3, #0
 80082f8:	1c00      	adds	r0, r0, #0
 80082fa:	0020      	movs	r0, r4
 80082fc:	0002      	movs	r2, r0
 80082fe:	0000      	movs	r0, r0
 8008300:	0004      	movs	r4, r0
 8008302:	fc10 1fff 	ldc2	15, cr1, [r0], {255}	; 0xff
 8008306:	fffc 041f 	vsri.32	d16, d15, #4
 800830a:	1008      	asrs	r0, r1, #32
 800830c:	0804      	lsrs	r4, r0, #32
 800830e:	0400      	lsls	r0, r0, #16
 8008310:	0008      	movs	r0, r1
 8008312:	1c04      	adds	r4, r0, #0
 8008314:	0400      	lsls	r0, r0, #16
 8008316:	007f      	lsls	r7, r7, #1
 8008318:	000c      	movs	r4, r1
 800831a:	1c00      	adds	r0, r0, #0
 800831c:	0000      	movs	r0, r0
 800831e:	0020      	movs	r0, r4
 8008320:	0000      	movs	r0, r0
 8008322:	0000      	movs	r0, r0
 8008324:	ffc0 f001 	vaddl.u8	<illegal reg q15.5>, d0, d1
 8008328:	07ff      	lsls	r7, r7, #31
 800832a:	0038      	movs	r0, r7
 800832c:	080e      	lsrs	r6, r1, #32
 800832e:	0800      	lsrs	r0, r0, #32
 8008330:	0004      	movs	r4, r0
 8008332:	0410      	lsls	r0, r2, #16
 8008334:	1000      	asrs	r0, r0, #32
 8008336:	1004      	asrs	r4, r0, #32
 8008338:	0810      	lsrs	r0, r2, #32
 800833a:	0810      	lsrs	r0, r2, #32
 800833c:	f018 3c0f 	ands.w	ip, r8, #252645135	; 0xf0f0f0f
 8008340:	1ff0      	subs	r0, r6, #7
 8008342:	1000      	asrs	r0, r0, #32
 8008344:	0000      	movs	r0, r0
 8008346:	0000      	movs	r0, r0
 8008348:	0004      	movs	r4, r0
 800834a:	fc10 1fff 	ldc2	15, cr1, [r0], {255}	; 0xff
 800834e:	fffc 041f 	vsri.32	d16, d15, #4
 8008352:	1008      	asrs	r0, r1, #32
 8008354:	0800      	lsrs	r0, r0, #32
 8008356:	0000      	movs	r0, r0
 8008358:	0008      	movs	r0, r1
 800835a:	0800      	lsrs	r0, r0, #32
 800835c:	0400      	lsls	r0, r0, #16
 800835e:	1008      	asrs	r0, r1, #32
 8008360:	fffc fc1f 	vcvt.f16.u16	d31, d15, #4
 8008364:	1fff      	subs	r7, r7, #7
 8008366:	0004      	movs	r4, r0
 8008368:	0010      	movs	r0, r2
	...
 8008372:	0004      	movs	r4, r0
 8008374:	0410      	lsls	r0, r2, #16
 8008376:	1000      	asrs	r0, r0, #32
 8008378:	fffc fc1f 	vcvt.f16.u16	d31, d15, #4
 800837c:	1fff      	subs	r7, r7, #7
 800837e:	0004      	movs	r4, r0
 8008380:	0410      	lsls	r0, r2, #16
 8008382:	1000      	asrs	r0, r0, #32
	...
 8008390:	0000      	movs	r0, r0
 8008392:	0007      	movs	r7, r0
 8008394:	0f80      	lsrs	r0, r0, #30
 8008396:	8000      	strh	r0, [r0, #0]
 8008398:	0009      	movs	r1, r1
 800839a:	1000      	asrs	r0, r0, #32
 800839c:	0000      	movs	r0, r0
 800839e:	0410      	lsls	r0, r2, #16
 80083a0:	1000      	asrs	r0, r0, #32
 80083a2:	0004      	movs	r4, r0
 80083a4:	fc08 0fff 	stc2	15, cr0, [r8], {255}	; 0xff
 80083a8:	fffc 0407 	vcls.s<illegal width 64>	d16, d7
 80083ac:	0000      	movs	r0, r0
 80083ae:	0004      	movs	r4, r0
 80083b0:	0000      	movs	r0, r0
 80083b2:	0000      	movs	r0, r0
 80083b4:	0004      	movs	r4, r0
 80083b6:	fc10 1fff 	ldc2	15, cr1, [r0], {255}	; 0xff
 80083ba:	fffc 041f 	vsri.32	d16, d15, #4
 80083be:	1018      	asrs	r0, r3, #32
 80083c0:	1c00      	adds	r0, r0, #0
 80083c2:	0000      	movs	r0, r0
 80083c4:	007a      	lsls	r2, r7, #1
 80083c6:	e180      	b.n	80086ca <gu8Font12x24+0x922>
 80083c8:	4401      	add	r1, r0
 80083ca:	1780      	asrs	r0, r0, #30
 80083cc:	0034      	movs	r4, r6
 80083ce:	0c1e      	lsrs	r6, r3, #16
 80083d0:	1800      	adds	r0, r0, r0
 80083d2:	0004      	movs	r4, r0
 80083d4:	0010      	movs	r0, r2
 80083d6:	0000      	movs	r0, r0
 80083d8:	0004      	movs	r4, r0
 80083da:	fc10 1fff 	ldc2	15, cr1, [r0], {255}	; 0xff
 80083de:	fffc 041f 	vsri.32	d16, d15, #4
 80083e2:	1000      	asrs	r0, r0, #32
 80083e4:	0000      	movs	r0, r0
 80083e6:	0010      	movs	r0, r2
 80083e8:	1000      	asrs	r0, r0, #32
 80083ea:	0000      	movs	r0, r0
 80083ec:	0010      	movs	r0, r2
 80083ee:	1000      	asrs	r0, r0, #32
 80083f0:	0000      	movs	r0, r0
 80083f2:	0018      	movs	r0, r3
 80083f4:	1c00      	adds	r0, r0, #0
 80083f6:	0000      	movs	r0, r0
 80083f8:	0002      	movs	r2, r0
 80083fa:	0000      	movs	r0, r0
 80083fc:	0004      	movs	r4, r0
 80083fe:	fc10 1fff 	ldc2	15, cr1, [r0], {255}	; 0xff
 8008402:	00fc      	lsls	r4, r7, #3
 8008404:	e010      	b.n	8008428 <gu8Font12x24+0x680>
 8008406:	0007      	movs	r7, r0
 8008408:	3f00      	subs	r7, #0
 800840a:	0000      	movs	r0, r0
 800840c:	00f8      	lsls	r0, r7, #3
 800840e:	3c00      	subs	r4, #0
 8008410:	8000      	strh	r0, [r0, #0]
 8008412:	0007      	movs	r7, r0
 8008414:	0070      	lsls	r0, r6, #1
 8008416:	fc10 1fff 	ldc2	15, cr1, [r0], {255}	; 0xff
 800841a:	fffc 041f 	vsri.32	d16, d15, #4
 800841e:	1000      	asrs	r0, r0, #32
 8008420:	0004      	movs	r4, r0
 8008422:	fc10 1fff 	ldc2	15, cr1, [r0], {255}	; 0xff
 8008426:	007c      	lsls	r4, r7, #1
 8008428:	f010 0001 	ands.w	r0, r0, #1
 800842c:	0780      	lsls	r0, r0, #30
 800842e:	0000      	movs	r0, r0
 8008430:	001e      	movs	r6, r3
 8008432:	f800 0000 	strb.w	r0, [r0, r0]
 8008436:	03e0      	lsls	r0, r4, #15
 8008438:	0004      	movs	r4, r0
 800843a:	fc0f 1fff 	stc2	15, cr1, [pc], {255}	; 0xff
 800843e:	0004      	movs	r4, r0
 8008440:	0000      	movs	r0, r0
 8008442:	0000      	movs	r0, r0
 8008444:	ffe0 f803 	vmlal.u32	<illegal reg q15.5>, d0, d3
 8008448:	0fff      	lsrs	r7, r7, #31
 800844a:	0008      	movs	r0, r1
 800844c:	0408      	lsls	r0, r1, #16
 800844e:	1000      	asrs	r0, r0, #32
 8008450:	0004      	movs	r4, r0
 8008452:	0410      	lsls	r0, r2, #16
 8008454:	1000      	asrs	r0, r0, #32
 8008456:	0004      	movs	r4, r0
 8008458:	0410      	lsls	r0, r2, #16
 800845a:	1000      	asrs	r0, r0, #32
 800845c:	0008      	movs	r0, r1
 800845e:	f808 0fff 	strb.w	r0, [r8, #255]!
 8008462:	ffe0 0003 	vaddl.u32	q8, d0, d3
 8008466:	0000      	movs	r0, r0
 8008468:	0004      	movs	r4, r0
 800846a:	fc10 1fff 	ldc2	15, cr1, [r0], {255}	; 0xff
 800846e:	fffc 041f 	vsri.32	d16, d15, #4
 8008472:	1010      	asrs	r0, r2, #32
 8008474:	1004      	asrs	r4, r0, #32
 8008476:	0400      	lsls	r0, r0, #16
 8008478:	0010      	movs	r0, r2
 800847a:	1004      	asrs	r4, r0, #32
 800847c:	0800      	lsrs	r0, r0, #32
 800847e:	0008      	movs	r0, r1
 8008480:	0c18      	lsrs	r0, r3, #16
 8008482:	f000 0007 	and.w	r0, r0, #7
 8008486:	03e0      	lsls	r0, r4, #15
 8008488:	0000      	movs	r0, r0
 800848a:	0000      	movs	r0, r0
 800848c:	ffe0 f803 	vmlal.u32	<illegal reg q15.5>, d0, d3
 8008490:	0fff      	lsrs	r7, r7, #31
 8008492:	0008      	movs	r0, r1
 8008494:	040c      	lsls	r4, r1, #16
 8008496:	1200      	asrs	r0, r0, #8
 8008498:	0004      	movs	r4, r0
 800849a:	0411      	lsls	r1, r2, #16
 800849c:	1100      	asrs	r0, r0, #4
 800849e:	0004      	movs	r4, r0
 80084a0:	083e      	lsrs	r6, r7, #32
 80084a2:	6800      	ldr	r0, [r0, #0]
 80084a4:	fff8 e0cf 	vrev32.32	q15, <illegal reg q7.5>
 80084a8:	c3ff      	stmia	r3!, {r0, r1, r2, r3, r4, r5, r6, r7}
 80084aa:	0000      	movs	r0, r0
 80084ac:	0060      	lsls	r0, r4, #1
 80084ae:	0000      	movs	r0, r0
 80084b0:	0004      	movs	r4, r0
 80084b2:	fc10 1fff 	ldc2	15, cr1, [r0], {255}	; 0xff
 80084b6:	fffc 041f 	vsri.32	d16, d15, #4
 80084ba:	1008      	asrs	r0, r1, #32
 80084bc:	0804      	lsrs	r4, r0, #32
 80084be:	0400      	lsls	r0, r0, #16
 80084c0:	0008      	movs	r0, r1
 80084c2:	1804      	adds	r4, r0, r0
 80084c4:	0800      	lsrs	r0, r0, #32
 80084c6:	0fe4      	lsrs	r4, r4, #31
 80084c8:	c7f8      	stmia	r7!, {r3, r4, r5, r6, r7}
 80084ca:	e01f      	b.n	800850c <gu8Font12x24+0x764>
 80084cc:	1001      	asrs	r1, r0, #32
 80084ce:	0000      	movs	r0, r0
 80084d0:	000c      	movs	r4, r1
 80084d2:	0000      	movs	r0, r0
 80084d4:	01f0      	lsls	r0, r6, #7
 80084d6:	f81e 0c03 	ldrb.w	r0, [lr, #-3]
 80084da:	0708      	lsls	r0, r1, #28
 80084dc:	0408      	lsls	r0, r1, #16
 80084de:	1006      	asrs	r6, r0, #32
 80084e0:	0c04      	lsrs	r4, r0, #16
 80084e2:	0410      	lsls	r0, r2, #16
 80084e4:	100c      	asrs	r4, r1, #32
 80084e6:	0c04      	lsrs	r4, r0, #16
 80084e8:	0810      	lsrs	r0, r2, #32
 80084ea:	0818      	lsrs	r0, r3, #32
 80084ec:	3818      	subs	r0, #24
 80084ee:	3c0c      	subs	r4, #12
 80084f0:	07f0      	lsls	r0, r6, #31
 80084f2:	e000      	b.n	80084f6 <gu8Font12x24+0x74e>
 80084f4:	0003      	movs	r3, r0
 80084f6:	0000      	movs	r0, r0
 80084f8:	007c      	lsls	r4, r7, #1
 80084fa:	0c00      	lsrs	r0, r0, #16
 80084fc:	0000      	movs	r0, r0
 80084fe:	0004      	movs	r4, r0
 8008500:	0400      	lsls	r0, r0, #16
 8008502:	1000      	asrs	r0, r0, #32
 8008504:	fffc fc1f 	vcvt.f16.u16	d31, d15, #4
 8008508:	1fff      	subs	r7, r7, #7
 800850a:	0004      	movs	r4, r0
 800850c:	0410      	lsls	r0, r2, #16
 800850e:	0000      	movs	r0, r0
 8008510:	000c      	movs	r4, r1
 8008512:	7c00      	ldrb	r0, [r0, #16]
	...
 800851c:	0004      	movs	r4, r0
 800851e:	fc00 07ff 	stc2	7, cr0, [r0], {255}	; 0xff
 8008522:	fffc 040f 	vcls.s<illegal width 64>	d16, d15
 8008526:	1800      	adds	r0, r0, r0
 8008528:	0000      	movs	r0, r0
 800852a:	0010      	movs	r0, r2
 800852c:	1000      	asrs	r0, r0, #32
 800852e:	0000      	movs	r0, r0
 8008530:	0010      	movs	r0, r2
 8008532:	1000      	asrs	r0, r0, #32
 8008534:	0004      	movs	r4, r0
 8008536:	fc08 07ff 	stc2	7, cr0, [r8], {255}	; 0xff
 800853a:	0004      	movs	r4, r0
 800853c:	0000      	movs	r0, r0
 800853e:	0000      	movs	r0, r0
 8008540:	0004      	movs	r4, r0
 8008542:	7c00      	ldrb	r0, [r0, #16]
 8008544:	0000      	movs	r0, r0
 8008546:	07fc      	lsls	r4, r7, #31
 8008548:	8400      	strh	r0, [r0, #32]
 800854a:	007f      	lsls	r7, r7, #1
 800854c:	f800 0003 	strb.w	r0, [r0, r3]
 8008550:	1f00      	subs	r0, r0, #4
 8008552:	c000      	stmia	r0!, {}
 8008554:	0003      	movs	r3, r0
 8008556:	0078      	lsls	r0, r7, #1
 8008558:	0784      	lsls	r4, r0, #30
 800855a:	7c00      	ldrb	r0, [r0, #16]
 800855c:	0000      	movs	r0, r0
 800855e:	0004      	movs	r4, r0
 8008560:	0000      	movs	r0, r0
 8008562:	0000      	movs	r0, r0
 8008564:	7ffc      	ldrb	r4, [r7, #31]
 8008566:	fc00 07ff 	stc2	7, cr0, [r0], {255}	; 0xff
 800856a:	8004      	strh	r4, [r0, #0]
 800856c:	001f      	movs	r7, r3
 800856e:	1e00      	subs	r0, r0, #0
 8008570:	e000      	b.n	8008574 <gu8Font12x24+0x7cc>
 8008572:	0001      	movs	r1, r0
 8008574:	003f      	movs	r7, r7
 8008576:	ff00 0001 	vhadd.u8	d0, d0, d1
 800857a:	1fe0      	subs	r0, r4, #7
 800857c:	0000      	movs	r0, r0
 800857e:	041c      	lsls	r4, r3, #16
 8008580:	0780      	lsls	r0, r0, #30
 8008582:	7ffc      	ldrb	r4, [r7, #31]
 8008584:	0000      	movs	r0, r0
 8008586:	0000      	movs	r0, r0
 8008588:	0004      	movs	r4, r0
 800858a:	1c10      	adds	r0, r2, #0
 800858c:	1c00      	adds	r0, r0, #0
 800858e:	007c      	lsls	r4, r7, #1
 8008590:	e413      	b.n	8007dba <gu8Font12x24+0x12>
 8008592:	00c1      	lsls	r1, r0, #3
 8008594:	3780      	adds	r7, #128	; 0x80
 8008596:	0000      	movs	r0, r0
 8008598:	001c      	movs	r4, r3
 800859a:	f600 8000 	bhi.w	7f0859e <__stack_size+0x7f07d9e>
 800859e:	13c1      	asrs	r1, r0, #15
 80085a0:	0064      	lsls	r4, r4, #1
 80085a2:	1c1f      	adds	r7, r3, #0
 80085a4:	1c00      	adds	r0, r0, #0
 80085a6:	0004      	movs	r4, r0
 80085a8:	0010      	movs	r0, r2
 80085aa:	0000      	movs	r0, r0
 80085ac:	0004      	movs	r4, r0
 80085ae:	1c00      	adds	r0, r0, #0
 80085b0:	0000      	movs	r0, r0
 80085b2:	00fc      	lsls	r4, r7, #3
 80085b4:	e400      	b.n	8007db8 <gu8Font12x24+0x10>
 80085b6:	1003      	asrs	r3, r0, #32
 80085b8:	0f00      	lsrs	r0, r0, #28
 80085ba:	0010      	movs	r0, r2
 80085bc:	1ffc      	subs	r4, r7, #7
 80085be:	fc00 001f 	stc2	0, cr0, [r0], {31}
 80085c2:	1007      	asrs	r7, r0, #32
 80085c4:	00e4      	lsls	r4, r4, #3
 80085c6:	1c10      	adds	r0, r2, #0
 80085c8:	0000      	movs	r0, r0
 80085ca:	0004      	movs	r4, r0
 80085cc:	0000      	movs	r0, r0
 80085ce:	0000      	movs	r0, r0
 80085d0:	0020      	movs	r0, r4
 80085d2:	1c10      	adds	r0, r2, #0
 80085d4:	1c00      	adds	r0, r0, #0
 80085d6:	0004      	movs	r4, r0
 80085d8:	041f      	lsls	r7, r3, #16
 80085da:	13c0      	asrs	r0, r0, #15
 80085dc:	f004 0410 	and.w	r4, r4, #16
 80085e0:	103e      	asrs	r6, r7, #32
 80085e2:	0f84      	lsrs	r4, r0, #30
 80085e4:	e410      	b.n	8007e08 <gu8Font12x24+0x60>
 80085e6:	1001      	asrs	r1, r0, #32
 80085e8:	007c      	lsls	r4, r7, #1
 80085ea:	1c18      	adds	r0, r3, #0
 80085ec:	1c00      	adds	r0, r0, #0
 80085ee:	0004      	movs	r4, r0
 80085f0:	0002      	movs	r2, r0
	...
 80085fe:	0000      	movs	r0, r0
 8008600:	fffc fc3f 	vcvt.f16.u16	d31, d31, #4
 8008604:	3fff      	subs	r7, #255	; 0xff
 8008606:	0006      	movs	r6, r0
 8008608:	0260      	lsls	r0, r4, #9
 800860a:	4000      	ands	r0, r0
 800860c:	0003      	movs	r3, r0
 800860e:	01c0      	lsls	r0, r0, #7
 8008610:	8000      	strh	r0, [r0, #0]
 8008612:	0000      	movs	r0, r0
 8008614:	0000      	movs	r0, r0
 8008616:	0000      	movs	r0, r0
 8008618:	0006      	movs	r6, r0
 800861a:	1c00      	adds	r0, r0, #0
 800861c:	0000      	movs	r0, r0
 800861e:	0070      	lsls	r0, r6, #1
 8008620:	c000      	stmia	r0!, {}
 8008622:	0001      	movs	r1, r0
 8008624:	0700      	lsls	r0, r0, #28
 8008626:	0000      	movs	r0, r0
 8008628:	001c      	movs	r4, r3
 800862a:	7000      	strb	r0, [r0, #0]
 800862c:	0000      	movs	r0, r0
 800862e:	01c0      	lsls	r0, r0, #7
 8008630:	0000      	movs	r0, r0
 8008632:	0007      	movs	r7, r0
 8008634:	1c00      	adds	r0, r0, #0
 8008636:	0000      	movs	r0, r0
 8008638:	0070      	lsls	r0, r6, #1
 800863a:	0000      	movs	r0, r0
 800863c:	0000      	movs	r0, r0
 800863e:	0300      	lsls	r0, r0, #12
 8008640:	c000      	stmia	r0!, {}
 8008642:	0003      	movs	r3, r0
 8008644:	06c0      	lsls	r0, r0, #27
 8008646:	6000      	str	r0, [r0, #0]
 8008648:	0006      	movs	r6, r0
 800864a:	fc60 3fff 	stc2l	15, cr3, [r0], #-1020	; 0xfffffc04
 800864e:	fffc 003f 	vshr.u32	d16, d31, #4
	...
 800865e:	0000      	movs	r0, r0
 8008660:	0020      	movs	r0, r4
 8008662:	3000      	adds	r0, #0
 8008664:	0000      	movs	r0, r0
 8008666:	0018      	movs	r0, r3
 8008668:	0c00      	lsrs	r0, r0, #16
 800866a:	0000      	movs	r0, r0
 800866c:	000e      	movs	r6, r1
 800866e:	0700      	lsls	r0, r0, #28
 8008670:	0000      	movs	r0, r0
 8008672:	000e      	movs	r6, r1
 8008674:	0c00      	lsrs	r0, r0, #16
 8008676:	0000      	movs	r0, r0
 8008678:	0018      	movs	r0, r3
 800867a:	3000      	adds	r0, #0
 800867c:	0000      	movs	r0, r0
 800867e:	0020      	movs	r0, r4
 8008680:	0000      	movs	r0, r0
 8008682:	0000      	movs	r0, r0
 8008684:	0000      	movs	r0, r0
 8008686:	00c0      	lsls	r0, r0, #3
 8008688:	c000      	stmia	r0!, {}
 800868a:	0000      	movs	r0, r0
 800868c:	00c0      	lsls	r0, r0, #3
 800868e:	c000      	stmia	r0!, {}
 8008690:	0000      	movs	r0, r0
 8008692:	00c0      	lsls	r0, r0, #3
 8008694:	c000      	stmia	r0!, {}
 8008696:	0000      	movs	r0, r0
 8008698:	00c0      	lsls	r0, r0, #3
 800869a:	c000      	stmia	r0!, {}
 800869c:	0000      	movs	r0, r0
 800869e:	00c0      	lsls	r0, r0, #3
 80086a0:	c000      	stmia	r0!, {}
 80086a2:	0000      	movs	r0, r0
 80086a4:	00c0      	lsls	r0, r0, #3
	...
 80086ae:	0002      	movs	r2, r0
 80086b0:	0700      	lsls	r0, r0, #28
 80086b2:	0000      	movs	r0, r0
 80086b4:	0007      	movs	r7, r0
 80086b6:	0e00      	lsrs	r0, r0, #24
 80086b8:	0000      	movs	r0, r0
 80086ba:	000c      	movs	r4, r1
 80086bc:	1800      	adds	r0, r0, r0
 80086be:	0000      	movs	r0, r0
 80086c0:	0010      	movs	r0, r2
	...
 80086ca:	0000      	movs	r0, r0
 80086cc:	8000      	strh	r0, [r0, #0]
 80086ce:	0007      	movs	r7, r0
 80086d0:	0fc6      	lsrs	r6, r0, #31
 80086d2:	4200      	tst	r0, r0
 80086d4:	0018      	movs	r0, r3
 80086d6:	1023      	asrs	r3, r4, #32
 80086d8:	2100      	movs	r1, #0
 80086da:	0010      	movs	r0, r2
 80086dc:	1021      	asrs	r1, r4, #32
 80086de:	2200      	movs	r2, #0
 80086e0:	0008      	movs	r0, r1
 80086e2:	0ffe      	lsrs	r6, r7, #31
 80086e4:	fc00 001f 	stc2	0, cr0, [r0], {31}
 80086e8:	1000      	asrs	r0, r0, #32
 80086ea:	0000      	movs	r0, r0
 80086ec:	000c      	movs	r4, r1
 80086ee:	0000      	movs	r0, r0
 80086f0:	0008      	movs	r0, r1
 80086f2:	fc00 1fff 	stc2	15, cr1, [r0], {255}	; 0xff
 80086f6:	fffc 000f 	vrev64.<illegal width 64>	d16, d15
 80086fa:	0802      	lsrs	r2, r0, #32
 80086fc:	0100      	lsls	r0, r0, #4
 80086fe:	0010      	movs	r0, r2
 8008700:	1001      	asrs	r1, r0, #32
 8008702:	0100      	lsls	r0, r0, #4
 8008704:	0010      	movs	r0, r2
 8008706:	0802      	lsrs	r2, r0, #32
 8008708:	0e00      	lsrs	r0, r0, #24
 800870a:	000e      	movs	r6, r1
 800870c:	07fc      	lsls	r4, r7, #31
 800870e:	f000 0001 	and.w	r0, r0, #1
 8008712:	0000      	movs	r0, r0
 8008714:	f000 0001 	and.w	r0, r0, #1
 8008718:	07fc      	lsls	r4, r7, #31
 800871a:	0e00      	lsrs	r0, r0, #24
 800871c:	000e      	movs	r6, r1
 800871e:	0802      	lsrs	r2, r0, #32
 8008720:	0100      	lsls	r0, r0, #4
 8008722:	0010      	movs	r0, r2
 8008724:	1001      	asrs	r1, r0, #32
 8008726:	0100      	lsls	r0, r0, #4
 8008728:	0010      	movs	r0, r2
 800872a:	0802      	lsrs	r2, r0, #32
 800872c:	0e00      	lsrs	r0, r0, #24
 800872e:	0008      	movs	r0, r1
 8008730:	040c      	lsls	r4, r1, #16
 8008732:	0000      	movs	r0, r0
 8008734:	0000      	movs	r0, r0
 8008736:	0000      	movs	r0, r0
 8008738:	f000 0001 	and.w	r0, r0, #1
 800873c:	07fc      	lsls	r4, r7, #31
 800873e:	0e00      	lsrs	r0, r0, #24
 8008740:	000e      	movs	r6, r1
 8008742:	0802      	lsrs	r2, r0, #32
 8008744:	0100      	lsls	r0, r0, #4
 8008746:	0010      	movs	r0, r2
 8008748:	1001      	asrs	r1, r0, #32
 800874a:	0108      	lsls	r0, r1, #4
 800874c:	0810      	lsrs	r0, r2, #32
 800874e:	0802      	lsrs	r2, r0, #32
 8008750:	fffc fc1f 	vcvt.f16.u16	d31, d15, #4
 8008754:	1fff      	subs	r7, r7, #7
 8008756:	0000      	movs	r0, r0
 8008758:	0010      	movs	r0, r2
 800875a:	0000      	movs	r0, r0
 800875c:	f000 0001 	and.w	r0, r0, #1
 8008760:	07fc      	lsls	r4, r7, #31
 8008762:	2e00      	cmp	r6, #0
 8008764:	000e      	movs	r6, r1
 8008766:	0822      	lsrs	r2, r4, #32
 8008768:	2100      	movs	r1, #0
 800876a:	0010      	movs	r0, r2
 800876c:	1021      	asrs	r1, r4, #32
 800876e:	2100      	movs	r1, #0
 8008770:	0010      	movs	r0, r2
 8008772:	1022      	asrs	r2, r4, #32
 8008774:	2e00      	cmp	r6, #0
 8008776:	0008      	movs	r0, r1
 8008778:	083c      	lsrs	r4, r7, #32
 800877a:	3800      	subs	r0, #0
 800877c:	0004      	movs	r4, r0
 800877e:	0000      	movs	r0, r0
 8008780:	0100      	lsls	r0, r0, #4
 8008782:	0000      	movs	r0, r0
 8008784:	0001      	movs	r1, r0
 8008786:	0100      	lsls	r0, r0, #4
 8008788:	0010      	movs	r0, r2
 800878a:	1001      	asrs	r1, r0, #32
 800878c:	ffe0 f81f 	vqshrun.s64	d31, <illegal reg q7.5>, #32
 8008790:	1fff      	subs	r7, r7, #7
 8008792:	0108      	lsls	r0, r1, #4
 8008794:	0410      	lsls	r0, r2, #16
 8008796:	1001      	asrs	r1, r0, #32
 8008798:	0104      	lsls	r4, r0, #4
 800879a:	1c00      	adds	r0, r0, #0
 800879c:	0001      	movs	r1, r0
 800879e:	0018      	movs	r0, r3
 80087a0:	0000      	movs	r0, r0
 80087a2:	0000      	movs	r0, r0
 80087a4:	0000      	movs	r0, r0
 80087a6:	0030      	movs	r0, r6
 80087a8:	781c      	ldrb	r4, [r3, #0]
 80087aa:	3e00      	subs	r6, #0
 80087ac:	0045      	lsls	r5, r0, #1
 80087ae:	83a2      	strh	r2, [r4, #28]
 80087b0:	4100      	asrs	r0, r0
 80087b2:	0082      	lsls	r2, r0, #2
 80087b4:	8641      	strh	r1, [r0, #50]	; 0x32
 80087b6:	4100      	asrs	r0, r0
 80087b8:	0086      	lsls	r6, r0, #2
 80087ba:	8622      	strh	r2, [r4, #48]	; 0x30
 80087bc:	3f00      	subs	r7, #0
 80087be:	804c      	strh	r4, [r1, #2]
 80087c0:	7c1d      	ldrb	r5, [r3, #16]
 80087c2:	0180      	lsls	r0, r0, #6
 80087c4:	0038      	movs	r0, r7
 80087c6:	0000      	movs	r0, r0
 80087c8:	0008      	movs	r0, r1
 80087ca:	fc10 1fff 	ldc2	15, cr1, [r0], {255}	; 0xff
 80087ce:	fffc 001f 	vshr.u32	d16, d15, #4
 80087d2:	1002      	asrs	r2, r0, #32
 80087d4:	0100      	lsls	r0, r0, #4
 80087d6:	0000      	movs	r0, r0
 80087d8:	0001      	movs	r1, r0
 80087da:	0100      	lsls	r0, r0, #4
 80087dc:	0000      	movs	r0, r0
 80087de:	1003      	asrs	r3, r0, #32
 80087e0:	fe00 001f 	mcr2	0, 0, r0, cr0, cr15, {0}
 80087e4:	1ffc      	subs	r4, r7, #7
 80087e6:	0000      	movs	r0, r0
 80087e8:	0010      	movs	r0, r2
	...
 80087f2:	0100      	lsls	r0, r0, #4
 80087f4:	1c10      	adds	r0, r2, #0
 80087f6:	1001      	asrs	r1, r0, #32
 80087f8:	ff1c 1c1f 	vqrdmlsh.s16	d1, d12, d15
 80087fc:	1fff      	subs	r7, r7, #7
 80087fe:	0000      	movs	r0, r0
 8008800:	0010      	movs	r0, r2
 8008802:	1000      	asrs	r0, r0, #32
	...
 8008810:	0000      	movs	r0, r0
 8008812:	0060      	lsls	r0, r4, #1
 8008814:	e000      	b.n	8008818 <gu8Font12x24+0xa70>
 8008816:	0000      	movs	r0, r0
 8008818:	0080      	lsls	r0, r0, #2
 800881a:	8000      	strh	r0, [r0, #0]
 800881c:	0100      	lsls	r0, r0, #4
 800881e:	1c80      	adds	r0, r0, #2
 8008820:	c001      	stmia	r0!, {r0}
 8008822:	ff1c 1c7f 	vqrdmlsh.s16	<illegal reg q0.5>, q6, <illegal reg q15.5>
 8008826:	3fff      	subs	r7, #255	; 0xff
	...
 8008834:	0008      	movs	r0, r1
 8008836:	fc10 1fff 	ldc2	15, cr1, [r0], {255}	; 0xff
 800883a:	fffc 001f 	vshr.u32	d16, d15, #4
 800883e:	1040      	asrs	r0, r0, #1
 8008840:	e000      	b.n	8008844 <gu8Font12x24+0xa9c>
 8008842:	0000      	movs	r0, r0
 8008844:	0190      	lsls	r0, r2, #6
 8008846:	0800      	lsrs	r0, r0, #32
 8008848:	0003      	movs	r3, r0
 800884a:	1605      	asrs	r5, r0, #24
 800884c:	0300      	lsls	r0, r0, #12
 800884e:	001c      	movs	r4, r3
 8008850:	1801      	adds	r1, r0, r0
 8008852:	0100      	lsls	r0, r0, #4
 8008854:	0010      	movs	r0, r2
	...
 800885e:	0008      	movs	r0, r1
 8008860:	0810      	lsrs	r0, r2, #32
 8008862:	1000      	asrs	r0, r0, #32
 8008864:	fffc fc1f 	vcvt.f16.u16	d31, d15, #4
 8008868:	1fff      	subs	r7, r7, #7
 800886a:	0000      	movs	r0, r0
 800886c:	0010      	movs	r0, r2
 800886e:	1000      	asrs	r0, r0, #32
	...
 800887c:	0200      	lsls	r0, r0, #8
 800887e:	0010      	movs	r0, r2
 8008880:	1fff      	subs	r7, r7, #7
 8008882:	ff00 001f 	vqadd.u8	d0, d0, d15
 8008886:	0002      	movs	r2, r0
 8008888:	0100      	lsls	r0, r0, #4
 800888a:	0010      	movs	r0, r2
 800888c:	1fff      	subs	r7, r7, #7
 800888e:	fe00 001f 	mcr2	0, 0, r0, cr0, cr15, {0}
 8008892:	1001      	asrs	r1, r0, #32
 8008894:	0100      	lsls	r0, r0, #4
 8008896:	0000      	movs	r0, r0
 8008898:	1fff      	subs	r7, r7, #7
 800889a:	fe00 001f 	mcr2	0, 0, r0, cr0, cr15, {0}
 800889e:	1000      	asrs	r0, r0, #32
 80088a0:	0200      	lsls	r0, r0, #8
 80088a2:	0010      	movs	r0, r2
 80088a4:	1fff      	subs	r7, r7, #7
 80088a6:	ff00 001f 	vqadd.u8	d0, d0, d15
 80088aa:	1002      	asrs	r2, r0, #32
 80088ac:	0200      	lsls	r0, r0, #8
 80088ae:	0000      	movs	r0, r0
 80088b0:	0001      	movs	r1, r0
 80088b2:	0100      	lsls	r0, r0, #4
 80088b4:	0000      	movs	r0, r0
 80088b6:	1002      	asrs	r2, r0, #32
 80088b8:	fe00 001f 	mcr2	0, 0, r0, cr0, cr15, {0}
 80088bc:	1ffc      	subs	r4, r7, #7
 80088be:	0000      	movs	r0, r0
 80088c0:	0010      	movs	r0, r2
 80088c2:	0000      	movs	r0, r0
 80088c4:	f000 0001 	and.w	r0, r0, #1
 80088c8:	07fc      	lsls	r4, r7, #31
 80088ca:	0600      	lsls	r0, r0, #24
 80088cc:	000c      	movs	r4, r1
 80088ce:	0802      	lsrs	r2, r0, #32
 80088d0:	0100      	lsls	r0, r0, #4
 80088d2:	0010      	movs	r0, r2
 80088d4:	1001      	asrs	r1, r0, #32
 80088d6:	0100      	lsls	r0, r0, #4
 80088d8:	0010      	movs	r0, r2
 80088da:	0802      	lsrs	r2, r0, #32
 80088dc:	0600      	lsls	r0, r0, #24
 80088de:	000c      	movs	r4, r1
 80088e0:	07fc      	lsls	r4, r7, #31
 80088e2:	f000 0001 	and.w	r0, r0, #1
 80088e6:	0000      	movs	r0, r0
 80088e8:	0200      	lsls	r0, r0, #8
 80088ea:	0080      	lsls	r0, r0, #2
 80088ec:	ffff ff00 			; <UNDEFINED> instruction: 0xffffff00
 80088f0:	00ff      	lsls	r7, r7, #3
 80088f2:	8202      	strh	r2, [r0, #16]
 80088f4:	0100      	lsls	r0, r0, #4
 80088f6:	0004      	movs	r4, r0
 80088f8:	0401      	lsls	r1, r0, #16
 80088fa:	0100      	lsls	r0, r0, #4
 80088fc:	0004      	movs	r4, r0
 80088fe:	0202      	lsls	r2, r0, #8
 8008900:	0600      	lsls	r0, r0, #24
 8008902:	0003      	movs	r3, r0
 8008904:	01fc      	lsls	r4, r7, #7
 8008906:	f800 0000 	strb.w	r0, [r0, r0]
 800890a:	0000      	movs	r0, r0
 800890c:	f800 0000 	strb.w	r0, [r0, r0]
 8008910:	01fc      	lsls	r4, r7, #7
 8008912:	0600      	lsls	r0, r0, #24
 8008914:	0003      	movs	r3, r0
 8008916:	0202      	lsls	r2, r0, #8
 8008918:	0100      	lsls	r0, r0, #4
 800891a:	0004      	movs	r4, r0
 800891c:	0401      	lsls	r1, r0, #16
 800891e:	0100      	lsls	r0, r0, #4
 8008920:	0004      	movs	r4, r0
 8008922:	8202      	strh	r2, [r0, #16]
 8008924:	fe00 00ff 	mcr2	0, 0, r0, cr0, cr15, {7}
 8008928:	ffff 0000 	vaddl.u<illegal width 64>	q8, d15, d0
 800892c:	0080      	lsls	r0, r0, #2
 800892e:	0000      	movs	r0, r0
 8008930:	0200      	lsls	r0, r0, #8
 8008932:	0010      	movs	r0, r2
 8008934:	1002      	asrs	r2, r0, #32
 8008936:	ff00 001f 	vqadd.u8	d0, d0, d15
 800893a:	1fff      	subs	r7, r7, #7
 800893c:	0800      	lsrs	r0, r0, #32
 800893e:	0010      	movs	r0, r2
 8008940:	1004      	asrs	r4, r0, #32
 8008942:	0600      	lsls	r0, r0, #24
 8008944:	0000      	movs	r0, r0
 8008946:	0003      	movs	r3, r0
 8008948:	0300      	lsls	r0, r0, #12
 800894a:	0000      	movs	r0, r0
 800894c:	0007      	movs	r7, r0
 800894e:	0600      	lsls	r0, r0, #24
 8008950:	0000      	movs	r0, r0
 8008952:	0000      	movs	r0, r0
 8008954:	1c00      	adds	r0, r0, #0
 8008956:	001e      	movs	r6, r3
 8008958:	0c3e      	lsrs	r6, r7, #16
 800895a:	3200      	adds	r2, #0
 800895c:	0008      	movs	r0, r1
 800895e:	1061      	asrs	r1, r4, #1
 8008960:	6100      	str	r0, [r0, #16]
 8008962:	0010      	movs	r0, r2
 8008964:	1061      	asrs	r1, r4, #1
 8008966:	c100      	stmia	r1!, {}
 8008968:	0010      	movs	r0, r2
 800896a:	10c2      	asrs	r2, r0, #3
 800896c:	c600      	stmia	r6!, {}
 800896e:	0009      	movs	r1, r1
 8008970:	0f8f      	lsrs	r7, r1, #30
 8008972:	0000      	movs	r0, r0
 8008974:	0007      	movs	r7, r0
 8008976:	0000      	movs	r0, r0
 8008978:	0100      	lsls	r0, r0, #4
 800897a:	0000      	movs	r0, r0
 800897c:	0001      	movs	r1, r0
 800897e:	0100      	lsls	r0, r0, #4
 8008980:	fc00 07ff 	stc2	7, cr0, [r0], {255}	; 0xff
 8008984:	fffc 000f 	vrev64.<illegal width 64>	d16, d15
 8008988:	1801      	adds	r1, r0, r0
 800898a:	0100      	lsls	r0, r0, #4
 800898c:	0010      	movs	r0, r2
 800898e:	1001      	asrs	r1, r0, #32
 8008990:	0100      	lsls	r0, r0, #4
 8008992:	0010      	movs	r0, r2
 8008994:	0800      	lsrs	r0, r0, #32
 8008996:	0000      	movs	r0, r0
 8008998:	0006      	movs	r6, r0
 800899a:	0000      	movs	r0, r0
 800899c:	0200      	lsls	r0, r0, #8
 800899e:	0000      	movs	r0, r0
 80089a0:	07ff      	lsls	r7, r7, #31
 80089a2:	ff00 000f 	vhadd.u8	d0, d0, d15
 80089a6:	1800      	adds	r0, r0, r0
 80089a8:	0000      	movs	r0, r0
 80089aa:	0010      	movs	r0, r2
 80089ac:	1000      	asrs	r0, r0, #32
 80089ae:	0000      	movs	r0, r0
 80089b0:	0008      	movs	r0, r1
 80089b2:	0802      	lsrs	r2, r0, #32
 80089b4:	ff00 001f 	vqadd.u8	d0, d0, d15
 80089b8:	1fff      	subs	r7, r7, #7
 80089ba:	0000      	movs	r0, r0
 80089bc:	0010      	movs	r0, r2
 80089be:	0000      	movs	r0, r0
 80089c0:	0100      	lsls	r0, r0, #4
 80089c2:	0000      	movs	r0, r0
 80089c4:	0007      	movs	r7, r0
 80089c6:	3f00      	subs	r7, #0
 80089c8:	0000      	movs	r0, r0
 80089ca:	01f9      	lsls	r1, r7, #7
 80089cc:	c000      	stmia	r0!, {}
 80089ce:	0007      	movs	r7, r0
 80089d0:	1e00      	subs	r0, r0, #0
 80089d2:	0000      	movs	r0, r0
 80089d4:	0007      	movs	r7, r0
 80089d6:	00c0      	lsls	r0, r0, #3
 80089d8:	3900      	subs	r1, #0
 80089da:	0000      	movs	r0, r0
 80089dc:	0007      	movs	r7, r0
 80089de:	0100      	lsls	r0, r0, #4
 80089e0:	0000      	movs	r0, r0
 80089e2:	0000      	movs	r0, r0
 80089e4:	ff00 0001 	vhadd.u8	d0, d0, d1
 80089e8:	0fff      	lsrs	r7, r7, #31
 80089ea:	0100      	lsls	r0, r0, #4
 80089ec:	001c      	movs	r4, r3
 80089ee:	0600      	lsls	r0, r0, #24
 80089f0:	c000      	stmia	r0!, {}
 80089f2:	0001      	movs	r1, r0
 80089f4:	0078      	lsls	r0, r7, #1
 80089f6:	f800 0001 	strb.w	r0, [r0, r1]
 80089fa:	0780      	lsls	r0, r0, #30
 80089fc:	0000      	movs	r0, r0
 80089fe:	001c      	movs	r4, r3
 8008a00:	0e01      	lsrs	r1, r0, #24
 8008a02:	ff00 0003 	vhadd.u8	d0, d0, d3
 8008a06:	0000      	movs	r0, r0
 8008a08:	0100      	lsls	r0, r0, #4
 8008a0a:	0010      	movs	r0, r2
 8008a0c:	1803      	adds	r3, r0, r0
 8008a0e:	0700      	lsls	r0, r0, #28
 8008a10:	0014      	movs	r4, r2
 8008a12:	031d      	lsls	r5, r3, #12
 8008a14:	b800      			; <UNDEFINED> instruction: 0xb800
 8008a16:	0000      	movs	r0, r0
 8008a18:	00e0      	lsls	r0, r4, #3
 8008a1a:	a000      	add	r0, pc, #0	; (adr r0, 8008a1c <gu8Font12x24+0xc74>)
 8008a1c:	0003      	movs	r3, r0
 8008a1e:	1718      	asrs	r0, r3, #28
 8008a20:	0500      	lsls	r0, r0, #20
 8008a22:	001c      	movs	r4, r3
 8008a24:	1803      	adds	r3, r0, r0
 8008a26:	0100      	lsls	r0, r0, #4
 8008a28:	0010      	movs	r0, r2
 8008a2a:	0000      	movs	r0, r0
 8008a2c:	0100      	lsls	r0, r0, #4
 8008a2e:	0060      	lsls	r0, r4, #1
 8008a30:	e007      	b.n	8008a42 <gu8Font12x24+0xc9a>
 8008a32:	1f00      	subs	r0, r0, #4
 8008a34:	0080      	lsls	r0, r0, #2
 8008a36:	8079      	strh	r1, [r7, #2]
 8008a38:	e000      	b.n	8008a3c <gu8Font12x24+0xc94>
 8008a3a:	0061      	lsls	r1, r4, #1
 8008a3c:	1b80      	subs	r0, r0, r6
 8008a3e:	0000      	movs	r0, r0
 8008a40:	0007      	movs	r7, r0
 8008a42:	00c0      	lsls	r0, r0, #3
 8008a44:	3900      	subs	r1, #0
 8008a46:	0000      	movs	r0, r0
 8008a48:	0007      	movs	r7, r0
 8008a4a:	0100      	lsls	r0, r0, #4
 8008a4c:	0000      	movs	r0, r0
 8008a4e:	0000      	movs	r0, r0
 8008a50:	0800      	lsrs	r0, r0, #32
 8008a52:	0010      	movs	r0, r2
 8008a54:	1807      	adds	r7, r0, r0
 8008a56:	0300      	lsls	r0, r0, #12
 8008a58:	001e      	movs	r6, r3
 8008a5a:	1701      	asrs	r1, r0, #28
 8008a5c:	8100      	strh	r0, [r0, #8]
 8008a5e:	0011      	movs	r1, r2
 8008a60:	10e1      	asrs	r1, r4, #3
 8008a62:	3100      	adds	r1, #0
 8008a64:	0010      	movs	r0, r2
 8008a66:	101d      	asrs	r5, r3, #32
 8008a68:	0f00      	lsrs	r0, r0, #28
 8008a6a:	0010      	movs	r0, r2
 8008a6c:	1c03      	adds	r3, r0, #0
 8008a6e:	0100      	lsls	r0, r0, #4
 8008a70:	0002      	movs	r2, r0
	...
 8008a82:	0000      	movs	r0, r0
 8008a84:	0008      	movs	r0, r1
 8008a86:	1400      	asrs	r0, r0, #16
 8008a88:	f800 1fe3 	strb.w	r1, [r0, #227]!
 8008a8c:	c1fe      	stmia	r1!, {r1, r2, r3, r4, r5, r6, r7}
 8008a8e:	017f      	lsls	r7, r7, #5
 8008a90:	8000      	strh	r0, [r0, #0]
	...
 8008aa6:	ff00 ffff 	vmaxnm.f32	<illegal reg q7.5>, q8, <illegal reg q15.5>
 8008aaa:	ffff 00ff 	vshr.u64	q8, <illegal reg q15.5>, #1
	...
 8008abe:	0100      	lsls	r0, r0, #4
 8008ac0:	8000      	strh	r0, [r0, #0]
 8008ac2:	c1fe      	stmia	r1!, {r1, r2, r3, r4, r5, r6, r7}
 8008ac4:	f87f 1fe3 	ldr??.w	r1, [pc, #-4067]	; 8007ae5 <gu8Font_8x16+0x33d>
 8008ac8:	1400      	asrs	r0, r0, #16
 8008aca:	0000      	movs	r0, r0
 8008acc:	0008      	movs	r0, r1
	...
 8008ade:	0000      	movs	r0, r0
 8008ae0:	000c      	movs	r4, r1
 8008ae2:	0600      	lsls	r0, r0, #24
 8008ae4:	0000      	movs	r0, r0
 8008ae6:	0003      	movs	r3, r0
 8008ae8:	0300      	lsls	r0, r0, #12
 8008aea:	0000      	movs	r0, r0
 8008aec:	0003      	movs	r3, r0
 8008aee:	0600      	lsls	r0, r0, #24
 8008af0:	0000      	movs	r0, r0
 8008af2:	000c      	movs	r4, r1
 8008af4:	0c00      	lsrs	r0, r0, #16
 8008af6:	0000      	movs	r0, r0
 8008af8:	000c      	movs	r4, r1
 8008afa:	0600      	lsls	r0, r0, #24
 8008afc:	0000      	movs	r0, r0
 8008afe:	0003      	movs	r3, r0
 8008b00:	0000      	movs	r0, r0
	...

08008b04 <_global_impure_ptr>:
 8008b04:	0138      	lsls	r0, r7, #4
 8008b06:	2000      	movs	r0, #0

Disassembly of section .ARM.attributes:

08008b08 <__preinit_array_end>:
 8008b08:	2941      	cmp	r1, #65	; 0x41
 8008b0a:	0000      	movs	r0, r0
 8008b0c:	6100      	str	r0, [r0, #16]
 8008b0e:	6165      	str	r5, [r4, #20]
 8008b10:	6962      	ldr	r2, [r4, #20]
 8008b12:	0100      	lsls	r0, r0, #4
 8008b14:	001f      	movs	r7, r3
 8008b16:	0000      	movs	r0, r0
 8008b18:	3705      	adds	r7, #5
 8008b1a:	2d45      	cmp	r5, #69	; 0x45
 8008b1c:	004d      	lsls	r5, r1, #1
 8008b1e:	0d06      	lsrs	r6, r0, #20
 8008b20:	4d07      	ldr	r5, [pc, #28]	; (8008b40 <_sidata+0x2c>)
 8008b22:	0209      	lsls	r1, r1, #8
 8008b24:	0412      	lsls	r2, r2, #16
 8008b26:	0114      	lsls	r4, r2, #4
 8008b28:	0115      	lsls	r5, r2, #4
 8008b2a:	0317      	lsls	r7, r2, #12
 8008b2c:	0118      	lsls	r0, r3, #4
 8008b2e:	011a      	lsls	r2, r3, #4
 8008b30:	0122      	lsls	r2, r4, #4

Disassembly of section .init_array:

08008b08 <__init_array_start>:
 8008b08:	7135      	strb	r5, [r6, #4]
 8008b0a:	0800      	lsrs	r0, r0, #32

08008b0c <__frame_dummy_init_array_entry>:
 8008b0c:	0175      	lsls	r5, r6, #5
 8008b0e:	0800      	lsrs	r0, r0, #32

Disassembly of section .fini_array:

08008b10 <__do_global_dtors_aux_fini_array_entry>:
 8008b10:	0151      	lsls	r1, r2, #5
 8008b12:	0800      	lsrs	r0, r0, #32

Disassembly of section .data:

20000000 <SystemCoreClock>:
20000000:	0e00      	lsrs	r0, r0, #24
20000002:	0727      	lsls	r7, r4, #28

20000004 <PRINTER_DEVICE_ID>:
20000004:	6700      	str	r0, [r0, #112]	; 0x70
20000006:	414d      	adcs	r5, r1
20000008:	554e      	strb	r6, [r1, r5]
2000000a:	4146      	adcs	r6, r0
2000000c:	5443      	strb	r3, [r0, r1]
2000000e:	5255      	strh	r5, [r2, r1]
20000010:	5245      	strh	r5, [r0, r1]
20000012:	533a      	strh	r2, [r7, r4]
20000014:	616d      	str	r5, [r5, #20]
20000016:	7472      	strb	r2, [r6, #17]
20000018:	5320      	strh	r0, [r4, r4]
2000001a:	6c6f      	ldr	r7, [r5, #68]	; 0x44
2000001c:	7475      	strb	r5, [r6, #17]
2000001e:	6f69      	ldr	r1, [r5, #116]	; 0x74
20000020:	736e      	strb	r6, [r5, #13]
20000022:	433b      	orrs	r3, r7
20000024:	4d4f      	ldr	r5, [pc, #316]	; (20000164 <impure_data+0x2c>)
20000026:	414d      	adcs	r5, r1
20000028:	444e      	add	r6, r9
2000002a:	5320      	strh	r0, [r4, r4]
2000002c:	5445      	strb	r5, [r0, r1]
2000002e:	503a      	str	r2, [r7, r0]
20000030:	4c43      	ldr	r4, [pc, #268]	; (20000140 <impure_data+0x8>)
20000032:	4d2c      	ldr	r5, [pc, #176]	; (200000e4 <serial_string+0x38>)
20000034:	4c50      	ldr	r4, [pc, #320]	; (20000178 <impure_data+0x40>)
20000036:	4d3b      	ldr	r5, [pc, #236]	; (20000124 <serial_string+0x78>)
20000038:	444f      	add	r7, r9
2000003a:	4c45      	ldr	r4, [pc, #276]	; (20000150 <impure_data+0x18>)
2000003c:	503a      	str	r2, [r7, r0]
2000003e:	6972      	ldr	r2, [r6, #20]
20000040:	746e      	strb	r6, [r5, #17]
20000042:	7265      	strb	r5, [r4, #9]
20000044:	433b      	orrs	r3, r7
20000046:	4d4f      	ldr	r5, [pc, #316]	; (20000184 <impure_data+0x4c>)
20000048:	454d      	cmp	r5, r9
2000004a:	544e      	strb	r6, [r1, r1]
2000004c:	473a      	bx	r7
2000004e:	6f6f      	ldr	r7, [r5, #116]	; 0x74
20000050:	2064      	movs	r0, #100	; 0x64
20000052:	3b21      	subs	r3, #33	; 0x21
20000054:	4341      	muls	r1, r0
20000056:	4954      	ldr	r1, [pc, #336]	; (200001a8 <impure_data+0x70>)
20000058:	4556      	cmp	r6, sl
2000005a:	4320      	orrs	r0, r4
2000005c:	4d4f      	ldr	r5, [pc, #316]	; (2000019c <impure_data+0x64>)
2000005e:	414d      	adcs	r5, r1
20000060:	444e      	add	r6, r9
20000062:	5320      	strh	r0, [r4, r4]
20000064:	5445      	strb	r5, [r0, r1]
20000066:	503a      	str	r2, [r7, r0]
20000068:	4c43      	ldr	r4, [pc, #268]	; (20000178 <impure_data+0x40>)
2000006a:	      	adds	r3, r7, r0

2000006b <g_port_status>:
2000006b:	      	movs	r0, r3

2000006c <usbd_printer_cb>:
2000006c:	0000      	movs	r0, r0
2000006e:	0000      	movs	r0, r0
20000070:	1891      	adds	r1, r2, r2
20000072:	0800      	lsrs	r0, r0, #32
20000074:	1879      	adds	r1, r7, r1
20000076:	0800      	lsrs	r0, r0, #32
20000078:	18c9      	adds	r1, r1, r3
2000007a:	0800      	lsrs	r0, r0, #32
	...
20000088:	1841      	adds	r1, r0, r1
2000008a:	0800      	lsrs	r0, r0, #32
2000008c:	1845      	adds	r5, r0, r1
2000008e:	0800      	lsrs	r0, r0, #32
	...

2000009c <printer_desc>:
2000009c:	7644      	strb	r4, [r0, #25]
2000009e:	0800      	lsrs	r0, r0, #32
200000a0:	750c      	strb	r4, [r1, #20]
200000a2:	0800      	lsrs	r0, r0, #32
200000a4:	0000      	movs	r0, r0
200000a6:	0000      	movs	r0, r0
200000a8:	752c      	strb	r4, [r5, #20]
200000aa:	0800      	lsrs	r0, r0, #32

200000ac <serial_string>:
200000ac:	031a      	lsls	r2, r3, #12
	...

20000130 <_impure_ptr>:
20000130:	0138      	lsls	r0, r7, #4
20000132:	2000      	movs	r0, #0
20000134:	0000      	movs	r0, r0
	...

20000138 <impure_data>:
20000138:	0000      	movs	r0, r0
2000013a:	0000      	movs	r0, r0
2000013c:	0424      	lsls	r4, r4, #16
2000013e:	2000      	movs	r0, #0
20000140:	048c      	lsls	r4, r1, #18
20000142:	2000      	movs	r0, #0
20000144:	04f4      	lsls	r4, r6, #19
20000146:	2000      	movs	r0, #0
	...
200001e0:	0001      	movs	r1, r0
200001e2:	0000      	movs	r0, r0
200001e4:	0000      	movs	r0, r0
200001e6:	0000      	movs	r0, r0
200001e8:	330e      	adds	r3, #14
200001ea:	abcd      	add	r3, sp, #820	; 0x334
200001ec:	1234      	asrs	r4, r6, #8
200001ee:	e66d      	b.n	1ffffecc <_sidata+0x17ff73b8>
200001f0:	deec      	udf	#236	; 0xec
200001f2:	0005      	movs	r5, r0
200001f4:	000b      	movs	r3, r1
	...

20000560 <__malloc_av_>:
	...
20000568:	0560      	lsls	r0, r4, #21
2000056a:	2000      	movs	r0, #0
2000056c:	0560      	lsls	r0, r4, #21
2000056e:	2000      	movs	r0, #0
20000570:	0568      	lsls	r0, r5, #21
20000572:	2000      	movs	r0, #0
20000574:	0568      	lsls	r0, r5, #21
20000576:	2000      	movs	r0, #0
20000578:	0570      	lsls	r0, r6, #21
2000057a:	2000      	movs	r0, #0
2000057c:	0570      	lsls	r0, r6, #21
2000057e:	2000      	movs	r0, #0
20000580:	0578      	lsls	r0, r7, #21
20000582:	2000      	movs	r0, #0
20000584:	0578      	lsls	r0, r7, #21
20000586:	2000      	movs	r0, #0
20000588:	0580      	lsls	r0, r0, #22
2000058a:	2000      	movs	r0, #0
2000058c:	0580      	lsls	r0, r0, #22
2000058e:	2000      	movs	r0, #0
20000590:	0588      	lsls	r0, r1, #22
20000592:	2000      	movs	r0, #0
20000594:	0588      	lsls	r0, r1, #22
20000596:	2000      	movs	r0, #0
20000598:	0590      	lsls	r0, r2, #22
2000059a:	2000      	movs	r0, #0
2000059c:	0590      	lsls	r0, r2, #22
2000059e:	2000      	movs	r0, #0
200005a0:	0598      	lsls	r0, r3, #22
200005a2:	2000      	movs	r0, #0
200005a4:	0598      	lsls	r0, r3, #22
200005a6:	2000      	movs	r0, #0
200005a8:	05a0      	lsls	r0, r4, #22
200005aa:	2000      	movs	r0, #0
200005ac:	05a0      	lsls	r0, r4, #22
200005ae:	2000      	movs	r0, #0
200005b0:	05a8      	lsls	r0, r5, #22
200005b2:	2000      	movs	r0, #0
200005b4:	05a8      	lsls	r0, r5, #22
200005b6:	2000      	movs	r0, #0
200005b8:	05b0      	lsls	r0, r6, #22
200005ba:	2000      	movs	r0, #0
200005bc:	05b0      	lsls	r0, r6, #22
200005be:	2000      	movs	r0, #0
200005c0:	05b8      	lsls	r0, r7, #22
200005c2:	2000      	movs	r0, #0
200005c4:	05b8      	lsls	r0, r7, #22
200005c6:	2000      	movs	r0, #0
200005c8:	05c0      	lsls	r0, r0, #23
200005ca:	2000      	movs	r0, #0
200005cc:	05c0      	lsls	r0, r0, #23
200005ce:	2000      	movs	r0, #0
200005d0:	05c8      	lsls	r0, r1, #23
200005d2:	2000      	movs	r0, #0
200005d4:	05c8      	lsls	r0, r1, #23
200005d6:	2000      	movs	r0, #0
200005d8:	05d0      	lsls	r0, r2, #23
200005da:	2000      	movs	r0, #0
200005dc:	05d0      	lsls	r0, r2, #23
200005de:	2000      	movs	r0, #0
200005e0:	05d8      	lsls	r0, r3, #23
200005e2:	2000      	movs	r0, #0
200005e4:	05d8      	lsls	r0, r3, #23
200005e6:	2000      	movs	r0, #0
200005e8:	05e0      	lsls	r0, r4, #23
200005ea:	2000      	movs	r0, #0
200005ec:	05e0      	lsls	r0, r4, #23
200005ee:	2000      	movs	r0, #0
200005f0:	05e8      	lsls	r0, r5, #23
200005f2:	2000      	movs	r0, #0
200005f4:	05e8      	lsls	r0, r5, #23
200005f6:	2000      	movs	r0, #0
200005f8:	05f0      	lsls	r0, r6, #23
200005fa:	2000      	movs	r0, #0
200005fc:	05f0      	lsls	r0, r6, #23
200005fe:	2000      	movs	r0, #0
20000600:	05f8      	lsls	r0, r7, #23
20000602:	2000      	movs	r0, #0
20000604:	05f8      	lsls	r0, r7, #23
20000606:	2000      	movs	r0, #0
20000608:	0600      	lsls	r0, r0, #24
2000060a:	2000      	movs	r0, #0
2000060c:	0600      	lsls	r0, r0, #24
2000060e:	2000      	movs	r0, #0
20000610:	0608      	lsls	r0, r1, #24
20000612:	2000      	movs	r0, #0
20000614:	0608      	lsls	r0, r1, #24
20000616:	2000      	movs	r0, #0
20000618:	0610      	lsls	r0, r2, #24
2000061a:	2000      	movs	r0, #0
2000061c:	0610      	lsls	r0, r2, #24
2000061e:	2000      	movs	r0, #0
20000620:	0618      	lsls	r0, r3, #24
20000622:	2000      	movs	r0, #0
20000624:	0618      	lsls	r0, r3, #24
20000626:	2000      	movs	r0, #0
20000628:	0620      	lsls	r0, r4, #24
2000062a:	2000      	movs	r0, #0
2000062c:	0620      	lsls	r0, r4, #24
2000062e:	2000      	movs	r0, #0
20000630:	0628      	lsls	r0, r5, #24
20000632:	2000      	movs	r0, #0
20000634:	0628      	lsls	r0, r5, #24
20000636:	2000      	movs	r0, #0
20000638:	0630      	lsls	r0, r6, #24
2000063a:	2000      	movs	r0, #0
2000063c:	0630      	lsls	r0, r6, #24
2000063e:	2000      	movs	r0, #0
20000640:	0638      	lsls	r0, r7, #24
20000642:	2000      	movs	r0, #0
20000644:	0638      	lsls	r0, r7, #24
20000646:	2000      	movs	r0, #0
20000648:	0640      	lsls	r0, r0, #25
2000064a:	2000      	movs	r0, #0
2000064c:	0640      	lsls	r0, r0, #25
2000064e:	2000      	movs	r0, #0
20000650:	0648      	lsls	r0, r1, #25
20000652:	2000      	movs	r0, #0
20000654:	0648      	lsls	r0, r1, #25
20000656:	2000      	movs	r0, #0
20000658:	0650      	lsls	r0, r2, #25
2000065a:	2000      	movs	r0, #0
2000065c:	0650      	lsls	r0, r2, #25
2000065e:	2000      	movs	r0, #0
20000660:	0658      	lsls	r0, r3, #25
20000662:	2000      	movs	r0, #0
20000664:	0658      	lsls	r0, r3, #25
20000666:	2000      	movs	r0, #0
20000668:	0660      	lsls	r0, r4, #25
2000066a:	2000      	movs	r0, #0
2000066c:	0660      	lsls	r0, r4, #25
2000066e:	2000      	movs	r0, #0
20000670:	0668      	lsls	r0, r5, #25
20000672:	2000      	movs	r0, #0
20000674:	0668      	lsls	r0, r5, #25
20000676:	2000      	movs	r0, #0
20000678:	0670      	lsls	r0, r6, #25
2000067a:	2000      	movs	r0, #0
2000067c:	0670      	lsls	r0, r6, #25
2000067e:	2000      	movs	r0, #0
20000680:	0678      	lsls	r0, r7, #25
20000682:	2000      	movs	r0, #0
20000684:	0678      	lsls	r0, r7, #25
20000686:	2000      	movs	r0, #0
20000688:	0680      	lsls	r0, r0, #26
2000068a:	2000      	movs	r0, #0
2000068c:	0680      	lsls	r0, r0, #26
2000068e:	2000      	movs	r0, #0
20000690:	0688      	lsls	r0, r1, #26
20000692:	2000      	movs	r0, #0
20000694:	0688      	lsls	r0, r1, #26
20000696:	2000      	movs	r0, #0
20000698:	0690      	lsls	r0, r2, #26
2000069a:	2000      	movs	r0, #0
2000069c:	0690      	lsls	r0, r2, #26
2000069e:	2000      	movs	r0, #0
200006a0:	0698      	lsls	r0, r3, #26
200006a2:	2000      	movs	r0, #0
200006a4:	0698      	lsls	r0, r3, #26
200006a6:	2000      	movs	r0, #0
200006a8:	06a0      	lsls	r0, r4, #26
200006aa:	2000      	movs	r0, #0
200006ac:	06a0      	lsls	r0, r4, #26
200006ae:	2000      	movs	r0, #0
200006b0:	06a8      	lsls	r0, r5, #26
200006b2:	2000      	movs	r0, #0
200006b4:	06a8      	lsls	r0, r5, #26
200006b6:	2000      	movs	r0, #0
200006b8:	06b0      	lsls	r0, r6, #26
200006ba:	2000      	movs	r0, #0
200006bc:	06b0      	lsls	r0, r6, #26
200006be:	2000      	movs	r0, #0
200006c0:	06b8      	lsls	r0, r7, #26
200006c2:	2000      	movs	r0, #0
200006c4:	06b8      	lsls	r0, r7, #26
200006c6:	2000      	movs	r0, #0
200006c8:	06c0      	lsls	r0, r0, #27
200006ca:	2000      	movs	r0, #0
200006cc:	06c0      	lsls	r0, r0, #27
200006ce:	2000      	movs	r0, #0
200006d0:	06c8      	lsls	r0, r1, #27
200006d2:	2000      	movs	r0, #0
200006d4:	06c8      	lsls	r0, r1, #27
200006d6:	2000      	movs	r0, #0
200006d8:	06d0      	lsls	r0, r2, #27
200006da:	2000      	movs	r0, #0
200006dc:	06d0      	lsls	r0, r2, #27
200006de:	2000      	movs	r0, #0
200006e0:	06d8      	lsls	r0, r3, #27
200006e2:	2000      	movs	r0, #0
200006e4:	06d8      	lsls	r0, r3, #27
200006e6:	2000      	movs	r0, #0
200006e8:	06e0      	lsls	r0, r4, #27
200006ea:	2000      	movs	r0, #0
200006ec:	06e0      	lsls	r0, r4, #27
200006ee:	2000      	movs	r0, #0
200006f0:	06e8      	lsls	r0, r5, #27
200006f2:	2000      	movs	r0, #0
200006f4:	06e8      	lsls	r0, r5, #27
200006f6:	2000      	movs	r0, #0
200006f8:	06f0      	lsls	r0, r6, #27
200006fa:	2000      	movs	r0, #0
200006fc:	06f0      	lsls	r0, r6, #27
200006fe:	2000      	movs	r0, #0
20000700:	06f8      	lsls	r0, r7, #27
20000702:	2000      	movs	r0, #0
20000704:	06f8      	lsls	r0, r7, #27
20000706:	2000      	movs	r0, #0
20000708:	0700      	lsls	r0, r0, #28
2000070a:	2000      	movs	r0, #0
2000070c:	0700      	lsls	r0, r0, #28
2000070e:	2000      	movs	r0, #0
20000710:	0708      	lsls	r0, r1, #28
20000712:	2000      	movs	r0, #0
20000714:	0708      	lsls	r0, r1, #28
20000716:	2000      	movs	r0, #0
20000718:	0710      	lsls	r0, r2, #28
2000071a:	2000      	movs	r0, #0
2000071c:	0710      	lsls	r0, r2, #28
2000071e:	2000      	movs	r0, #0
20000720:	0718      	lsls	r0, r3, #28
20000722:	2000      	movs	r0, #0
20000724:	0718      	lsls	r0, r3, #28
20000726:	2000      	movs	r0, #0
20000728:	0720      	lsls	r0, r4, #28
2000072a:	2000      	movs	r0, #0
2000072c:	0720      	lsls	r0, r4, #28
2000072e:	2000      	movs	r0, #0
20000730:	0728      	lsls	r0, r5, #28
20000732:	2000      	movs	r0, #0
20000734:	0728      	lsls	r0, r5, #28
20000736:	2000      	movs	r0, #0
20000738:	0730      	lsls	r0, r6, #28
2000073a:	2000      	movs	r0, #0
2000073c:	0730      	lsls	r0, r6, #28
2000073e:	2000      	movs	r0, #0
20000740:	0738      	lsls	r0, r7, #28
20000742:	2000      	movs	r0, #0
20000744:	0738      	lsls	r0, r7, #28
20000746:	2000      	movs	r0, #0
20000748:	0740      	lsls	r0, r0, #29
2000074a:	2000      	movs	r0, #0
2000074c:	0740      	lsls	r0, r0, #29
2000074e:	2000      	movs	r0, #0
20000750:	0748      	lsls	r0, r1, #29
20000752:	2000      	movs	r0, #0
20000754:	0748      	lsls	r0, r1, #29
20000756:	2000      	movs	r0, #0
20000758:	0750      	lsls	r0, r2, #29
2000075a:	2000      	movs	r0, #0
2000075c:	0750      	lsls	r0, r2, #29
2000075e:	2000      	movs	r0, #0
20000760:	0758      	lsls	r0, r3, #29
20000762:	2000      	movs	r0, #0
20000764:	0758      	lsls	r0, r3, #29
20000766:	2000      	movs	r0, #0
20000768:	0760      	lsls	r0, r4, #29
2000076a:	2000      	movs	r0, #0
2000076c:	0760      	lsls	r0, r4, #29
2000076e:	2000      	movs	r0, #0
20000770:	0768      	lsls	r0, r5, #29
20000772:	2000      	movs	r0, #0
20000774:	0768      	lsls	r0, r5, #29
20000776:	2000      	movs	r0, #0
20000778:	0770      	lsls	r0, r6, #29
2000077a:	2000      	movs	r0, #0
2000077c:	0770      	lsls	r0, r6, #29
2000077e:	2000      	movs	r0, #0
20000780:	0778      	lsls	r0, r7, #29
20000782:	2000      	movs	r0, #0
20000784:	0778      	lsls	r0, r7, #29
20000786:	2000      	movs	r0, #0
20000788:	0780      	lsls	r0, r0, #30
2000078a:	2000      	movs	r0, #0
2000078c:	0780      	lsls	r0, r0, #30
2000078e:	2000      	movs	r0, #0
20000790:	0788      	lsls	r0, r1, #30
20000792:	2000      	movs	r0, #0
20000794:	0788      	lsls	r0, r1, #30
20000796:	2000      	movs	r0, #0
20000798:	0790      	lsls	r0, r2, #30
2000079a:	2000      	movs	r0, #0
2000079c:	0790      	lsls	r0, r2, #30
2000079e:	2000      	movs	r0, #0
200007a0:	0798      	lsls	r0, r3, #30
200007a2:	2000      	movs	r0, #0
200007a4:	0798      	lsls	r0, r3, #30
200007a6:	2000      	movs	r0, #0
200007a8:	07a0      	lsls	r0, r4, #30
200007aa:	2000      	movs	r0, #0
200007ac:	07a0      	lsls	r0, r4, #30
200007ae:	2000      	movs	r0, #0
200007b0:	07a8      	lsls	r0, r5, #30
200007b2:	2000      	movs	r0, #0
200007b4:	07a8      	lsls	r0, r5, #30
200007b6:	2000      	movs	r0, #0
200007b8:	07b0      	lsls	r0, r6, #30
200007ba:	2000      	movs	r0, #0
200007bc:	07b0      	lsls	r0, r6, #30
200007be:	2000      	movs	r0, #0
200007c0:	07b8      	lsls	r0, r7, #30
200007c2:	2000      	movs	r0, #0
200007c4:	07b8      	lsls	r0, r7, #30
200007c6:	2000      	movs	r0, #0
200007c8:	07c0      	lsls	r0, r0, #31
200007ca:	2000      	movs	r0, #0
200007cc:	07c0      	lsls	r0, r0, #31
200007ce:	2000      	movs	r0, #0
200007d0:	07c8      	lsls	r0, r1, #31
200007d2:	2000      	movs	r0, #0
200007d4:	07c8      	lsls	r0, r1, #31
200007d6:	2000      	movs	r0, #0
200007d8:	07d0      	lsls	r0, r2, #31
200007da:	2000      	movs	r0, #0
200007dc:	07d0      	lsls	r0, r2, #31
200007de:	2000      	movs	r0, #0
200007e0:	07d8      	lsls	r0, r3, #31
200007e2:	2000      	movs	r0, #0
200007e4:	07d8      	lsls	r0, r3, #31
200007e6:	2000      	movs	r0, #0
200007e8:	07e0      	lsls	r0, r4, #31
200007ea:	2000      	movs	r0, #0
200007ec:	07e0      	lsls	r0, r4, #31
200007ee:	2000      	movs	r0, #0
200007f0:	07e8      	lsls	r0, r5, #31
200007f2:	2000      	movs	r0, #0
200007f4:	07e8      	lsls	r0, r5, #31
200007f6:	2000      	movs	r0, #0
200007f8:	07f0      	lsls	r0, r6, #31
200007fa:	2000      	movs	r0, #0
200007fc:	07f0      	lsls	r0, r6, #31
200007fe:	2000      	movs	r0, #0
20000800:	07f8      	lsls	r0, r7, #31
20000802:	2000      	movs	r0, #0
20000804:	07f8      	lsls	r0, r7, #31
20000806:	2000      	movs	r0, #0
20000808:	0800      	lsrs	r0, r0, #32
2000080a:	2000      	movs	r0, #0
2000080c:	0800      	lsrs	r0, r0, #32
2000080e:	2000      	movs	r0, #0
20000810:	0808      	lsrs	r0, r1, #32
20000812:	2000      	movs	r0, #0
20000814:	0808      	lsrs	r0, r1, #32
20000816:	2000      	movs	r0, #0
20000818:	0810      	lsrs	r0, r2, #32
2000081a:	2000      	movs	r0, #0
2000081c:	0810      	lsrs	r0, r2, #32
2000081e:	2000      	movs	r0, #0
20000820:	0818      	lsrs	r0, r3, #32
20000822:	2000      	movs	r0, #0
20000824:	0818      	lsrs	r0, r3, #32
20000826:	2000      	movs	r0, #0
20000828:	0820      	lsrs	r0, r4, #32
2000082a:	2000      	movs	r0, #0
2000082c:	0820      	lsrs	r0, r4, #32
2000082e:	2000      	movs	r0, #0
20000830:	0828      	lsrs	r0, r5, #32
20000832:	2000      	movs	r0, #0
20000834:	0828      	lsrs	r0, r5, #32
20000836:	2000      	movs	r0, #0
20000838:	0830      	lsrs	r0, r6, #32
2000083a:	2000      	movs	r0, #0
2000083c:	0830      	lsrs	r0, r6, #32
2000083e:	2000      	movs	r0, #0
20000840:	0838      	lsrs	r0, r7, #32
20000842:	2000      	movs	r0, #0
20000844:	0838      	lsrs	r0, r7, #32
20000846:	2000      	movs	r0, #0
20000848:	0840      	lsrs	r0, r0, #1
2000084a:	2000      	movs	r0, #0
2000084c:	0840      	lsrs	r0, r0, #1
2000084e:	2000      	movs	r0, #0
20000850:	0848      	lsrs	r0, r1, #1
20000852:	2000      	movs	r0, #0
20000854:	0848      	lsrs	r0, r1, #1
20000856:	2000      	movs	r0, #0
20000858:	0850      	lsrs	r0, r2, #1
2000085a:	2000      	movs	r0, #0
2000085c:	0850      	lsrs	r0, r2, #1
2000085e:	2000      	movs	r0, #0
20000860:	0858      	lsrs	r0, r3, #1
20000862:	2000      	movs	r0, #0
20000864:	0858      	lsrs	r0, r3, #1
20000866:	2000      	movs	r0, #0
20000868:	0860      	lsrs	r0, r4, #1
2000086a:	2000      	movs	r0, #0
2000086c:	0860      	lsrs	r0, r4, #1
2000086e:	2000      	movs	r0, #0
20000870:	0868      	lsrs	r0, r5, #1
20000872:	2000      	movs	r0, #0
20000874:	0868      	lsrs	r0, r5, #1
20000876:	2000      	movs	r0, #0
20000878:	0870      	lsrs	r0, r6, #1
2000087a:	2000      	movs	r0, #0
2000087c:	0870      	lsrs	r0, r6, #1
2000087e:	2000      	movs	r0, #0
20000880:	0878      	lsrs	r0, r7, #1
20000882:	2000      	movs	r0, #0
20000884:	0878      	lsrs	r0, r7, #1
20000886:	2000      	movs	r0, #0
20000888:	0880      	lsrs	r0, r0, #2
2000088a:	2000      	movs	r0, #0
2000088c:	0880      	lsrs	r0, r0, #2
2000088e:	2000      	movs	r0, #0
20000890:	0888      	lsrs	r0, r1, #2
20000892:	2000      	movs	r0, #0
20000894:	0888      	lsrs	r0, r1, #2
20000896:	2000      	movs	r0, #0
20000898:	0890      	lsrs	r0, r2, #2
2000089a:	2000      	movs	r0, #0
2000089c:	0890      	lsrs	r0, r2, #2
2000089e:	2000      	movs	r0, #0
200008a0:	0898      	lsrs	r0, r3, #2
200008a2:	2000      	movs	r0, #0
200008a4:	0898      	lsrs	r0, r3, #2
200008a6:	2000      	movs	r0, #0
200008a8:	08a0      	lsrs	r0, r4, #2
200008aa:	2000      	movs	r0, #0
200008ac:	08a0      	lsrs	r0, r4, #2
200008ae:	2000      	movs	r0, #0
200008b0:	08a8      	lsrs	r0, r5, #2
200008b2:	2000      	movs	r0, #0
200008b4:	08a8      	lsrs	r0, r5, #2
200008b6:	2000      	movs	r0, #0
200008b8:	08b0      	lsrs	r0, r6, #2
200008ba:	2000      	movs	r0, #0
200008bc:	08b0      	lsrs	r0, r6, #2
200008be:	2000      	movs	r0, #0
200008c0:	08b8      	lsrs	r0, r7, #2
200008c2:	2000      	movs	r0, #0
200008c4:	08b8      	lsrs	r0, r7, #2
200008c6:	2000      	movs	r0, #0
200008c8:	08c0      	lsrs	r0, r0, #3
200008ca:	2000      	movs	r0, #0
200008cc:	08c0      	lsrs	r0, r0, #3
200008ce:	2000      	movs	r0, #0
200008d0:	08c8      	lsrs	r0, r1, #3
200008d2:	2000      	movs	r0, #0
200008d4:	08c8      	lsrs	r0, r1, #3
200008d6:	2000      	movs	r0, #0
200008d8:	08d0      	lsrs	r0, r2, #3
200008da:	2000      	movs	r0, #0
200008dc:	08d0      	lsrs	r0, r2, #3
200008de:	2000      	movs	r0, #0
200008e0:	08d8      	lsrs	r0, r3, #3
200008e2:	2000      	movs	r0, #0
200008e4:	08d8      	lsrs	r0, r3, #3
200008e6:	2000      	movs	r0, #0
200008e8:	08e0      	lsrs	r0, r4, #3
200008ea:	2000      	movs	r0, #0
200008ec:	08e0      	lsrs	r0, r4, #3
200008ee:	2000      	movs	r0, #0
200008f0:	08e8      	lsrs	r0, r5, #3
200008f2:	2000      	movs	r0, #0
200008f4:	08e8      	lsrs	r0, r5, #3
200008f6:	2000      	movs	r0, #0
200008f8:	08f0      	lsrs	r0, r6, #3
200008fa:	2000      	movs	r0, #0
200008fc:	08f0      	lsrs	r0, r6, #3
200008fe:	2000      	movs	r0, #0
20000900:	08f8      	lsrs	r0, r7, #3
20000902:	2000      	movs	r0, #0
20000904:	08f8      	lsrs	r0, r7, #3
20000906:	2000      	movs	r0, #0
20000908:	0900      	lsrs	r0, r0, #4
2000090a:	2000      	movs	r0, #0
2000090c:	0900      	lsrs	r0, r0, #4
2000090e:	2000      	movs	r0, #0
20000910:	0908      	lsrs	r0, r1, #4
20000912:	2000      	movs	r0, #0
20000914:	0908      	lsrs	r0, r1, #4
20000916:	2000      	movs	r0, #0
20000918:	0910      	lsrs	r0, r2, #4
2000091a:	2000      	movs	r0, #0
2000091c:	0910      	lsrs	r0, r2, #4
2000091e:	2000      	movs	r0, #0
20000920:	0918      	lsrs	r0, r3, #4
20000922:	2000      	movs	r0, #0
20000924:	0918      	lsrs	r0, r3, #4
20000926:	2000      	movs	r0, #0
20000928:	0920      	lsrs	r0, r4, #4
2000092a:	2000      	movs	r0, #0
2000092c:	0920      	lsrs	r0, r4, #4
2000092e:	2000      	movs	r0, #0
20000930:	0928      	lsrs	r0, r5, #4
20000932:	2000      	movs	r0, #0
20000934:	0928      	lsrs	r0, r5, #4
20000936:	2000      	movs	r0, #0
20000938:	0930      	lsrs	r0, r6, #4
2000093a:	2000      	movs	r0, #0
2000093c:	0930      	lsrs	r0, r6, #4
2000093e:	2000      	movs	r0, #0
20000940:	0938      	lsrs	r0, r7, #4
20000942:	2000      	movs	r0, #0
20000944:	0938      	lsrs	r0, r7, #4
20000946:	2000      	movs	r0, #0
20000948:	0940      	lsrs	r0, r0, #5
2000094a:	2000      	movs	r0, #0
2000094c:	0940      	lsrs	r0, r0, #5
2000094e:	2000      	movs	r0, #0
20000950:	0948      	lsrs	r0, r1, #5
20000952:	2000      	movs	r0, #0
20000954:	0948      	lsrs	r0, r1, #5
20000956:	2000      	movs	r0, #0
20000958:	0950      	lsrs	r0, r2, #5
2000095a:	2000      	movs	r0, #0
2000095c:	0950      	lsrs	r0, r2, #5
2000095e:	2000      	movs	r0, #0
20000960:	0958      	lsrs	r0, r3, #5
20000962:	2000      	movs	r0, #0
20000964:	0958      	lsrs	r0, r3, #5
20000966:	2000      	movs	r0, #0

20000968 <__malloc_sbrk_base>:
20000968:	ffff ffff 			; <UNDEFINED> instruction: 0xffffffff

2000096c <__malloc_trim_threshold>:
2000096c:	0000      	movs	r0, r0
2000096e:	0002      	movs	r2, r0

20000970 <__atexit_recursive_mutex>:
20000970:	52b8      	strh	r0, [r7, r2]
20000972:	2000      	movs	r0, #0

Disassembly of section .bss:

20000978 <__bss_start__>:
20000978:	0000      	movs	r0, r0
	...

2000097c <object.0>:
	...

20000994 <usbd_printer>:
	...

20000d5c <reg_snap.0>:
	...

20000d6c <usbfs_prescaler>:
20000d6c:	0000      	movs	r0, r0
	...

20000d70 <delay_time>:
20000d70:	0000      	movs	r0, r0
	...

20000d74 <gu32TimeMs>:
20000d74:	0000      	movs	r0, r0
	...

20000d78 <gu8NumberOFusPerMs>:
20000d78:	0000      	movs	r0, r0
	...

20000d7c <gu16SecondEvent>:
20000d7c:	0000      	movs	r0, r0
	...

20000d80 <gu8halfSecondEvent>:
20000d80:	0000      	movs	r0, r0
	...

20000d84 <gu8SecondEventFlag>:
20000d84:	0000      	movs	r0, r0
	...

20000d88 <gu32SystemTime>:
20000d88:	0000      	movs	r0, r0
	...

20000d8c <gu32SystemTick>:
20000d8c:	0000      	movs	r0, r0
	...

20000d90 <usbd_read>:
20000d90:	0000      	movs	r0, r0
	...

20000d94 <g_printer_data_buf>:
	...

20000dd4 <status.0>:
	...

20000dd6 <config.1>:
	...

20000dd8 <gstEscPosReceiveBuffer>:
	...

20000de4 <gutEscpos>:
20000de4:	0000      	movs	r0, r0
	...

20000de8 <gu8EscPosReceiveBuffer>:
	...

20001de8 <gstescposCommand>:
	...

20001df4 <gpstEscPosReceiveBuffer>:
20001df4:	0000      	movs	r0, r0
	...

20001df8 <gstCurrentCommand>:
	...

20001e00 <gpstCurrentCommandLoadArray>:
20001e00:	0000      	movs	r0, r0
	...

20001e04 <gstPrintHead>:
	...

20001e20 <gstHardwareData>:
20001e20:	0000      	movs	r0, r0
	...

20001e24 <gstFifoAction>:
	...

20001e34 <rest.3>:
	...

20001e36 <gsStepCounter.2>:
	...

20001e38 <toggle.1>:
	...

20001e39 <currStep.0>:
20001e39:	0000      	movs	r0, r0
	...

20001e3c <timebuffer>:
	...

20001eb4 <Timer_VALUE>:
20001eb4:	0000      	movs	r0, r0
	...

20001eb8 <gu8MaxActions>:
	...

20001fb8 <gstDrawing>:
	...

20001fe0 <gstVar>:
	...

20001fe8 <gstBitImag>:
	...

20001ff0 <gu8TabTabl>:
	...

20002010 <gstBitImageHeader>:
	...

2000201c <gstImagesMangement>:
	...

20002024 <gu8CodePageBitMap>:
	...

20003224 <gutDipSwitch>:
20003224:	0000      	movs	r0, r0
	...

20003228 <gutUserBuffer>:
	...

20004220 <gutflashFlags>:
20004220:	0000      	movs	r0, r0
	...

20004224 <gstFlashData>:
	...

2000424c <gpFunCurrentCommand>:
2000424c:	0000      	movs	r0, r0
	...

20004250 <gstSPITimeOut>:
20004250:	0000      	movs	r0, r0
	...

20004254 <gstFlashTimeOut>:
20004254:	0000      	movs	r0, r0
	...

20004258 <gu8SectorBuffer>:
	...

20005258 <gstTones>:
	...

2000526c <gstUserState>:
	...

20005278 <toggle.0>:
20005278:	0000      	movs	r0, r0
	...

2000527c <gstMotorSwitch>:
2000527c:	0000      	movs	r0, r0
	...

20005280 <gstCutterTimeOut>:
20005280:	0000      	movs	r0, r0
	...

20005284 <__malloc_current_mallinfo>:
	...

200052ac <__malloc_max_sbrked_mem>:
200052ac:	0000      	movs	r0, r0
	...

200052b0 <__malloc_max_total_mem>:
200052b0:	0000      	movs	r0, r0
	...

200052b4 <__malloc_top_pad>:
200052b4:	0000      	movs	r0, r0
	...

200052b8 <__lock___atexit_recursive_mutex>:
200052b8:	0000      	movs	r0, r0
	...

200052bc <__lock___malloc_recursive_mutex>:
200052bc:	0000      	movs	r0, r0
	...

200052c0 <errno>:
200052c0:	0000      	movs	r0, r0
	...

200052c4 <heap_end.0>:
200052c4:	0000      	movs	r0, r0
	...

Disassembly of section .stack:

20017800 <_sp-0x800>:
	...

Disassembly of section .comment:

00000000 <.comment>:
   0:	4347      	muls	r7, r0
   2:	3a43      	subs	r2, #67	; 0x43
   4:	2820      	cmp	r0, #32
   6:	4e47      	ldr	r6, [pc, #284]	; (124 <__MPLAB_BUILD+0x123>)
   8:	2055      	movs	r0, #85	; 0x55
   a:	7241      	strb	r1, [r0, #9]
   c:	206d      	movs	r0, #109	; 0x6d
   e:	6d45      	ldr	r5, [r0, #84]	; 0x54
  10:	6562      	str	r2, [r4, #84]	; 0x54
  12:	6464      	str	r4, [r4, #68]	; 0x44
  14:	6465      	str	r5, [r4, #68]	; 0x44
  16:	5420      	strb	r0, [r4, r0]
  18:	6f6f      	ldr	r7, [r5, #116]	; 0x74
  1a:	636c      	str	r4, [r5, #52]	; 0x34
  1c:	6168      	str	r0, [r5, #20]
  1e:	6e69      	ldr	r1, [r5, #100]	; 0x64
  20:	3120      	adds	r1, #32
  22:	2d30      	cmp	r5, #48	; 0x30
  24:	3032      	adds	r0, #50	; 0x32
  26:	3032      	adds	r0, #50	; 0x32
  28:	712d      	strb	r5, [r5, #4]
  2a:	2d34      	cmp	r5, #52	; 0x34
  2c:	616d      	str	r5, [r5, #20]
  2e:	6f6a      	ldr	r2, [r5, #116]	; 0x74
  30:	2972      	cmp	r1, #114	; 0x72
  32:	3120      	adds	r1, #32
  34:	2e30      	cmp	r6, #48	; 0x30
  36:	2e32      	cmp	r6, #50	; 0x32
  38:	2031      	movs	r0, #49	; 0x31
  3a:	3032      	adds	r0, #50	; 0x32
  3c:	3032      	adds	r0, #50	; 0x32
  3e:	3131      	adds	r1, #49	; 0x31
  40:	3330      	adds	r3, #48	; 0x30
  42:	2820      	cmp	r0, #32
  44:	6572      	str	r2, [r6, #84]	; 0x54
  46:	656c      	str	r4, [r5, #84]	; 0x54
  48:	7361      	strb	r1, [r4, #13]
  4a:	2965      	cmp	r1, #101	; 0x65
	...

Disassembly of section .debug_frame:

00000000 <.debug_frame>:
   0:	000c      	movs	r4, r1
   2:	0000      	movs	r0, r0
   4:	ffff ffff 			; <UNDEFINED> instruction: 0xffffffff
   8:	0001      	movs	r1, r0
   a:	7c02      	ldrb	r2, [r0, #16]
   c:	0c0e      	lsrs	r6, r1, #16
   e:	000d      	movs	r5, r1
  10:	0018      	movs	r0, r3
  12:	0000      	movs	r0, r0
  14:	0000      	movs	r0, r0
  16:	0000      	movs	r0, r0
  18:	6a8c      	ldr	r4, [r1, #40]	; 0x28
  1a:	0800      	lsrs	r0, r0, #32
  1c:	0048      	lsls	r0, r1, #1
  1e:	0000      	movs	r0, r0
  20:	0e41      	lsrs	r1, r0, #25
  22:	8410      	strh	r0, [r2, #32]
  24:	8504      	strh	r4, [r0, #40]	; 0x28
  26:	8603      	strh	r3, [r0, #48]	; 0x30
  28:	8e02      	ldrh	r2, [r0, #48]	; 0x30
  2a:	0001      	movs	r1, r0
  2c:	000c      	movs	r4, r1
  2e:	0000      	movs	r0, r0
  30:	ffff ffff 			; <UNDEFINED> instruction: 0xffffffff
  34:	0001      	movs	r1, r0
  36:	7c02      	ldrb	r2, [r0, #16]
  38:	0c0e      	lsrs	r6, r1, #16
  3a:	000d      	movs	r5, r1
  3c:	000c      	movs	r4, r1
  3e:	0000      	movs	r0, r0
  40:	002c      	movs	r4, r5
  42:	0000      	movs	r0, r0
  44:	6ad4      	ldr	r4, [r2, #44]	; 0x2c
  46:	0800      	lsrs	r0, r0, #32
  48:	0010      	movs	r0, r2
  4a:	0000      	movs	r0, r0
  4c:	000c      	movs	r4, r1
  4e:	0000      	movs	r0, r0
  50:	002c      	movs	r4, r5
  52:	0000      	movs	r0, r0
  54:	6ae4      	ldr	r4, [r4, #44]	; 0x2c
  56:	0800      	lsrs	r0, r0, #32
  58:	0010      	movs	r0, r2
  5a:	0000      	movs	r0, r0
  5c:	000c      	movs	r4, r1
  5e:	0000      	movs	r0, r0
  60:	ffff ffff 			; <UNDEFINED> instruction: 0xffffffff
  64:	0001      	movs	r1, r0
  66:	7c02      	ldrb	r2, [r0, #16]
  68:	0c0e      	lsrs	r6, r1, #16
  6a:	000d      	movs	r5, r1
  6c:	0038      	movs	r0, r7
  6e:	0000      	movs	r0, r0
  70:	005c      	lsls	r4, r3, #1
  72:	0000      	movs	r0, r0
  74:	6af4      	ldr	r4, [r6, #44]	; 0x2c
  76:	0800      	lsrs	r0, r0, #32
  78:	0560      	lsls	r0, r4, #21
  7a:	0000      	movs	r0, r0
  7c:	0e42      	lsrs	r2, r0, #25
  7e:	8424      	strh	r4, [r4, #32]
  80:	8509      	strh	r1, [r1, #40]	; 0x28
  82:	8608      	strh	r0, [r1, #48]	; 0x30
  84:	8707      	strh	r7, [r0, #56]	; 0x38
  86:	8806      	ldrh	r6, [r0, #0]
  88:	8905      	ldrh	r5, [r0, #8]
  8a:	8a04      	ldrh	r4, [r0, #16]
  8c:	8b03      	ldrh	r3, [r0, #24]
  8e:	8e02      	ldrh	r2, [r0, #48]	; 0x30
  90:	4401      	add	r1, r0
  92:	300e      	adds	r0, #14
  94:	0a65      	lsrs	r5, r4, #9
  96:	240e      	movs	r4, #14
  98:	0b42      	lsrs	r2, r0, #13
  9a:	9d02      	ldr	r5, [sp, #8]
  9c:	0e0a      	lsrs	r2, r1, #24
  9e:	4224      	tst	r4, r4
  a0:	020b      	lsls	r3, r1, #8
  a2:	0aaa      	lsrs	r2, r5, #10
  a4:	240e      	movs	r4, #14
  a6:	0b42      	lsrs	r2, r0, #13
  a8:	000c      	movs	r4, r1
  aa:	0000      	movs	r0, r0
  ac:	ffff ffff 			; <UNDEFINED> instruction: 0xffffffff
  b0:	0001      	movs	r1, r0
  b2:	7c02      	ldrb	r2, [r0, #16]
  b4:	0c0e      	lsrs	r6, r1, #16
  b6:	000d      	movs	r5, r1
  b8:	0018      	movs	r0, r3
  ba:	0000      	movs	r0, r0
  bc:	00a8      	lsls	r0, r5, #2
  be:	0000      	movs	r0, r0
  c0:	7054      	strb	r4, [r2, #1]
  c2:	0800      	lsrs	r0, r0, #32
  c4:	00a4      	lsls	r4, r4, #2
  c6:	0000      	movs	r0, r0
  c8:	0e42      	lsrs	r2, r0, #25
  ca:	840c      	strh	r4, [r1, #32]
  cc:	8503      	strh	r3, [r0, #40]	; 0x28
  ce:	8e02      	ldrh	r2, [r0, #48]	; 0x30
  d0:	0001      	movs	r1, r0
  d2:	0000      	movs	r0, r0
  d4:	000c      	movs	r4, r1
  d6:	0000      	movs	r0, r0
  d8:	ffff ffff 			; <UNDEFINED> instruction: 0xffffffff
  dc:	0001      	movs	r1, r0
  de:	7c02      	ldrb	r2, [r0, #16]
  e0:	0c0e      	lsrs	r6, r1, #16
  e2:	000d      	movs	r5, r1
  e4:	000c      	movs	r4, r1
  e6:	0000      	movs	r0, r0
  e8:	00d4      	lsls	r4, r2, #3
  ea:	0000      	movs	r0, r0
  ec:	70f8      	strb	r0, [r7, #3]
  ee:	0800      	lsrs	r0, r0, #32
  f0:	000c      	movs	r4, r1
  f2:	0000      	movs	r0, r0
  f4:	000c      	movs	r4, r1
  f6:	0000      	movs	r0, r0
  f8:	00d4      	lsls	r4, r2, #3
  fa:	0000      	movs	r0, r0
  fc:	7104      	strb	r4, [r0, #4]
  fe:	0800      	lsrs	r0, r0, #32
 100:	000c      	movs	r4, r1
 102:	0000      	movs	r0, r0
 104:	000c      	movs	r4, r1
 106:	0000      	movs	r0, r0
 108:	ffff ffff 			; <UNDEFINED> instruction: 0xffffffff
 10c:	0001      	movs	r1, r0
 10e:	7c02      	ldrb	r2, [r0, #16]
 110:	0c0e      	lsrs	r6, r1, #16
 112:	000d      	movs	r5, r1
 114:	0018      	movs	r0, r3
 116:	0000      	movs	r0, r0
 118:	0104      	lsls	r4, r0, #4
 11a:	0000      	movs	r0, r0
 11c:	7110      	strb	r0, [r2, #4]
 11e:	0800      	lsrs	r0, r0, #32
 120:	0024      	movs	r4, r4
 122:	0000      	movs	r0, r0
 124:	0e41      	lsrs	r1, r0, #25
 126:	8310      	strh	r0, [r2, #24]
 128:	8404      	strh	r4, [r0, #32]
 12a:	8503      	strh	r3, [r0, #40]	; 0x28
 12c:	8e02      	ldrh	r2, [r0, #48]	; 0x30
 12e:	0001      	movs	r1, r0
 130:	000c      	movs	r4, r1
 132:	0000      	movs	r0, r0
 134:	ffff ffff 			; <UNDEFINED> instruction: 0xffffffff
 138:	0001      	movs	r1, r0
 13a:	7c02      	ldrb	r2, [r0, #16]
 13c:	0c0e      	lsrs	r6, r1, #16
 13e:	000d      	movs	r5, r1
 140:	000c      	movs	r4, r1
 142:	0000      	movs	r0, r0
 144:	0130      	lsls	r0, r6, #4
 146:	0000      	movs	r0, r0
 148:	7134      	strb	r4, [r6, #4]
 14a:	0800      	lsrs	r0, r0, #32
 14c:	0014      	movs	r4, r2
 14e:	0000      	movs	r0, r0
 150:	0038      	movs	r0, r7
 152:	0000      	movs	r0, r0
 154:	0130      	lsls	r0, r6, #4
 156:	0000      	movs	r0, r0
 158:	0000      	movs	r0, r0
 15a:	0000      	movs	r0, r0
 15c:	00c4      	lsls	r4, r0, #3
 15e:	0000      	movs	r0, r0
 160:	0e42      	lsrs	r2, r0, #25
 162:	8424      	strh	r4, [r4, #32]
 164:	8509      	strh	r1, [r1, #40]	; 0x28
 166:	8608      	strh	r0, [r1, #48]	; 0x30
 168:	8707      	strh	r7, [r0, #56]	; 0x38
 16a:	8806      	ldrh	r6, [r0, #0]
 16c:	8905      	ldrh	r5, [r0, #8]
 16e:	8a04      	ldrh	r4, [r0, #16]
 170:	8b03      	ldrh	r3, [r0, #24]
 172:	8e02      	ldrh	r2, [r0, #48]	; 0x30
 174:	4201      	tst	r1, r0
 176:	300e      	adds	r0, #14
 178:	0a64      	lsrs	r4, r4, #9
 17a:	240e      	movs	r4, #14
 17c:	ce42      	ldmia	r6, {r1, r6}
 17e:	cacb      	ldmia	r2!, {r0, r1, r3, r6, r7}
 180:	c8c9      	ldmia	r0, {r0, r3, r6, r7}
 182:	c6c7      	stmia	r6!, {r0, r1, r2, r6, r7}
 184:	c4c5      	stmia	r4!, {r0, r2, r6, r7}
 186:	000e      	movs	r6, r1
 188:	0b42      	lsrs	r2, r0, #13
 18a:	0000      	movs	r0, r0
 18c:	000c      	movs	r4, r1
 18e:	0000      	movs	r0, r0
 190:	ffff ffff 			; <UNDEFINED> instruction: 0xffffffff
 194:	0001      	movs	r1, r0
 196:	7c02      	ldrb	r2, [r0, #16]
 198:	0c0e      	lsrs	r6, r1, #16
 19a:	000d      	movs	r5, r1
 19c:	000c      	movs	r4, r1
 19e:	0000      	movs	r0, r0
 1a0:	018c      	lsls	r4, r1, #6
 1a2:	0000      	movs	r0, r0
 1a4:	7148      	strb	r0, [r1, #5]
 1a6:	0800      	lsrs	r0, r0, #32
 1a8:	000c      	movs	r4, r1
 1aa:	0000      	movs	r0, r0
 1ac:	000c      	movs	r4, r1
 1ae:	0000      	movs	r0, r0
 1b0:	ffff ffff 			; <UNDEFINED> instruction: 0xffffffff
 1b4:	0001      	movs	r1, r0
 1b6:	7c02      	ldrb	r2, [r0, #16]
 1b8:	0c0e      	lsrs	r6, r1, #16
 1ba:	000d      	movs	r5, r1
 1bc:	0020      	movs	r0, r4
 1be:	0000      	movs	r0, r0
 1c0:	01ac      	lsls	r4, r5, #6
 1c2:	0000      	movs	r0, r0
 1c4:	7154      	strb	r4, [r2, #5]
 1c6:	0800      	lsrs	r0, r0, #32
 1c8:	002c      	movs	r4, r5
 1ca:	0000      	movs	r0, r0
 1cc:	0e41      	lsrs	r1, r0, #25
 1ce:	8310      	strh	r0, [r2, #24]
 1d0:	8404      	strh	r4, [r0, #32]
 1d2:	8503      	strh	r3, [r0, #40]	; 0x28
 1d4:	8e02      	ldrh	r2, [r0, #48]	; 0x30
 1d6:	4f01      	ldr	r7, [pc, #4]	; (1dc <__MPLAB_BUILD+0x1db>)
 1d8:	c5ce      	stmia	r5!, {r1, r2, r3, r6, r7}
 1da:	c3c4      	stmia	r3!, {r2, r6, r7}
 1dc:	000e      	movs	r6, r1
 1de:	0000      	movs	r0, r0
 1e0:	000c      	movs	r4, r1
 1e2:	0000      	movs	r0, r0
 1e4:	ffff ffff 			; <UNDEFINED> instruction: 0xffffffff
 1e8:	0001      	movs	r1, r0
 1ea:	7c02      	ldrb	r2, [r0, #16]
 1ec:	0c0e      	lsrs	r6, r1, #16
 1ee:	000d      	movs	r5, r1
 1f0:	001c      	movs	r4, r3
 1f2:	0000      	movs	r0, r0
 1f4:	01e0      	lsls	r0, r4, #7
 1f6:	0000      	movs	r0, r0
 1f8:	7180      	strb	r0, [r0, #6]
 1fa:	0800      	lsrs	r0, r0, #32
 1fc:	00a0      	lsls	r0, r4, #2
 1fe:	0000      	movs	r0, r0
 200:	0e41      	lsrs	r1, r0, #25
 202:	8318      	strh	r0, [r3, #24]
 204:	8406      	strh	r6, [r0, #32]
 206:	8505      	strh	r5, [r0, #40]	; 0x28
 208:	8604      	strh	r4, [r0, #48]	; 0x30
 20a:	8703      	strh	r3, [r0, #56]	; 0x38
 20c:	8e02      	ldrh	r2, [r0, #48]	; 0x30
 20e:	0001      	movs	r1, r0
 210:	0058      	lsls	r0, r3, #1
 212:	0000      	movs	r0, r0
 214:	01e0      	lsls	r0, r4, #7
 216:	0000      	movs	r0, r0
 218:	7220      	strb	r0, [r4, #8]
 21a:	0800      	lsrs	r0, r0, #32
 21c:	020c      	lsls	r4, r1, #8
 21e:	0000      	movs	r0, r0
 220:	0e43      	lsrs	r3, r0, #25
 222:	8318      	strh	r0, [r3, #24]
 224:	8406      	strh	r6, [r0, #32]
 226:	8505      	strh	r5, [r0, #40]	; 0x28
 228:	8604      	strh	r4, [r0, #48]	; 0x30
 22a:	8703      	strh	r3, [r0, #56]	; 0x38
 22c:	8e02      	ldrh	r2, [r0, #48]	; 0x30
 22e:	0201      	lsls	r1, r0, #8
 230:	0a4a      	lsrs	r2, r1, #9
 232:	c7ce      	stmia	r7!, {r1, r2, r3, r6, r7}
 234:	c5c6      	stmia	r5!, {r1, r2, r6, r7}
 236:	c3c4      	stmia	r3!, {r2, r6, r7}
 238:	000e      	movs	r6, r1
 23a:	0b42      	lsrs	r2, r0, #13
 23c:	0e55      	lsrs	r5, r2, #25
 23e:	c300      	stmia	r3!, {}
 240:	c5c4      	stmia	r5!, {r2, r6, r7}
 242:	c7c6      	stmia	r7!, {r1, r2, r6, r7}
 244:	41ce      	rors	r6, r1
 246:	180e      	adds	r6, r1, r0
 248:	0683      	lsls	r3, r0, #26
 24a:	0584      	lsls	r4, r0, #22
 24c:	0485      	lsls	r5, r0, #18
 24e:	0386      	lsls	r6, r0, #14
 250:	0287      	lsls	r7, r0, #10
 252:	018e      	lsls	r6, r1, #6
 254:	0a69      	lsrs	r1, r5, #9
 256:	c7ce      	stmia	r7!, {r1, r2, r3, r6, r7}
 258:	c5c6      	stmia	r5!, {r1, r2, r6, r7}
 25a:	c3c4      	stmia	r3!, {r2, r6, r7}
 25c:	000e      	movs	r6, r1
 25e:	0b42      	lsrs	r2, r0, #13
 260:	0a51      	lsrs	r1, r2, #9
 262:	c7ce      	stmia	r7!, {r1, r2, r3, r6, r7}
 264:	c5c6      	stmia	r5!, {r1, r2, r6, r7}
 266:	c3c4      	stmia	r3!, {r2, r6, r7}
 268:	000e      	movs	r6, r1
 26a:	0b42      	lsrs	r2, r0, #13
 26c:	000c      	movs	r4, r1
 26e:	0000      	movs	r0, r0
 270:	ffff ffff 			; <UNDEFINED> instruction: 0xffffffff
 274:	0001      	movs	r1, r0
 276:	7c02      	ldrb	r2, [r0, #16]
 278:	0c0e      	lsrs	r6, r1, #16
 27a:	000d      	movs	r5, r1
 27c:	000c      	movs	r4, r1
 27e:	0000      	movs	r0, r0
 280:	026c      	lsls	r4, r5, #9
 282:	0000      	movs	r0, r0
 284:	0000      	movs	r0, r0
 286:	0000      	movs	r0, r0
 288:	0002      	movs	r2, r0
 28a:	0000      	movs	r0, r0
 28c:	000c      	movs	r4, r1
 28e:	0000      	movs	r0, r0
 290:	026c      	lsls	r4, r5, #9
 292:	0000      	movs	r0, r0
 294:	0000      	movs	r0, r0
 296:	0000      	movs	r0, r0
 298:	0002      	movs	r2, r0
 29a:	0000      	movs	r0, r0
 29c:	000c      	movs	r4, r1
 29e:	0000      	movs	r0, r0
 2a0:	026c      	lsls	r4, r5, #9
 2a2:	0000      	movs	r0, r0
 2a4:	0000      	movs	r0, r0
 2a6:	0000      	movs	r0, r0
 2a8:	0002      	movs	r2, r0
 2aa:	0000      	movs	r0, r0
 2ac:	000c      	movs	r4, r1
 2ae:	0000      	movs	r0, r0
 2b0:	026c      	lsls	r4, r5, #9
 2b2:	0000      	movs	r0, r0
 2b4:	0000      	movs	r0, r0
 2b6:	0000      	movs	r0, r0
 2b8:	0002      	movs	r2, r0
 2ba:	0000      	movs	r0, r0
 2bc:	000c      	movs	r4, r1
 2be:	0000      	movs	r0, r0
 2c0:	026c      	lsls	r4, r5, #9
 2c2:	0000      	movs	r0, r0
 2c4:	0000      	movs	r0, r0
 2c6:	0000      	movs	r0, r0
 2c8:	0002      	movs	r2, r0
 2ca:	0000      	movs	r0, r0
 2cc:	000c      	movs	r4, r1
 2ce:	0000      	movs	r0, r0
 2d0:	026c      	lsls	r4, r5, #9
 2d2:	0000      	movs	r0, r0
 2d4:	742c      	strb	r4, [r5, #16]
 2d6:	0800      	lsrs	r0, r0, #32
 2d8:	0002      	movs	r2, r0
 2da:	0000      	movs	r0, r0
 2dc:	000c      	movs	r4, r1
 2de:	0000      	movs	r0, r0
 2e0:	026c      	lsls	r4, r5, #9
 2e2:	0000      	movs	r0, r0
 2e4:	0000      	movs	r0, r0
 2e6:	0000      	movs	r0, r0
 2e8:	0004      	movs	r4, r0
 2ea:	0000      	movs	r0, r0
 2ec:	000c      	movs	r4, r1
 2ee:	0000      	movs	r0, r0
 2f0:	026c      	lsls	r4, r5, #9
 2f2:	0000      	movs	r0, r0
 2f4:	0000      	movs	r0, r0
 2f6:	0000      	movs	r0, r0
 2f8:	0004      	movs	r4, r0
 2fa:	0000      	movs	r0, r0
 2fc:	000c      	movs	r4, r1
 2fe:	0000      	movs	r0, r0
 300:	026c      	lsls	r4, r5, #9
 302:	0000      	movs	r0, r0
 304:	0000      	movs	r0, r0
 306:	0000      	movs	r0, r0
 308:	0002      	movs	r2, r0
 30a:	0000      	movs	r0, r0
 30c:	000c      	movs	r4, r1
 30e:	0000      	movs	r0, r0
 310:	026c      	lsls	r4, r5, #9
 312:	0000      	movs	r0, r0
 314:	7430      	strb	r0, [r6, #16]
 316:	0800      	lsrs	r0, r0, #32
 318:	0002      	movs	r2, r0
 31a:	0000      	movs	r0, r0
 31c:	000c      	movs	r4, r1
 31e:	0000      	movs	r0, r0
 320:	ffff ffff 			; <UNDEFINED> instruction: 0xffffffff
 324:	0001      	movs	r1, r0
 326:	7c02      	ldrb	r2, [r0, #16]
 328:	0c0e      	lsrs	r6, r1, #16
 32a:	000d      	movs	r5, r1
 32c:	0024      	movs	r4, r4
 32e:	0000      	movs	r0, r0
 330:	031c      	lsls	r4, r3, #12
 332:	0000      	movs	r0, r0
 334:	0000      	movs	r0, r0
 336:	0000      	movs	r0, r0
 338:	0048      	lsls	r0, r1, #1
 33a:	0000      	movs	r0, r0
 33c:	0e42      	lsrs	r2, r0, #25
 33e:	8418      	strh	r0, [r3, #32]
 340:	8506      	strh	r6, [r0, #40]	; 0x28
 342:	8605      	strh	r5, [r0, #48]	; 0x30
 344:	8704      	strh	r4, [r0, #56]	; 0x38
 346:	8803      	ldrh	r3, [r0, #0]
 348:	8e02      	ldrh	r2, [r0, #48]	; 0x30
 34a:	6001      	str	r1, [r0, #0]
 34c:	c8ce      	ldmia	r0!, {r1, r2, r3, r6, r7}
 34e:	c6c7      	stmia	r6!, {r0, r1, r2, r6, r7}
 350:	c4c5      	stmia	r4!, {r0, r2, r6, r7}
 352:	000e      	movs	r6, r1
 354:	0028      	movs	r0, r5
 356:	0000      	movs	r0, r0
 358:	031c      	lsls	r4, r3, #12
 35a:	0000      	movs	r0, r0
 35c:	0000      	movs	r0, r0
 35e:	0000      	movs	r0, r0
 360:	0090      	lsls	r0, r2, #2
 362:	0000      	movs	r0, r0
 364:	0e46      	lsrs	r6, r0, #25
 366:	8410      	strh	r0, [r2, #32]
 368:	8504      	strh	r4, [r0, #40]	; 0x28
 36a:	8603      	strh	r3, [r0, #48]	; 0x30
 36c:	8e02      	ldrh	r2, [r0, #48]	; 0x30
 36e:	7c01      	ldrb	r1, [r0, #16]
 370:	ce0a      	ldmia	r6!, {r1, r3}
 372:	c5c6      	stmia	r5!, {r1, r2, r6, r7}
 374:	0ec4      	lsrs	r4, r0, #27
 376:	4200      	tst	r0, r0
 378:	410b      	asrs	r3, r1
 37a:	000e      	movs	r6, r1
 37c:	c5c4      	stmia	r5!, {r2, r6, r7}
 37e:	cec6      	ldmia	r6, {r1, r2, r6, r7}
 380:	000c      	movs	r4, r1
 382:	0000      	movs	r0, r0
 384:	ffff ffff 			; <UNDEFINED> instruction: 0xffffffff
 388:	0001      	movs	r1, r0
 38a:	7c02      	ldrb	r2, [r0, #16]
 38c:	0c0e      	lsrs	r6, r1, #16
 38e:	000d      	movs	r5, r1
 390:	0020      	movs	r0, r4
 392:	0000      	movs	r0, r0
 394:	0380      	lsls	r0, r0, #14
 396:	0000      	movs	r0, r0
 398:	7434      	strb	r4, [r6, #16]
 39a:	0800      	lsrs	r0, r0, #32
 39c:	008c      	lsls	r4, r1, #2
 39e:	0000      	movs	r0, r0
 3a0:	0e42      	lsrs	r2, r0, #25
 3a2:	8420      	strh	r0, [r4, #32]
 3a4:	8508      	strh	r0, [r1, #40]	; 0x28
 3a6:	8607      	strh	r7, [r0, #48]	; 0x30
 3a8:	8706      	strh	r6, [r0, #56]	; 0x38
 3aa:	8805      	ldrh	r5, [r0, #0]
 3ac:	8904      	ldrh	r4, [r0, #8]
 3ae:	8a03      	ldrh	r3, [r0, #16]
 3b0:	8e02      	ldrh	r2, [r0, #48]	; 0x30
 3b2:	0001      	movs	r1, r0
 3b4:	000c      	movs	r4, r1
 3b6:	0000      	movs	r0, r0
 3b8:	ffff ffff 			; <UNDEFINED> instruction: 0xffffffff
 3bc:	0001      	movs	r1, r0
 3be:	7c02      	ldrb	r2, [r0, #16]
 3c0:	0c0e      	lsrs	r6, r1, #16
 3c2:	000d      	movs	r5, r1
 3c4:	000c      	movs	r4, r1
 3c6:	0000      	movs	r0, r0
 3c8:	03b4      	lsls	r4, r6, #14
 3ca:	0000      	movs	r0, r0
 3cc:	74c0      	strb	r0, [r0, #19]
 3ce:	0800      	lsrs	r0, r0, #32
 3d0:	001c      	movs	r4, r3
	...
