
dist\default\production\\smartPrinterApp.x.production.elf:     file format elf32-littlearm


Disassembly of section .vectors:

08000000 <__gVectors>:
 8000000:	8000      	strh	r0, [r0, #0]
 8000002:	2001      	movs	r0, #1
 8000004:	0455      	lsls	r5, r2, #17
 8000006:	0800      	lsrs	r0, r0, #32
 8000008:	0191      	lsls	r1, r2, #6
 800000a:	0800      	lsrs	r0, r0, #32
 800000c:	0195      	lsls	r5, r2, #6
 800000e:	0800      	lsrs	r0, r0, #32
 8000010:	0199      	lsls	r1, r3, #6
 8000012:	0800      	lsrs	r0, r0, #32
 8000014:	019d      	lsls	r5, r3, #6
 8000016:	0800      	lsrs	r0, r0, #32
 8000018:	01a1      	lsls	r1, r4, #6
 800001a:	0800      	lsrs	r0, r0, #32
	...
 800002c:	01a5      	lsls	r5, r4, #6
 800002e:	0800      	lsrs	r0, r0, #32
 8000030:	01a9      	lsls	r1, r5, #6
 8000032:	0800      	lsrs	r0, r0, #32
 8000034:	0000      	movs	r0, r0
 8000036:	0000      	movs	r0, r0
 8000038:	01ad      	lsls	r5, r5, #6
 800003a:	0800      	lsrs	r0, r0, #32
 800003c:	1641      	asrs	r1, r0, #25
 800003e:	0800      	lsrs	r0, r0, #32
 8000040:	049d      	lsls	r5, r3, #18
 8000042:	0800      	lsrs	r0, r0, #32
 8000044:	049d      	lsls	r5, r3, #18
 8000046:	0800      	lsrs	r0, r0, #32
 8000048:	049d      	lsls	r5, r3, #18
 800004a:	0800      	lsrs	r0, r0, #32
 800004c:	049d      	lsls	r5, r3, #18
 800004e:	0800      	lsrs	r0, r0, #32
 8000050:	049d      	lsls	r5, r3, #18
 8000052:	0800      	lsrs	r0, r0, #32
 8000054:	049d      	lsls	r5, r3, #18
 8000056:	0800      	lsrs	r0, r0, #32
 8000058:	049d      	lsls	r5, r3, #18
 800005a:	0800      	lsrs	r0, r0, #32
 800005c:	049d      	lsls	r5, r3, #18
 800005e:	0800      	lsrs	r0, r0, #32
 8000060:	049d      	lsls	r5, r3, #18
 8000062:	0800      	lsrs	r0, r0, #32
 8000064:	049d      	lsls	r5, r3, #18
 8000066:	0800      	lsrs	r0, r0, #32
 8000068:	049d      	lsls	r5, r3, #18
 800006a:	0800      	lsrs	r0, r0, #32
 800006c:	049d      	lsls	r5, r3, #18
 800006e:	0800      	lsrs	r0, r0, #32
 8000070:	049d      	lsls	r5, r3, #18
 8000072:	0800      	lsrs	r0, r0, #32
 8000074:	049d      	lsls	r5, r3, #18
 8000076:	0800      	lsrs	r0, r0, #32
 8000078:	049d      	lsls	r5, r3, #18
 800007a:	0800      	lsrs	r0, r0, #32
 800007c:	049d      	lsls	r5, r3, #18
 800007e:	0800      	lsrs	r0, r0, #32
 8000080:	049d      	lsls	r5, r3, #18
 8000082:	0800      	lsrs	r0, r0, #32
 8000084:	049d      	lsls	r5, r3, #18
 8000086:	0800      	lsrs	r0, r0, #32
 8000088:	049d      	lsls	r5, r3, #18
 800008a:	0800      	lsrs	r0, r0, #32
 800008c:	049d      	lsls	r5, r3, #18
 800008e:	0800      	lsrs	r0, r0, #32
 8000090:	049d      	lsls	r5, r3, #18
 8000092:	0800      	lsrs	r0, r0, #32
 8000094:	049d      	lsls	r5, r3, #18
 8000096:	0800      	lsrs	r0, r0, #32
 8000098:	049d      	lsls	r5, r3, #18
 800009a:	0800      	lsrs	r0, r0, #32
 800009c:	0309      	lsls	r1, r1, #12
 800009e:	0800      	lsrs	r0, r0, #32
 80000a0:	049d      	lsls	r5, r3, #18
 80000a2:	0800      	lsrs	r0, r0, #32
 80000a4:	049d      	lsls	r5, r3, #18
 80000a6:	0800      	lsrs	r0, r0, #32
 80000a8:	049d      	lsls	r5, r3, #18
 80000aa:	0800      	lsrs	r0, r0, #32
 80000ac:	049d      	lsls	r5, r3, #18
 80000ae:	0800      	lsrs	r0, r0, #32
 80000b0:	0281      	lsls	r1, r0, #10
 80000b2:	0800      	lsrs	r0, r0, #32
 80000b4:	0251      	lsls	r1, r2, #9
 80000b6:	0800      	lsrs	r0, r0, #32
 80000b8:	049d      	lsls	r5, r3, #18
 80000ba:	0800      	lsrs	r0, r0, #32
 80000bc:	049d      	lsls	r5, r3, #18
 80000be:	0800      	lsrs	r0, r0, #32
 80000c0:	049d      	lsls	r5, r3, #18
 80000c2:	0800      	lsrs	r0, r0, #32
 80000c4:	049d      	lsls	r5, r3, #18
 80000c6:	0800      	lsrs	r0, r0, #32
 80000c8:	049d      	lsls	r5, r3, #18
 80000ca:	0800      	lsrs	r0, r0, #32
 80000cc:	02b1      	lsls	r1, r6, #10
 80000ce:	0800      	lsrs	r0, r0, #32
 80000d0:	049d      	lsls	r5, r3, #18
 80000d2:	0800      	lsrs	r0, r0, #32
 80000d4:	0301      	lsls	r1, r0, #12
 80000d6:	0800      	lsrs	r0, r0, #32
 80000d8:	049d      	lsls	r5, r3, #18
 80000da:	0800      	lsrs	r0, r0, #32
 80000dc:	049d      	lsls	r5, r3, #18
 80000de:	0800      	lsrs	r0, r0, #32
 80000e0:	049d      	lsls	r5, r3, #18
 80000e2:	0800      	lsrs	r0, r0, #32
 80000e4:	049d      	lsls	r5, r3, #18
 80000e6:	0800      	lsrs	r0, r0, #32
 80000e8:	01c1      	lsls	r1, r0, #7
 80000ea:	0800      	lsrs	r0, r0, #32
 80000ec:	049d      	lsls	r5, r3, #18
 80000ee:	0800      	lsrs	r0, r0, #32
 80000f0:	049d      	lsls	r5, r3, #18
 80000f2:	0800      	lsrs	r0, r0, #32
 80000f4:	049d      	lsls	r5, r3, #18
 80000f6:	0800      	lsrs	r0, r0, #32
 80000f8:	049d      	lsls	r5, r3, #18
 80000fa:	0800      	lsrs	r0, r0, #32
 80000fc:	0000      	movs	r0, r0
 80000fe:	0000      	movs	r0, r0
 8000100:	049d      	lsls	r5, r3, #18
 8000102:	0800      	lsrs	r0, r0, #32
 8000104:	0000      	movs	r0, r0
 8000106:	0000      	movs	r0, r0
 8000108:	049d      	lsls	r5, r3, #18
 800010a:	0800      	lsrs	r0, r0, #32
 800010c:	02b5      	lsls	r5, r6, #10
 800010e:	0800      	lsrs	r0, r0, #32
 8000110:	049d      	lsls	r5, r3, #18
 8000112:	0800      	lsrs	r0, r0, #32
 8000114:	049d      	lsls	r5, r3, #18
 8000116:	0800      	lsrs	r0, r0, #32
 8000118:	049d      	lsls	r5, r3, #18
 800011a:	0800      	lsrs	r0, r0, #32
 800011c:	049d      	lsls	r5, r3, #18
 800011e:	0800      	lsrs	r0, r0, #32
 8000120:	049d      	lsls	r5, r3, #18
 8000122:	0800      	lsrs	r0, r0, #32
 8000124:	049d      	lsls	r5, r3, #18
 8000126:	0800      	lsrs	r0, r0, #32
 8000128:	049d      	lsls	r5, r3, #18
 800012a:	0800      	lsrs	r0, r0, #32
 800012c:	049d      	lsls	r5, r3, #18
 800012e:	0800      	lsrs	r0, r0, #32
 8000130:	049d      	lsls	r5, r3, #18
 8000132:	0800      	lsrs	r0, r0, #32
 8000134:	049d      	lsls	r5, r3, #18
 8000136:	0800      	lsrs	r0, r0, #32
 8000138:	049d      	lsls	r5, r3, #18
 800013a:	0800      	lsrs	r0, r0, #32
 800013c:	049d      	lsls	r5, r3, #18
 800013e:	0800      	lsrs	r0, r0, #32
 8000140:	049d      	lsls	r5, r3, #18
 8000142:	0800      	lsrs	r0, r0, #32
 8000144:	049d      	lsls	r5, r3, #18
 8000146:	0800      	lsrs	r0, r0, #32
 8000148:	049d      	lsls	r5, r3, #18
 800014a:	0800      	lsrs	r0, r0, #32
 800014c:	01b1      	lsls	r1, r6, #6
 800014e:	0800      	lsrs	r0, r0, #32

Disassembly of section .text:

08000150 <__do_global_dtors_aux>:
 8000150:	b510      	push	{r4, lr}
 8000152:	4c05      	ldr	r4, [pc, #20]	; (8000168 <__do_global_dtors_aux+0x18>)
 8000154:	7823      	ldrb	r3, [r4, #0]
 8000156:	b933      	cbnz	r3, 8000166 <__do_global_dtors_aux+0x16>
 8000158:	4b04      	ldr	r3, [pc, #16]	; (800016c <__do_global_dtors_aux+0x1c>)
 800015a:	b113      	cbz	r3, 8000162 <__do_global_dtors_aux+0x12>
 800015c:	4804      	ldr	r0, [pc, #16]	; (8000170 <__do_global_dtors_aux+0x20>)
 800015e:	f3af 8000 	nop.w
 8000162:	2301      	movs	r3, #1
 8000164:	7023      	strb	r3, [r4, #0]
 8000166:	bd10      	pop	{r4, pc}
 8000168:	0978      	lsrs	r0, r7, #5
 800016a:	2000      	movs	r0, #0
 800016c:	0000      	movs	r0, r0
 800016e:	0000      	movs	r0, r0
 8000170:	74dc      	strb	r4, [r3, #19]
 8000172:	0800      	lsrs	r0, r0, #32

08000174 <frame_dummy>:
 8000174:	b508      	push	{r3, lr}
 8000176:	4b03      	ldr	r3, [pc, #12]	; (8000184 <frame_dummy+0x10>)
 8000178:	b11b      	cbz	r3, 8000182 <frame_dummy+0xe>
 800017a:	4903      	ldr	r1, [pc, #12]	; (8000188 <frame_dummy+0x14>)
 800017c:	4803      	ldr	r0, [pc, #12]	; (800018c <frame_dummy+0x18>)
 800017e:	f3af 8000 	nop.w
 8000182:	bd08      	pop	{r3, pc}
 8000184:	0000      	movs	r0, r0
 8000186:	0000      	movs	r0, r0
 8000188:	097c      	lsrs	r4, r7, #5
 800018a:	2000      	movs	r0, #0
 800018c:	74dc      	strb	r4, [r3, #19]
 800018e:	0800      	lsrs	r0, r0, #32

08000190 <NMI_Handler>:
 8000190:	4770      	bx	lr
 8000192:	bf00      	nop

08000194 <HardFault_Handler>:
 8000194:	e7fe      	b.n	8000194 <HardFault_Handler>
 8000196:	bf00      	nop

08000198 <MemManage_Handler>:
 8000198:	e7fe      	b.n	8000198 <MemManage_Handler>
 800019a:	bf00      	nop

0800019c <BusFault_Handler>:
 800019c:	4770      	bx	lr
 800019e:	bf00      	nop

080001a0 <UsageFault_Handler>:
 80001a0:	4770      	bx	lr
 80001a2:	bf00      	nop

080001a4 <SVC_Handler>:
 80001a4:	4770      	bx	lr
 80001a6:	bf00      	nop

080001a8 <DebugMon_Handler>:
 80001a8:	4770      	bx	lr
 80001aa:	bf00      	nop

080001ac <PendSV_Handler>:
 80001ac:	4770      	bx	lr
 80001ae:	bf00      	nop

080001b0 <USBFS_IRQHandler>:
 80001b0:	4801      	ldr	r0, [pc, #4]	; (80001b8 <USBFS_IRQHandler+0x8>)
 80001b2:	4b02      	ldr	r3, [pc, #8]	; (80001bc <USBFS_IRQHandler+0xc>)
 80001b4:	4718      	bx	r3
 80001b6:	bf00      	nop
 80001b8:	0994      	lsrs	r4, r2, #6
 80001ba:	2000      	movs	r0, #0
 80001bc:	2321      	movs	r3, #33	; 0x21
 80001be:	0800      	lsrs	r0, r0, #32

080001c0 <USBFS_WKUP_IRQHandler>:
 80001c0:	4b19      	ldr	r3, [pc, #100]	; (8000228 <USBFS_WKUP_IRQHandler+0x68>)
 80001c2:	79db      	ldrb	r3, [r3, #7]
 80001c4:	b91b      	cbnz	r3, 80001ce <USBFS_WKUP_IRQHandler+0xe>
 80001c6:	4b19      	ldr	r3, [pc, #100]	; (800022c <USBFS_WKUP_IRQHandler+0x6c>)
 80001c8:	f44f 2080 	mov.w	r0, #262144	; 0x40000
 80001cc:	4718      	bx	r3
 80001ce:	b570      	push	{r4, r5, r6, lr}
 80001d0:	2010      	movs	r0, #16
 80001d2:	4d17      	ldr	r5, [pc, #92]	; (8000230 <USBFS_WKUP_IRQHandler+0x70>)
 80001d4:	4c17      	ldr	r4, [pc, #92]	; (8000234 <USBFS_WKUP_IRQHandler+0x74>)
 80001d6:	47a8      	blx	r5
 80001d8:	2011      	movs	r0, #17
 80001da:	47a0      	blx	r4
 80001dc:	2800      	cmp	r0, #0
 80001de:	d0fb      	beq.n	80001d8 <USBFS_WKUP_IRQHandler+0x18>
 80001e0:	201a      	movs	r0, #26
 80001e2:	47a8      	blx	r5
 80001e4:	201b      	movs	r0, #27
 80001e6:	47a0      	blx	r4
 80001e8:	2800      	cmp	r0, #0
 80001ea:	d0fb      	beq.n	80001e4 <USBFS_WKUP_IRQHandler+0x24>
 80001ec:	2018      	movs	r0, #24
 80001ee:	47a8      	blx	r5
 80001f0:	2019      	movs	r0, #25
 80001f2:	47a0      	blx	r4
 80001f4:	2800      	cmp	r0, #0
 80001f6:	d0fb      	beq.n	80001f0 <USBFS_WKUP_IRQHandler+0x30>
 80001f8:	4b0f      	ldr	r3, [pc, #60]	; (8000238 <USBFS_WKUP_IRQHandler+0x78>)
 80001fa:	4c10      	ldr	r4, [pc, #64]	; (800023c <USBFS_WKUP_IRQHandler+0x7c>)
 80001fc:	2002      	movs	r0, #2
 80001fe:	4798      	blx	r3
 8000200:	47a0      	blx	r4
 8000202:	2808      	cmp	r0, #8
 8000204:	d1fc      	bne.n	8000200 <USBFS_WKUP_IRQHandler+0x40>
 8000206:	4a0e      	ldr	r2, [pc, #56]	; (8000240 <USBFS_WKUP_IRQHandler+0x80>)
 8000208:	4b0e      	ldr	r3, [pc, #56]	; (8000244 <USBFS_WKUP_IRQHandler+0x84>)
 800020a:	6810      	ldr	r0, [r2, #0]
 800020c:	4798      	blx	r3
 800020e:	4b0e      	ldr	r3, [pc, #56]	; (8000248 <USBFS_WKUP_IRQHandler+0x88>)
 8000210:	f240 500c 	movw	r0, #1292	; 0x50c
 8000214:	4798      	blx	r3
 8000216:	4804      	ldr	r0, [pc, #16]	; (8000228 <USBFS_WKUP_IRQHandler+0x68>)
 8000218:	4b0c      	ldr	r3, [pc, #48]	; (800024c <USBFS_WKUP_IRQHandler+0x8c>)
 800021a:	4798      	blx	r3
 800021c:	e8bd 4070 	ldmia.w	sp!, {r4, r5, r6, lr}
 8000220:	4b02      	ldr	r3, [pc, #8]	; (800022c <USBFS_WKUP_IRQHandler+0x6c>)
 8000222:	f44f 2080 	mov.w	r0, #262144	; 0x40000
 8000226:	4718      	bx	r3
 8000228:	0994      	lsrs	r4, r2, #6
 800022a:	2000      	movs	r0, #0
 800022c:	06d5      	lsls	r5, r2, #27
 800022e:	0800      	lsrs	r0, r0, #32
 8000230:	0ec1      	lsrs	r1, r0, #27
 8000232:	0800      	lsrs	r0, r0, #32
 8000234:	1029      	asrs	r1, r5, #32
 8000236:	0800      	lsrs	r0, r0, #32
 8000238:	0e75      	lsrs	r5, r6, #25
 800023a:	0800      	lsrs	r0, r0, #32
 800023c:	0e89      	lsrs	r1, r1, #26
 800023e:	0800      	lsrs	r0, r0, #32
 8000240:	0d6c      	lsrs	r4, r5, #21
 8000242:	2000      	movs	r0, #0
 8000244:	0e99      	lsrs	r1, r3, #26
 8000246:	0800      	lsrs	r0, r0, #32
 8000248:	0e1d      	lsrs	r5, r3, #24
 800024a:	0800      	lsrs	r0, r0, #32
 800024c:	29cd      	cmp	r1, #205	; 0xcd
 800024e:	0800      	lsrs	r0, r0, #32

08000250 <TIMER2_IRQHandler>:
 8000250:	b510      	push	{r4, lr}
 8000252:	4807      	ldr	r0, [pc, #28]	; (8000270 <TIMER2_IRQHandler+0x20>)
 8000254:	4b07      	ldr	r3, [pc, #28]	; (8000274 <TIMER2_IRQHandler+0x24>)
 8000256:	2101      	movs	r1, #1
 8000258:	4798      	blx	r3
 800025a:	b900      	cbnz	r0, 800025e <TIMER2_IRQHandler+0xe>
 800025c:	bd10      	pop	{r4, pc}
 800025e:	4b06      	ldr	r3, [pc, #24]	; (8000278 <TIMER2_IRQHandler+0x28>)
 8000260:	4798      	blx	r3
 8000262:	e8bd 4010 	ldmia.w	sp!, {r4, lr}
 8000266:	4802      	ldr	r0, [pc, #8]	; (8000270 <TIMER2_IRQHandler+0x20>)
 8000268:	4b04      	ldr	r3, [pc, #16]	; (800027c <TIMER2_IRQHandler+0x2c>)
 800026a:	2101      	movs	r1, #1
 800026c:	4718      	bx	r3
 800026e:	bf00      	nop
 8000270:	0400      	lsls	r0, r0, #16
 8000272:	4000      	ands	r0, r0
 8000274:	13e9      	asrs	r1, r5, #15
 8000276:	0800      	lsrs	r0, r0, #32
 8000278:	3c95      	subs	r4, #149	; 0x95
 800027a:	0800      	lsrs	r0, r0, #32
 800027c:	13fd      	asrs	r5, r7, #15
 800027e:	0800      	lsrs	r0, r0, #32

08000280 <TIMER1_IRQHandler>:
 8000280:	b510      	push	{r4, lr}
 8000282:	4b08      	ldr	r3, [pc, #32]	; (80002a4 <TIMER1_IRQHandler+0x24>)
 8000284:	2101      	movs	r1, #1
 8000286:	f04f 4080 	mov.w	r0, #1073741824	; 0x40000000
 800028a:	4798      	blx	r3
 800028c:	b900      	cbnz	r0, 8000290 <TIMER1_IRQHandler+0x10>
 800028e:	bd10      	pop	{r4, pc}
 8000290:	4b05      	ldr	r3, [pc, #20]	; (80002a8 <TIMER1_IRQHandler+0x28>)
 8000292:	4798      	blx	r3
 8000294:	e8bd 4010 	ldmia.w	sp!, {r4, lr}
 8000298:	4b04      	ldr	r3, [pc, #16]	; (80002ac <TIMER1_IRQHandler+0x2c>)
 800029a:	2101      	movs	r1, #1
 800029c:	f04f 4080 	mov.w	r0, #1073741824	; 0x40000000
 80002a0:	4718      	bx	r3
 80002a2:	bf00      	nop
 80002a4:	13e9      	asrs	r1, r5, #15
 80002a6:	0800      	lsrs	r0, r0, #32
 80002a8:	3c69      	subs	r4, #105	; 0x69
 80002aa:	0800      	lsrs	r0, r0, #32
 80002ac:	13fd      	asrs	r5, r7, #15
 80002ae:	0800      	lsrs	r0, r0, #32

080002b0 <SPI0_IRQHandler>:
 80002b0:	4770      	bx	lr
 80002b2:	bf00      	nop

080002b4 <SPI2_IRQHandler>:
 80002b4:	b510      	push	{r4, lr}
 80002b6:	480d      	ldr	r0, [pc, #52]	; (80002ec <SPI2_IRQHandler+0x38>)
 80002b8:	4b0d      	ldr	r3, [pc, #52]	; (80002f0 <SPI2_IRQHandler+0x3c>)
 80002ba:	2101      	movs	r1, #1
 80002bc:	4798      	blx	r3
 80002be:	b980      	cbnz	r0, 80002e2 <SPI2_IRQHandler+0x2e>
 80002c0:	4c0c      	ldr	r4, [pc, #48]	; (80002f4 <SPI2_IRQHandler+0x40>)
 80002c2:	4601      	mov	r1, r0
 80002c4:	4809      	ldr	r0, [pc, #36]	; (80002ec <SPI2_IRQHandler+0x38>)
 80002c6:	47a0      	blx	r4
 80002c8:	4808      	ldr	r0, [pc, #32]	; (80002ec <SPI2_IRQHandler+0x38>)
 80002ca:	2101      	movs	r1, #1
 80002cc:	47a0      	blx	r4
 80002ce:	4b0a      	ldr	r3, [pc, #40]	; (80002f8 <SPI2_IRQHandler+0x44>)
 80002d0:	f44f 2200 	mov.w	r2, #524288	; 0x80000
 80002d4:	f8c3 2084 	str.w	r2, [r3, #132]	; 0x84
 80002d8:	f3bf 8f4f 	dsb	sy
 80002dc:	f3bf 8f6f 	isb	sy
 80002e0:	bd10      	pop	{r4, pc}
 80002e2:	e8bd 4010 	ldmia.w	sp!, {r4, lr}
 80002e6:	4b05      	ldr	r3, [pc, #20]	; (80002fc <SPI2_IRQHandler+0x48>)
 80002e8:	4718      	bx	r3
 80002ea:	bf00      	nop
 80002ec:	3c00      	subs	r4, #0
 80002ee:	4000      	ands	r0, r0
 80002f0:	1159      	asrs	r1, r3, #5
 80002f2:	0800      	lsrs	r0, r0, #32
 80002f4:	112d      	asrs	r5, r5, #4
 80002f6:	0800      	lsrs	r0, r0, #32
 80002f8:	e100      	b.n	80004fc <SystemInit+0x5c>
 80002fa:	e000      	b.n	80002fe <SPI2_IRQHandler+0x4a>
 80002fc:	5b45      	ldrh	r5, [r0, r5]
 80002fe:	0800      	lsrs	r0, r0, #32

08000300 <USART0_IRQHandler>:
 8000300:	4b00      	ldr	r3, [pc, #0]	; (8000304 <USART0_IRQHandler+0x4>)
 8000302:	4718      	bx	r3
 8000304:	55c9      	strb	r1, [r1, r7]
 8000306:	0800      	lsrs	r0, r0, #32

08000308 <EXTI5_9_IRQHandler>:
 8000308:	b510      	push	{r4, lr}
 800030a:	4b05      	ldr	r3, [pc, #20]	; (8000320 <EXTI5_9_IRQHandler+0x18>)
 800030c:	f44f 7000 	mov.w	r0, #512	; 0x200
 8000310:	4798      	blx	r3
 8000312:	b900      	cbnz	r0, 8000316 <EXTI5_9_IRQHandler+0xe>
 8000314:	bd10      	pop	{r4, pc}
 8000316:	e8bd 4010 	ldmia.w	sp!, {r4, lr}
 800031a:	4b02      	ldr	r3, [pc, #8]	; (8000324 <EXTI5_9_IRQHandler+0x1c>)
 800031c:	4718      	bx	r3
 800031e:	bf00      	nop
 8000320:	06c1      	lsls	r1, r0, #27
 8000322:	0800      	lsrs	r0, r0, #32
 8000324:	6859      	ldr	r1, [r3, #4]
 8000326:	0800      	lsrs	r0, r0, #32

08000328 <usbd_Write_into_escpos_buffer>:
 8000328:	4b00      	ldr	r3, [pc, #0]	; (800032c <usbd_Write_into_escpos_buffer+0x4>)
 800032a:	4718      	bx	r3
 800032c:	2c9d      	cmp	r4, #157	; 0x9d
 800032e:	0800      	lsrs	r0, r0, #32

08000330 <main>:
 8000330:	b508      	push	{r3, lr}
 8000332:	4b27      	ldr	r3, [pc, #156]	; (80003d0 <main+0xa0>)
 8000334:	4c27      	ldr	r4, [pc, #156]	; (80003d4 <main+0xa4>)
 8000336:	4798      	blx	r3
 8000338:	4b27      	ldr	r3, [pc, #156]	; (80003d8 <main+0xa8>)
 800033a:	4798      	blx	r3
 800033c:	4b27      	ldr	r3, [pc, #156]	; (80003dc <main+0xac>)
 800033e:	2002      	movs	r0, #2
 8000340:	4798      	blx	r3
 8000342:	4827      	ldr	r0, [pc, #156]	; (80003e0 <main+0xb0>)
 8000344:	47a0      	blx	r4
 8000346:	4827      	ldr	r0, [pc, #156]	; (80003e4 <main+0xb4>)
 8000348:	47a0      	blx	r4
 800034a:	4827      	ldr	r0, [pc, #156]	; (80003e8 <main+0xb8>)
 800034c:	47a0      	blx	r4
 800034e:	4827      	ldr	r0, [pc, #156]	; (80003ec <main+0xbc>)
 8000350:	47a0      	blx	r4
 8000352:	4b27      	ldr	r3, [pc, #156]	; (80003f0 <main+0xc0>)
 8000354:	4c27      	ldr	r4, [pc, #156]	; (80003f4 <main+0xc4>)
 8000356:	4798      	blx	r3
 8000358:	4827      	ldr	r0, [pc, #156]	; (80003f8 <main+0xc8>)
 800035a:	47a0      	blx	r4
 800035c:	4827      	ldr	r0, [pc, #156]	; (80003fc <main+0xcc>)
 800035e:	47a0      	blx	r4
 8000360:	4827      	ldr	r0, [pc, #156]	; (8000400 <main+0xd0>)
 8000362:	4b28      	ldr	r3, [pc, #160]	; (8000404 <main+0xd4>)
 8000364:	4c28      	ldr	r4, [pc, #160]	; (8000408 <main+0xd8>)
 8000366:	4798      	blx	r3
 8000368:	4828      	ldr	r0, [pc, #160]	; (800040c <main+0xdc>)
 800036a:	4b29      	ldr	r3, [pc, #164]	; (8000410 <main+0xe0>)
 800036c:	4798      	blx	r3
 800036e:	4b29      	ldr	r3, [pc, #164]	; (8000414 <main+0xe4>)
 8000370:	4798      	blx	r3
 8000372:	4b29      	ldr	r3, [pc, #164]	; (8000418 <main+0xe8>)
 8000374:	f44f 6080 	mov.w	r0, #1024	; 0x400
 8000378:	4798      	blx	r3
 800037a:	f240 6002 	movw	r0, #1538	; 0x602
 800037e:	47a0      	blx	r4
 8000380:	f240 6003 	movw	r0, #1539	; 0x603
 8000384:	47a0      	blx	r4
 8000386:	f240 6004 	movw	r0, #1540	; 0x604
 800038a:	47a0      	blx	r4
 800038c:	f240 6005 	movw	r0, #1541	; 0x605
 8000390:	47a0      	blx	r4
 8000392:	f240 600e 	movw	r0, #1550	; 0x60e
 8000396:	47a0      	blx	r4
 8000398:	f44f 60c0 	mov.w	r0, #1536	; 0x600
 800039c:	47a0      	blx	r4
 800039e:	4b1f      	ldr	r3, [pc, #124]	; (800041c <main+0xec>)
 80003a0:	4c1f      	ldr	r4, [pc, #124]	; (8000420 <main+0xf0>)
 80003a2:	4798      	blx	r3
 80003a4:	4b1f      	ldr	r3, [pc, #124]	; (8000424 <main+0xf4>)
 80003a6:	4798      	blx	r3
 80003a8:	4a1f      	ldr	r2, [pc, #124]	; (8000428 <main+0xf8>)
 80003aa:	4820      	ldr	r0, [pc, #128]	; (800042c <main+0xfc>)
 80003ac:	4b20      	ldr	r3, [pc, #128]	; (8000430 <main+0x100>)
 80003ae:	2101      	movs	r1, #1
 80003b0:	47a0      	blx	r4
 80003b2:	4b20      	ldr	r3, [pc, #128]	; (8000434 <main+0x104>)
 80003b4:	4c20      	ldr	r4, [pc, #128]	; (8000438 <main+0x108>)
 80003b6:	4798      	blx	r3
 80003b8:	4820      	ldr	r0, [pc, #128]	; (800043c <main+0x10c>)
 80003ba:	4b21      	ldr	r3, [pc, #132]	; (8000440 <main+0x110>)
 80003bc:	4798      	blx	r3
 80003be:	4b21      	ldr	r3, [pc, #132]	; (8000444 <main+0x114>)
 80003c0:	2078      	movs	r0, #120	; 0x78
 80003c2:	4798      	blx	r3
 80003c4:	4b20      	ldr	r3, [pc, #128]	; (8000448 <main+0x118>)
 80003c6:	f240 2071 	movw	r0, #625	; 0x271
 80003ca:	4798      	blx	r3
 80003cc:	47a0      	blx	r4
 80003ce:	e7fd      	b.n	80003cc <main+0x9c>
 80003d0:	16e1      	asrs	r1, r4, #27
 80003d2:	0800      	lsrs	r0, r0, #32
 80003d4:	06e1      	lsls	r1, r4, #27
 80003d6:	0800      	lsrs	r0, r0, #32
 80003d8:	1739      	asrs	r1, r7, #28
 80003da:	0800      	lsrs	r0, r0, #32
 80003dc:	0ead      	lsrs	r5, r5, #26
 80003de:	0800      	lsrs	r0, r0, #32
 80003e0:	0800      	lsrs	r0, r0, #32
 80003e2:	4001      	ands	r1, r0
 80003e4:	0c00      	lsrs	r0, r0, #16
 80003e6:	4001      	ands	r1, r0
 80003e8:	1000      	asrs	r0, r0, #32
 80003ea:	4001      	ands	r1, r0
 80003ec:	1400      	asrs	r0, r0, #16
 80003ee:	4001      	ands	r1, r0
 80003f0:	05c1      	lsls	r1, r0, #23
 80003f2:	0800      	lsrs	r0, r0, #32
 80003f4:	11c1      	asrs	r1, r0, #7
 80003f6:	0800      	lsrs	r0, r0, #32
 80003f8:	0400      	lsls	r0, r0, #16
 80003fa:	4000      	ands	r0, r0
 80003fc:	0800      	lsrs	r0, r0, #32
 80003fe:	4000      	ands	r0, r0
 8000400:	3c00      	subs	r4, #0
 8000402:	4000      	ands	r0, r0
 8000404:	1045      	asrs	r5, r0, #1
 8000406:	0800      	lsrs	r0, r0, #32
 8000408:	0e1d      	lsrs	r5, r3, #24
 800040a:	0800      	lsrs	r0, r0, #32
 800040c:	3800      	subs	r0, #0
 800040e:	4001      	ands	r1, r0
 8000410:	1405      	asrs	r5, r0, #16
 8000412:	0800      	lsrs	r0, r0, #32
 8000414:	0d39      	lsrs	r1, r7, #20
 8000416:	0800      	lsrs	r0, r0, #32
 8000418:	0c6d      	lsrs	r5, r5, #17
 800041a:	0800      	lsrs	r0, r0, #32
 800041c:	2c05      	cmp	r4, #5
 800041e:	0800      	lsrs	r0, r0, #32
 8000420:	1a99      	subs	r1, r3, r2
 8000422:	0800      	lsrs	r0, r0, #32
 8000424:	15b9      	asrs	r1, r7, #22
 8000426:	0800      	lsrs	r0, r0, #32
 8000428:	009c      	lsls	r4, r3, #2
 800042a:	2000      	movs	r0, #0
 800042c:	0994      	lsrs	r4, r2, #6
 800042e:	2000      	movs	r0, #0
 8000430:	006c      	lsls	r4, r5, #1
 8000432:	2000      	movs	r0, #0
 8000434:	1631      	asrs	r1, r6, #24
 8000436:	0800      	lsrs	r0, r0, #32
 8000438:	2cc1      	cmp	r4, #193	; 0xc1
 800043a:	0800      	lsrs	r0, r0, #32
 800043c:	0329      	lsls	r1, r5, #12
 800043e:	0800      	lsrs	r0, r0, #32
 8000440:	1915      	adds	r5, r2, r4
 8000442:	0800      	lsrs	r0, r0, #32
 8000444:	4485      	add	sp, r0
 8000446:	0800      	lsrs	r0, r0, #32
 8000448:	4465      	add	r5, ip
 800044a:	0800      	lsrs	r0, r0, #32

0800044c <systemAppSyncFunc>:
 800044c:	4b00      	ldr	r3, [pc, #0]	; (8000450 <systemAppSyncFunc+0x4>)
 800044e:	4718      	bx	r3
 8000450:	649d      	str	r5, [r3, #72]	; 0x48
 8000452:	0800      	lsrs	r0, r0, #32

08000454 <Reset_Handler>:
 8000454:	2100      	movs	r1, #0
 8000456:	e003      	b.n	8000460 <DataInit>

08000458 <CopyData>:
 8000458:	4b0b      	ldr	r3, [pc, #44]	; (8000488 <Zerobss+0x14>)
 800045a:	585b      	ldr	r3, [r3, r1]
 800045c:	5043      	str	r3, [r0, r1]
 800045e:	3104      	adds	r1, #4

08000460 <DataInit>:
 8000460:	480a      	ldr	r0, [pc, #40]	; (800048c <Zerobss+0x18>)
 8000462:	4b0b      	ldr	r3, [pc, #44]	; (8000490 <Zerobss+0x1c>)
 8000464:	1842      	adds	r2, r0, r1
 8000466:	429a      	cmp	r2, r3
 8000468:	d3f6      	bcc.n	8000458 <CopyData>
 800046a:	4a0a      	ldr	r2, [pc, #40]	; (8000494 <Zerobss+0x20>)
 800046c:	e002      	b.n	8000474 <Zerobss>

0800046e <FillZerobss>:
 800046e:	2300      	movs	r3, #0
 8000470:	f842 3b04 	str.w	r3, [r2], #4

08000474 <Zerobss>:
 8000474:	4b08      	ldr	r3, [pc, #32]	; (8000498 <Zerobss+0x24>)
 8000476:	429a      	cmp	r2, r3
 8000478:	d3f9      	bcc.n	800046e <FillZerobss>
 800047a:	f000 f811 	bl	80004a0 <SystemInit>
 800047e:	f006 fb05 	bl	8006a8c <__libc_init_array>
 8000482:	f7ff ff55 	bl	8000330 <main>
 8000486:	4770      	bx	lr
 8000488:	8b14      	ldrh	r4, [r2, #24]
 800048a:	0800      	lsrs	r0, r0, #32
 800048c:	0000      	movs	r0, r0
 800048e:	2000      	movs	r0, #0
 8000490:	0974      	lsrs	r4, r6, #5
 8000492:	2000      	movs	r0, #0
 8000494:	0978      	lsrs	r0, r7, #5
 8000496:	2000      	movs	r0, #0
 8000498:	52c8      	strh	r0, [r1, r3]
 800049a:	2000      	movs	r0, #0

0800049c <ADC0_1_IRQHandler>:
 800049c:	e7fe      	b.n	800049c <ADC0_1_IRQHandler>
	...

080004a0 <SystemInit>:
 80004a0:	4b44      	ldr	r3, [pc, #272]	; (80005b4 <SystemInit+0x114>)
 80004a2:	6819      	ldr	r1, [r3, #0]
 80004a4:	f041 0101 	orr.w	r1, r1, #1
 80004a8:	6019      	str	r1, [r3, #0]
 80004aa:	b082      	sub	sp, #8
 80004ac:	6859      	ldr	r1, [r3, #4]
 80004ae:	6059      	str	r1, [r3, #4]
 80004b0:	2000      	movs	r0, #0
 80004b2:	9001      	str	r0, [sp, #4]
 80004b4:	9b01      	ldr	r3, [sp, #4]
 80004b6:	f644 621f 	movw	r2, #19999	; 0x4e1f
 80004ba:	4293      	cmp	r3, r2
 80004bc:	d805      	bhi.n	80004ca <SystemInit+0x2a>
 80004be:	9b01      	ldr	r3, [sp, #4]
 80004c0:	3301      	adds	r3, #1
 80004c2:	9301      	str	r3, [sp, #4]
 80004c4:	9b01      	ldr	r3, [sp, #4]
 80004c6:	4293      	cmp	r3, r2
 80004c8:	d9f9      	bls.n	80004be <SystemInit+0x1e>
 80004ca:	493a      	ldr	r1, [pc, #232]	; (80005b4 <SystemInit+0x114>)
 80004cc:	2300      	movs	r3, #0
 80004ce:	604b      	str	r3, [r1, #4]
 80004d0:	62cb      	str	r3, [r1, #44]	; 0x2c
 80004d2:	680b      	ldr	r3, [r1, #0]
 80004d4:	f023 53a8 	bic.w	r3, r3, #352321536	; 0x15000000
 80004d8:	f44f 027f 	mov.w	r2, #16711680	; 0xff0000
 80004dc:	f423 2310 	bic.w	r3, r3, #589824	; 0x90000
 80004e0:	600b      	str	r3, [r1, #0]
 80004e2:	608a      	str	r2, [r1, #8]
 80004e4:	680a      	ldr	r2, [r1, #0]
 80004e6:	f422 2280 	bic.w	r2, r2, #262144	; 0x40000
 80004ea:	600a      	str	r2, [r1, #0]
 80004ec:	680a      	ldr	r2, [r1, #0]
 80004ee:	f442 3280 	orr.w	r2, r2, #65536	; 0x10000
 80004f2:	f64f 73ff 	movw	r3, #65535	; 0xffff
 80004f6:	600a      	str	r2, [r1, #0]
 80004f8:	e001      	b.n	80004fe <SystemInit+0x5e>
 80004fa:	3b01      	subs	r3, #1
 80004fc:	d002      	beq.n	8000504 <SystemInit+0x64>
 80004fe:	680a      	ldr	r2, [r1, #0]
 8000500:	0390      	lsls	r0, r2, #14
 8000502:	d5fa      	bpl.n	80004fa <SystemInit+0x5a>
 8000504:	4b2b      	ldr	r3, [pc, #172]	; (80005b4 <SystemInit+0x114>)
 8000506:	681a      	ldr	r2, [r3, #0]
 8000508:	0391      	lsls	r1, r2, #14
 800050a:	d551      	bpl.n	80005b0 <SystemInit+0x110>
 800050c:	69da      	ldr	r2, [r3, #28]
 800050e:	492a      	ldr	r1, [pc, #168]	; (80005b8 <SystemInit+0x118>)
 8000510:	482a      	ldr	r0, [pc, #168]	; (80005bc <SystemInit+0x11c>)
 8000512:	f042 5280 	orr.w	r2, r2, #268435456	; 0x10000000
 8000516:	61da      	str	r2, [r3, #28]
 8000518:	680a      	ldr	r2, [r1, #0]
 800051a:	f442 4240 	orr.w	r2, r2, #49152	; 0xc000
 800051e:	600a      	str	r2, [r1, #0]
 8000520:	685a      	ldr	r2, [r3, #4]
 8000522:	605a      	str	r2, [r3, #4]
 8000524:	685a      	ldr	r2, [r3, #4]
 8000526:	605a      	str	r2, [r3, #4]
 8000528:	685a      	ldr	r2, [r3, #4]
 800052a:	f442 6280 	orr.w	r2, r2, #1024	; 0x400
 800052e:	605a      	str	r2, [r3, #4]
 8000530:	6ada      	ldr	r2, [r3, #44]	; 0x2c
 8000532:	4002      	ands	r2, r0
 8000534:	62da      	str	r2, [r3, #44]	; 0x2c
 8000536:	6ada      	ldr	r2, [r3, #44]	; 0x2c
 8000538:	f042 1201 	orr.w	r2, r2, #65537	; 0x10001
 800053c:	f442 6200 	orr.w	r2, r2, #2048	; 0x800
 8000540:	62da      	str	r2, [r3, #44]	; 0x2c
 8000542:	685a      	ldr	r2, [r3, #4]
 8000544:	f022 42c0 	bic.w	r2, r2, #1610612736	; 0x60000000
 8000548:	f422 1270 	bic.w	r2, r2, #3932160	; 0x3c0000
 800054c:	605a      	str	r2, [r3, #4]
 800054e:	685a      	ldr	r2, [r3, #4]
 8000550:	f442 3280 	orr.w	r2, r2, #65536	; 0x10000
 8000554:	605a      	str	r2, [r3, #4]
 8000556:	681a      	ldr	r2, [r3, #0]
 8000558:	f042 6280 	orr.w	r2, r2, #67108864	; 0x4000000
 800055c:	601a      	str	r2, [r3, #0]
 800055e:	681a      	ldr	r2, [r3, #0]
 8000560:	0112      	lsls	r2, r2, #4
 8000562:	d5fc      	bpl.n	800055e <SystemInit+0xbe>
 8000564:	6819      	ldr	r1, [r3, #0]
 8000566:	4a13      	ldr	r2, [pc, #76]	; (80005b4 <SystemInit+0x114>)
 8000568:	f041 7180 	orr.w	r1, r1, #16777216	; 0x1000000
 800056c:	6019      	str	r1, [r3, #0]
 800056e:	6813      	ldr	r3, [r2, #0]
 8000570:	0198      	lsls	r0, r3, #6
 8000572:	d5fc      	bpl.n	800056e <SystemInit+0xce>
 8000574:	4a10      	ldr	r2, [pc, #64]	; (80005b8 <SystemInit+0x118>)
 8000576:	6813      	ldr	r3, [r2, #0]
 8000578:	f443 3380 	orr.w	r3, r3, #65536	; 0x10000
 800057c:	6013      	str	r3, [r2, #0]
 800057e:	6853      	ldr	r3, [r2, #4]
 8000580:	03d9      	lsls	r1, r3, #15
 8000582:	d5fc      	bpl.n	800057e <SystemInit+0xde>
 8000584:	6813      	ldr	r3, [r2, #0]
 8000586:	490c      	ldr	r1, [pc, #48]	; (80005b8 <SystemInit+0x118>)
 8000588:	f443 3300 	orr.w	r3, r3, #131072	; 0x20000
 800058c:	6013      	str	r3, [r2, #0]
 800058e:	684b      	ldr	r3, [r1, #4]
 8000590:	039a      	lsls	r2, r3, #14
 8000592:	d5fc      	bpl.n	800058e <SystemInit+0xee>
 8000594:	4a07      	ldr	r2, [pc, #28]	; (80005b4 <SystemInit+0x114>)
 8000596:	6853      	ldr	r3, [r2, #4]
 8000598:	f023 0303 	bic.w	r3, r3, #3
 800059c:	6053      	str	r3, [r2, #4]
 800059e:	6853      	ldr	r3, [r2, #4]
 80005a0:	f043 0302 	orr.w	r3, r3, #2
 80005a4:	6053      	str	r3, [r2, #4]
 80005a6:	6853      	ldr	r3, [r2, #4]
 80005a8:	071b      	lsls	r3, r3, #28
 80005aa:	d5fc      	bpl.n	80005a6 <SystemInit+0x106>
 80005ac:	b002      	add	sp, #8
 80005ae:	4770      	bx	lr
 80005b0:	e7fe      	b.n	80005b0 <SystemInit+0x110>
 80005b2:	bf00      	nop
 80005b4:	1000      	asrs	r0, r0, #32
 80005b6:	4002      	ands	r2, r0
 80005b8:	7000      	strb	r0, [r0, #0]
 80005ba:	4000      	ands	r0, r0
 80005bc:	f000 bffe 	b.w	80015bc <usb_rcu_config+0x4>

080005c0 <exti_deinit>:
 80005c0:	4b06      	ldr	r3, [pc, #24]	; (80005dc <exti_deinit+0x1c>)
 80005c2:	2200      	movs	r2, #0
 80005c4:	f8c3 2400 	str.w	r2, [r3, #1024]	; 0x400
 80005c8:	f8c3 2404 	str.w	r2, [r3, #1028]	; 0x404
 80005cc:	f8c3 2408 	str.w	r2, [r3, #1032]	; 0x408
 80005d0:	f8c3 240c 	str.w	r2, [r3, #1036]	; 0x40c
 80005d4:	f8c3 2410 	str.w	r2, [r3, #1040]	; 0x410
 80005d8:	4770      	bx	lr
 80005da:	bf00      	nop
 80005dc:	0000      	movs	r0, r0
 80005de:	4001      	ands	r1, r0

080005e0 <exti_init>:
 80005e0:	4b2c      	ldr	r3, [pc, #176]	; (8000694 <exti_init+0xb4>)
 80005e2:	b410      	push	{r4}
 80005e4:	f8d3 4400 	ldr.w	r4, [r3, #1024]	; 0x400
 80005e8:	ea24 0400 	bic.w	r4, r4, r0
 80005ec:	f8c3 4400 	str.w	r4, [r3, #1024]	; 0x400
 80005f0:	f8d3 4404 	ldr.w	r4, [r3, #1028]	; 0x404
 80005f4:	ea24 0400 	bic.w	r4, r4, r0
 80005f8:	f8c3 4404 	str.w	r4, [r3, #1028]	; 0x404
 80005fc:	f8d3 4408 	ldr.w	r4, [r3, #1032]	; 0x408
 8000600:	ea24 0400 	bic.w	r4, r4, r0
 8000604:	f8c3 4408 	str.w	r4, [r3, #1032]	; 0x408
 8000608:	f8d3 440c 	ldr.w	r4, [r3, #1036]	; 0x40c
 800060c:	ea24 0400 	bic.w	r4, r4, r0
 8000610:	f8c3 440c 	str.w	r4, [r3, #1036]	; 0x40c
 8000614:	43c4      	mvns	r4, r0
 8000616:	b169      	cbz	r1, 8000634 <exti_init+0x54>
 8000618:	2901      	cmp	r1, #1
 800061a:	d104      	bne.n	8000626 <exti_init+0x46>
 800061c:	f8d3 1404 	ldr.w	r1, [r3, #1028]	; 0x404
 8000620:	4301      	orrs	r1, r0
 8000622:	f8c3 1404 	str.w	r1, [r3, #1028]	; 0x404
 8000626:	2a01      	cmp	r2, #1
 8000628:	d00c      	beq.n	8000644 <exti_init+0x64>
 800062a:	2a02      	cmp	r2, #2
 800062c:	d024      	beq.n	8000678 <exti_init+0x98>
 800062e:	b1b2      	cbz	r2, 800065e <exti_init+0x7e>
 8000630:	bc10      	pop	{r4}
 8000632:	4770      	bx	lr
 8000634:	f8d3 1400 	ldr.w	r1, [r3, #1024]	; 0x400
 8000638:	2a01      	cmp	r2, #1
 800063a:	ea41 0100 	orr.w	r1, r1, r0
 800063e:	f8c3 1400 	str.w	r1, [r3, #1024]	; 0x400
 8000642:	d1f2      	bne.n	800062a <exti_init+0x4a>
 8000644:	4b13      	ldr	r3, [pc, #76]	; (8000694 <exti_init+0xb4>)
 8000646:	f8d3 2408 	ldr.w	r2, [r3, #1032]	; 0x408
 800064a:	4014      	ands	r4, r2
 800064c:	f8c3 4408 	str.w	r4, [r3, #1032]	; 0x408
 8000650:	f8d3 240c 	ldr.w	r2, [r3, #1036]	; 0x40c
 8000654:	bc10      	pop	{r4}
 8000656:	4310      	orrs	r0, r2
 8000658:	f8c3 040c 	str.w	r0, [r3, #1036]	; 0x40c
 800065c:	4770      	bx	lr
 800065e:	4b0d      	ldr	r3, [pc, #52]	; (8000694 <exti_init+0xb4>)
 8000660:	f8d3 2408 	ldr.w	r2, [r3, #1032]	; 0x408
 8000664:	4310      	orrs	r0, r2
 8000666:	f8c3 0408 	str.w	r0, [r3, #1032]	; 0x408
 800066a:	f8d3 240c 	ldr.w	r2, [r3, #1036]	; 0x40c
 800066e:	4014      	ands	r4, r2
 8000670:	f8c3 440c 	str.w	r4, [r3, #1036]	; 0x40c
 8000674:	bc10      	pop	{r4}
 8000676:	4770      	bx	lr
 8000678:	4b06      	ldr	r3, [pc, #24]	; (8000694 <exti_init+0xb4>)
 800067a:	bc10      	pop	{r4}
 800067c:	f8d3 2408 	ldr.w	r2, [r3, #1032]	; 0x408
 8000680:	4302      	orrs	r2, r0
 8000682:	f8c3 2408 	str.w	r2, [r3, #1032]	; 0x408
 8000686:	f8d3 240c 	ldr.w	r2, [r3, #1036]	; 0x40c
 800068a:	4310      	orrs	r0, r2
 800068c:	f8c3 040c 	str.w	r0, [r3, #1036]	; 0x40c
 8000690:	4770      	bx	lr
 8000692:	bf00      	nop
 8000694:	0000      	movs	r0, r0
 8000696:	4001      	ands	r1, r0

08000698 <exti_interrupt_enable>:
 8000698:	4a03      	ldr	r2, [pc, #12]	; (80006a8 <exti_interrupt_enable+0x10>)
 800069a:	f8d2 3400 	ldr.w	r3, [r2, #1024]	; 0x400
 800069e:	4303      	orrs	r3, r0
 80006a0:	f8c2 3400 	str.w	r3, [r2, #1024]	; 0x400
 80006a4:	4770      	bx	lr
 80006a6:	bf00      	nop
 80006a8:	0000      	movs	r0, r0
 80006aa:	4001      	ands	r1, r0

080006ac <exti_interrupt_disable>:
 80006ac:	4a03      	ldr	r2, [pc, #12]	; (80006bc <exti_interrupt_disable+0x10>)
 80006ae:	f8d2 3400 	ldr.w	r3, [r2, #1024]	; 0x400
 80006b2:	ea23 0300 	bic.w	r3, r3, r0
 80006b6:	f8c2 3400 	str.w	r3, [r2, #1024]	; 0x400
 80006ba:	4770      	bx	lr
 80006bc:	0000      	movs	r0, r0
 80006be:	4001      	ands	r1, r0

080006c0 <exti_interrupt_flag_get>:
 80006c0:	4b03      	ldr	r3, [pc, #12]	; (80006d0 <exti_interrupt_flag_get+0x10>)
 80006c2:	f8d3 3414 	ldr.w	r3, [r3, #1044]	; 0x414
 80006c6:	4218      	tst	r0, r3
 80006c8:	bf14      	ite	ne
 80006ca:	2001      	movne	r0, #1
 80006cc:	2000      	moveq	r0, #0
 80006ce:	4770      	bx	lr
 80006d0:	0000      	movs	r0, r0
 80006d2:	4001      	ands	r1, r0

080006d4 <exti_interrupt_flag_clear>:
 80006d4:	4b01      	ldr	r3, [pc, #4]	; (80006dc <exti_interrupt_flag_clear+0x8>)
 80006d6:	f8c3 0414 	str.w	r0, [r3, #1044]	; 0x414
 80006da:	4770      	bx	lr
 80006dc:	0000      	movs	r0, r0
 80006de:	4001      	ands	r1, r0

080006e0 <gpio_deinit>:
 80006e0:	4b31      	ldr	r3, [pc, #196]	; (80007a8 <gpio_deinit+0xc8>)
 80006e2:	4298      	cmp	r0, r3
 80006e4:	b510      	push	{r4, lr}
 80006e6:	d03f      	beq.n	8000768 <gpio_deinit+0x88>
 80006e8:	d811      	bhi.n	800070e <gpio_deinit+0x2e>
 80006ea:	f5a3 6300 	sub.w	r3, r3, #2048	; 0x800
 80006ee:	4298      	cmp	r0, r3
 80006f0:	d044      	beq.n	800077c <gpio_deinit+0x9c>
 80006f2:	f503 6380 	add.w	r3, r3, #1024	; 0x400
 80006f6:	4298      	cmp	r0, r3
 80006f8:	d11a      	bne.n	8000730 <gpio_deinit+0x50>
 80006fa:	4b2c      	ldr	r3, [pc, #176]	; (80007ac <gpio_deinit+0xcc>)
 80006fc:	f44f 7041 	mov.w	r0, #772	; 0x304
 8000700:	4798      	blx	r3
 8000702:	e8bd 4010 	ldmia.w	sp!, {r4, lr}
 8000706:	4b2a      	ldr	r3, [pc, #168]	; (80007b0 <gpio_deinit+0xd0>)
 8000708:	f44f 7041 	mov.w	r0, #772	; 0x304
 800070c:	4718      	bx	r3
 800070e:	4b29      	ldr	r3, [pc, #164]	; (80007b4 <gpio_deinit+0xd4>)
 8000710:	4298      	cmp	r0, r3
 8000712:	d03d      	beq.n	8000790 <gpio_deinit+0xb0>
 8000714:	f503 6380 	add.w	r3, r3, #1024	; 0x400
 8000718:	4298      	cmp	r0, r3
 800071a:	d117      	bne.n	800074c <gpio_deinit+0x6c>
 800071c:	4b23      	ldr	r3, [pc, #140]	; (80007ac <gpio_deinit+0xcc>)
 800071e:	f44f 7042 	mov.w	r0, #776	; 0x308
 8000722:	4798      	blx	r3
 8000724:	e8bd 4010 	ldmia.w	sp!, {r4, lr}
 8000728:	4b21      	ldr	r3, [pc, #132]	; (80007b0 <gpio_deinit+0xd0>)
 800072a:	f44f 7042 	mov.w	r0, #776	; 0x308
 800072e:	4718      	bx	r3
 8000730:	f5a3 6300 	sub.w	r3, r3, #2048	; 0x800
 8000734:	4298      	cmp	r0, r3
 8000736:	d135      	bne.n	80007a4 <gpio_deinit+0xc4>
 8000738:	4b1c      	ldr	r3, [pc, #112]	; (80007ac <gpio_deinit+0xcc>)
 800073a:	f240 3002 	movw	r0, #770	; 0x302
 800073e:	4798      	blx	r3
 8000740:	e8bd 4010 	ldmia.w	sp!, {r4, lr}
 8000744:	4b1a      	ldr	r3, [pc, #104]	; (80007b0 <gpio_deinit+0xd0>)
 8000746:	f240 3002 	movw	r0, #770	; 0x302
 800074a:	4718      	bx	r3
 800074c:	f5a3 6300 	sub.w	r3, r3, #2048	; 0x800
 8000750:	4298      	cmp	r0, r3
 8000752:	d127      	bne.n	80007a4 <gpio_deinit+0xc4>
 8000754:	4b15      	ldr	r3, [pc, #84]	; (80007ac <gpio_deinit+0xcc>)
 8000756:	f240 3006 	movw	r0, #774	; 0x306
 800075a:	4798      	blx	r3
 800075c:	e8bd 4010 	ldmia.w	sp!, {r4, lr}
 8000760:	4b13      	ldr	r3, [pc, #76]	; (80007b0 <gpio_deinit+0xd0>)
 8000762:	f240 3006 	movw	r0, #774	; 0x306
 8000766:	4718      	bx	r3
 8000768:	4b10      	ldr	r3, [pc, #64]	; (80007ac <gpio_deinit+0xcc>)
 800076a:	f240 3005 	movw	r0, #773	; 0x305
 800076e:	4798      	blx	r3
 8000770:	e8bd 4010 	ldmia.w	sp!, {r4, lr}
 8000774:	4b0e      	ldr	r3, [pc, #56]	; (80007b0 <gpio_deinit+0xd0>)
 8000776:	f240 3005 	movw	r0, #773	; 0x305
 800077a:	4718      	bx	r3
 800077c:	4b0b      	ldr	r3, [pc, #44]	; (80007ac <gpio_deinit+0xcc>)
 800077e:	f240 3003 	movw	r0, #771	; 0x303
 8000782:	4798      	blx	r3
 8000784:	e8bd 4010 	ldmia.w	sp!, {r4, lr}
 8000788:	4b09      	ldr	r3, [pc, #36]	; (80007b0 <gpio_deinit+0xd0>)
 800078a:	f240 3003 	movw	r0, #771	; 0x303
 800078e:	4718      	bx	r3
 8000790:	4b06      	ldr	r3, [pc, #24]	; (80007ac <gpio_deinit+0xcc>)
 8000792:	f240 3007 	movw	r0, #775	; 0x307
 8000796:	4798      	blx	r3
 8000798:	e8bd 4010 	ldmia.w	sp!, {r4, lr}
 800079c:	4b04      	ldr	r3, [pc, #16]	; (80007b0 <gpio_deinit+0xd0>)
 800079e:	f240 3007 	movw	r0, #775	; 0x307
 80007a2:	4718      	bx	r3
 80007a4:	bd10      	pop	{r4, pc}
 80007a6:	bf00      	nop
 80007a8:	1400      	asrs	r0, r0, #16
 80007aa:	4001      	ands	r1, r0
 80007ac:	0e39      	lsrs	r1, r7, #24
 80007ae:	0800      	lsrs	r0, r0, #32
 80007b0:	0e55      	lsrs	r5, r2, #25
 80007b2:	0800      	lsrs	r0, r0, #32
 80007b4:	1c00      	adds	r0, r0, #0
 80007b6:	4001      	ands	r1, r0

080007b8 <gpio_init>:
 80007b8:	f011 0f10 	tst.w	r1, #16
 80007bc:	f001 0c0f 	and.w	ip, r1, #15
 80007c0:	d004      	beq.n	80007cc <gpio_init+0x14>
 80007c2:	2a04      	cmp	r2, #4
 80007c4:	f000 81c6 	beq.w	8000b54 <gpio_init+0x39c>
 80007c8:	ea4c 0c02 	orr.w	ip, ip, r2
 80007cc:	2948      	cmp	r1, #72	; 0x48
 80007ce:	f000 8127 	beq.w	8000a20 <gpio_init+0x268>
 80007d2:	2928      	cmp	r1, #40	; 0x28
 80007d4:	f000 8082 	beq.w	80008dc <gpio_init+0x124>
 80007d8:	07da      	lsls	r2, r3, #31
 80007da:	d505      	bpl.n	80007e8 <gpio_init+0x30>
 80007dc:	6802      	ldr	r2, [r0, #0]
 80007de:	f022 020f 	bic.w	r2, r2, #15
 80007e2:	ea4c 0202 	orr.w	r2, ip, r2
 80007e6:	6002      	str	r2, [r0, #0]
 80007e8:	0799      	lsls	r1, r3, #30
 80007ea:	d505      	bpl.n	80007f8 <gpio_init+0x40>
 80007ec:	6802      	ldr	r2, [r0, #0]
 80007ee:	f022 02f0 	bic.w	r2, r2, #240	; 0xf0
 80007f2:	ea42 120c 	orr.w	r2, r2, ip, lsl #4
 80007f6:	6002      	str	r2, [r0, #0]
 80007f8:	075a      	lsls	r2, r3, #29
 80007fa:	d505      	bpl.n	8000808 <gpio_init+0x50>
 80007fc:	6802      	ldr	r2, [r0, #0]
 80007fe:	f422 6270 	bic.w	r2, r2, #3840	; 0xf00
 8000802:	ea42 220c 	orr.w	r2, r2, ip, lsl #8
 8000806:	6002      	str	r2, [r0, #0]
 8000808:	0719      	lsls	r1, r3, #28
 800080a:	d505      	bpl.n	8000818 <gpio_init+0x60>
 800080c:	6802      	ldr	r2, [r0, #0]
 800080e:	f422 4270 	bic.w	r2, r2, #61440	; 0xf000
 8000812:	ea42 320c 	orr.w	r2, r2, ip, lsl #12
 8000816:	6002      	str	r2, [r0, #0]
 8000818:	06da      	lsls	r2, r3, #27
 800081a:	d505      	bpl.n	8000828 <gpio_init+0x70>
 800081c:	6802      	ldr	r2, [r0, #0]
 800081e:	f422 2270 	bic.w	r2, r2, #983040	; 0xf0000
 8000822:	ea42 420c 	orr.w	r2, r2, ip, lsl #16
 8000826:	6002      	str	r2, [r0, #0]
 8000828:	0699      	lsls	r1, r3, #26
 800082a:	d505      	bpl.n	8000838 <gpio_init+0x80>
 800082c:	6802      	ldr	r2, [r0, #0]
 800082e:	f422 0270 	bic.w	r2, r2, #15728640	; 0xf00000
 8000832:	ea42 520c 	orr.w	r2, r2, ip, lsl #20
 8000836:	6002      	str	r2, [r0, #0]
 8000838:	065a      	lsls	r2, r3, #25
 800083a:	d505      	bpl.n	8000848 <gpio_init+0x90>
 800083c:	6802      	ldr	r2, [r0, #0]
 800083e:	f022 6270 	bic.w	r2, r2, #251658240	; 0xf000000
 8000842:	ea42 620c 	orr.w	r2, r2, ip, lsl #24
 8000846:	6002      	str	r2, [r0, #0]
 8000848:	0619      	lsls	r1, r3, #24
 800084a:	d505      	bpl.n	8000858 <gpio_init+0xa0>
 800084c:	6802      	ldr	r2, [r0, #0]
 800084e:	f022 4270 	bic.w	r2, r2, #4026531840	; 0xf0000000
 8000852:	ea42 720c 	orr.w	r2, r2, ip, lsl #28
 8000856:	6002      	str	r2, [r0, #0]
 8000858:	05da      	lsls	r2, r3, #23
 800085a:	d505      	bpl.n	8000868 <gpio_init+0xb0>
 800085c:	6842      	ldr	r2, [r0, #4]
 800085e:	f022 020f 	bic.w	r2, r2, #15
 8000862:	ea4c 0202 	orr.w	r2, ip, r2
 8000866:	6042      	str	r2, [r0, #4]
 8000868:	0599      	lsls	r1, r3, #22
 800086a:	d505      	bpl.n	8000878 <gpio_init+0xc0>
 800086c:	6842      	ldr	r2, [r0, #4]
 800086e:	f022 02f0 	bic.w	r2, r2, #240	; 0xf0
 8000872:	ea42 120c 	orr.w	r2, r2, ip, lsl #4
 8000876:	6042      	str	r2, [r0, #4]
 8000878:	055a      	lsls	r2, r3, #21
 800087a:	d505      	bpl.n	8000888 <gpio_init+0xd0>
 800087c:	6842      	ldr	r2, [r0, #4]
 800087e:	f422 6270 	bic.w	r2, r2, #3840	; 0xf00
 8000882:	ea42 220c 	orr.w	r2, r2, ip, lsl #8
 8000886:	6042      	str	r2, [r0, #4]
 8000888:	0519      	lsls	r1, r3, #20
 800088a:	d505      	bpl.n	8000898 <gpio_init+0xe0>
 800088c:	6842      	ldr	r2, [r0, #4]
 800088e:	f422 4270 	bic.w	r2, r2, #61440	; 0xf000
 8000892:	ea42 320c 	orr.w	r2, r2, ip, lsl #12
 8000896:	6042      	str	r2, [r0, #4]
 8000898:	04da      	lsls	r2, r3, #19
 800089a:	d505      	bpl.n	80008a8 <gpio_init+0xf0>
 800089c:	6842      	ldr	r2, [r0, #4]
 800089e:	f422 2270 	bic.w	r2, r2, #983040	; 0xf0000
 80008a2:	ea42 420c 	orr.w	r2, r2, ip, lsl #16
 80008a6:	6042      	str	r2, [r0, #4]
 80008a8:	0499      	lsls	r1, r3, #18
 80008aa:	d505      	bpl.n	80008b8 <gpio_init+0x100>
 80008ac:	6842      	ldr	r2, [r0, #4]
 80008ae:	f422 0270 	bic.w	r2, r2, #15728640	; 0xf00000
 80008b2:	ea42 520c 	orr.w	r2, r2, ip, lsl #20
 80008b6:	6042      	str	r2, [r0, #4]
 80008b8:	045a      	lsls	r2, r3, #17
 80008ba:	d505      	bpl.n	80008c8 <gpio_init+0x110>
 80008bc:	6842      	ldr	r2, [r0, #4]
 80008be:	f022 6270 	bic.w	r2, r2, #251658240	; 0xf000000
 80008c2:	ea42 620c 	orr.w	r2, r2, ip, lsl #24
 80008c6:	6042      	str	r2, [r0, #4]
 80008c8:	041b      	lsls	r3, r3, #16
 80008ca:	f140 8142 	bpl.w	8000b52 <gpio_init+0x39a>
 80008ce:	6843      	ldr	r3, [r0, #4]
 80008d0:	f023 4370 	bic.w	r3, r3, #4026531840	; 0xf0000000
 80008d4:	ea43 730c 	orr.w	r3, r3, ip, lsl #28
 80008d8:	6043      	str	r3, [r0, #4]
 80008da:	4770      	bx	lr
 80008dc:	07d9      	lsls	r1, r3, #31
 80008de:	d507      	bpl.n	80008f0 <gpio_init+0x138>
 80008e0:	6802      	ldr	r2, [r0, #0]
 80008e2:	f022 020f 	bic.w	r2, r2, #15
 80008e6:	2101      	movs	r1, #1
 80008e8:	ea4c 0202 	orr.w	r2, ip, r2
 80008ec:	6141      	str	r1, [r0, #20]
 80008ee:	6002      	str	r2, [r0, #0]
 80008f0:	f013 0102 	ands.w	r1, r3, #2
 80008f4:	d006      	beq.n	8000904 <gpio_init+0x14c>
 80008f6:	6802      	ldr	r2, [r0, #0]
 80008f8:	6141      	str	r1, [r0, #20]
 80008fa:	f022 02f0 	bic.w	r2, r2, #240	; 0xf0
 80008fe:	ea42 120c 	orr.w	r2, r2, ip, lsl #4
 8000902:	6002      	str	r2, [r0, #0]
 8000904:	f013 0104 	ands.w	r1, r3, #4
 8000908:	d006      	beq.n	8000918 <gpio_init+0x160>
 800090a:	6802      	ldr	r2, [r0, #0]
 800090c:	6141      	str	r1, [r0, #20]
 800090e:	f422 6270 	bic.w	r2, r2, #3840	; 0xf00
 8000912:	ea42 220c 	orr.w	r2, r2, ip, lsl #8
 8000916:	6002      	str	r2, [r0, #0]
 8000918:	f013 0108 	ands.w	r1, r3, #8
 800091c:	d006      	beq.n	800092c <gpio_init+0x174>
 800091e:	6802      	ldr	r2, [r0, #0]
 8000920:	6141      	str	r1, [r0, #20]
 8000922:	f422 4270 	bic.w	r2, r2, #61440	; 0xf000
 8000926:	ea42 320c 	orr.w	r2, r2, ip, lsl #12
 800092a:	6002      	str	r2, [r0, #0]
 800092c:	f013 0110 	ands.w	r1, r3, #16
 8000930:	d006      	beq.n	8000940 <gpio_init+0x188>
 8000932:	6802      	ldr	r2, [r0, #0]
 8000934:	6141      	str	r1, [r0, #20]
 8000936:	f422 2270 	bic.w	r2, r2, #983040	; 0xf0000
 800093a:	ea42 420c 	orr.w	r2, r2, ip, lsl #16
 800093e:	6002      	str	r2, [r0, #0]
 8000940:	f013 0120 	ands.w	r1, r3, #32
 8000944:	d006      	beq.n	8000954 <gpio_init+0x19c>
 8000946:	6802      	ldr	r2, [r0, #0]
 8000948:	6141      	str	r1, [r0, #20]
 800094a:	f422 0270 	bic.w	r2, r2, #15728640	; 0xf00000
 800094e:	ea42 520c 	orr.w	r2, r2, ip, lsl #20
 8000952:	6002      	str	r2, [r0, #0]
 8000954:	f013 0140 	ands.w	r1, r3, #64	; 0x40
 8000958:	d006      	beq.n	8000968 <gpio_init+0x1b0>
 800095a:	6802      	ldr	r2, [r0, #0]
 800095c:	6141      	str	r1, [r0, #20]
 800095e:	f022 6270 	bic.w	r2, r2, #251658240	; 0xf000000
 8000962:	ea42 620c 	orr.w	r2, r2, ip, lsl #24
 8000966:	6002      	str	r2, [r0, #0]
 8000968:	f013 0180 	ands.w	r1, r3, #128	; 0x80
 800096c:	d006      	beq.n	800097c <gpio_init+0x1c4>
 800096e:	6802      	ldr	r2, [r0, #0]
 8000970:	6141      	str	r1, [r0, #20]
 8000972:	f022 4270 	bic.w	r2, r2, #4026531840	; 0xf0000000
 8000976:	ea42 720c 	orr.w	r2, r2, ip, lsl #28
 800097a:	6002      	str	r2, [r0, #0]
 800097c:	f413 7180 	ands.w	r1, r3, #256	; 0x100
 8000980:	d006      	beq.n	8000990 <gpio_init+0x1d8>
 8000982:	6842      	ldr	r2, [r0, #4]
 8000984:	6141      	str	r1, [r0, #20]
 8000986:	f022 020f 	bic.w	r2, r2, #15
 800098a:	ea4c 0202 	orr.w	r2, ip, r2
 800098e:	6042      	str	r2, [r0, #4]
 8000990:	f413 7100 	ands.w	r1, r3, #512	; 0x200
 8000994:	d006      	beq.n	80009a4 <gpio_init+0x1ec>
 8000996:	6842      	ldr	r2, [r0, #4]
 8000998:	6141      	str	r1, [r0, #20]
 800099a:	f022 02f0 	bic.w	r2, r2, #240	; 0xf0
 800099e:	ea42 120c 	orr.w	r2, r2, ip, lsl #4
 80009a2:	6042      	str	r2, [r0, #4]
 80009a4:	f413 6180 	ands.w	r1, r3, #1024	; 0x400
 80009a8:	d006      	beq.n	80009b8 <gpio_init+0x200>
 80009aa:	6842      	ldr	r2, [r0, #4]
 80009ac:	6141      	str	r1, [r0, #20]
 80009ae:	f422 6270 	bic.w	r2, r2, #3840	; 0xf00
 80009b2:	ea42 220c 	orr.w	r2, r2, ip, lsl #8
 80009b6:	6042      	str	r2, [r0, #4]
 80009b8:	f413 6100 	ands.w	r1, r3, #2048	; 0x800
 80009bc:	d006      	beq.n	80009cc <gpio_init+0x214>
 80009be:	6842      	ldr	r2, [r0, #4]
 80009c0:	6141      	str	r1, [r0, #20]
 80009c2:	f422 4270 	bic.w	r2, r2, #61440	; 0xf000
 80009c6:	ea42 320c 	orr.w	r2, r2, ip, lsl #12
 80009ca:	6042      	str	r2, [r0, #4]
 80009cc:	f413 5180 	ands.w	r1, r3, #4096	; 0x1000
 80009d0:	d006      	beq.n	80009e0 <gpio_init+0x228>
 80009d2:	6842      	ldr	r2, [r0, #4]
 80009d4:	6141      	str	r1, [r0, #20]
 80009d6:	f422 2270 	bic.w	r2, r2, #983040	; 0xf0000
 80009da:	ea42 420c 	orr.w	r2, r2, ip, lsl #16
 80009de:	6042      	str	r2, [r0, #4]
 80009e0:	f413 5100 	ands.w	r1, r3, #8192	; 0x2000
 80009e4:	d006      	beq.n	80009f4 <gpio_init+0x23c>
 80009e6:	6842      	ldr	r2, [r0, #4]
 80009e8:	6141      	str	r1, [r0, #20]
 80009ea:	f422 0270 	bic.w	r2, r2, #15728640	; 0xf00000
 80009ee:	ea42 520c 	orr.w	r2, r2, ip, lsl #20
 80009f2:	6042      	str	r2, [r0, #4]
 80009f4:	f413 4180 	ands.w	r1, r3, #16384	; 0x4000
 80009f8:	d006      	beq.n	8000a08 <gpio_init+0x250>
 80009fa:	6842      	ldr	r2, [r0, #4]
 80009fc:	6141      	str	r1, [r0, #20]
 80009fe:	f022 6270 	bic.w	r2, r2, #251658240	; 0xf000000
 8000a02:	ea42 620c 	orr.w	r2, r2, ip, lsl #24
 8000a06:	6042      	str	r2, [r0, #4]
 8000a08:	f413 4300 	ands.w	r3, r3, #32768	; 0x8000
 8000a0c:	f000 80a1 	beq.w	8000b52 <gpio_init+0x39a>
 8000a10:	6842      	ldr	r2, [r0, #4]
 8000a12:	6143      	str	r3, [r0, #20]
 8000a14:	f022 4370 	bic.w	r3, r2, #4026531840	; 0xf0000000
 8000a18:	ea43 730c 	orr.w	r3, r3, ip, lsl #28
 8000a1c:	6043      	str	r3, [r0, #4]
 8000a1e:	4770      	bx	lr
 8000a20:	07da      	lsls	r2, r3, #31
 8000a22:	d507      	bpl.n	8000a34 <gpio_init+0x27c>
 8000a24:	6802      	ldr	r2, [r0, #0]
 8000a26:	f022 020f 	bic.w	r2, r2, #15
 8000a2a:	2101      	movs	r1, #1
 8000a2c:	ea4c 0202 	orr.w	r2, ip, r2
 8000a30:	6101      	str	r1, [r0, #16]
 8000a32:	6002      	str	r2, [r0, #0]
 8000a34:	f013 0102 	ands.w	r1, r3, #2
 8000a38:	d006      	beq.n	8000a48 <gpio_init+0x290>
 8000a3a:	6802      	ldr	r2, [r0, #0]
 8000a3c:	6101      	str	r1, [r0, #16]
 8000a3e:	f022 02f0 	bic.w	r2, r2, #240	; 0xf0
 8000a42:	ea42 120c 	orr.w	r2, r2, ip, lsl #4
 8000a46:	6002      	str	r2, [r0, #0]
 8000a48:	f013 0104 	ands.w	r1, r3, #4
 8000a4c:	d006      	beq.n	8000a5c <gpio_init+0x2a4>
 8000a4e:	6802      	ldr	r2, [r0, #0]
 8000a50:	6101      	str	r1, [r0, #16]
 8000a52:	f422 6270 	bic.w	r2, r2, #3840	; 0xf00
 8000a56:	ea42 220c 	orr.w	r2, r2, ip, lsl #8
 8000a5a:	6002      	str	r2, [r0, #0]
 8000a5c:	f013 0108 	ands.w	r1, r3, #8
 8000a60:	d006      	beq.n	8000a70 <gpio_init+0x2b8>
 8000a62:	6802      	ldr	r2, [r0, #0]
 8000a64:	6101      	str	r1, [r0, #16]
 8000a66:	f422 4270 	bic.w	r2, r2, #61440	; 0xf000
 8000a6a:	ea42 320c 	orr.w	r2, r2, ip, lsl #12
 8000a6e:	6002      	str	r2, [r0, #0]
 8000a70:	f013 0110 	ands.w	r1, r3, #16
 8000a74:	d006      	beq.n	8000a84 <gpio_init+0x2cc>
 8000a76:	6802      	ldr	r2, [r0, #0]
 8000a78:	6101      	str	r1, [r0, #16]
 8000a7a:	f422 2270 	bic.w	r2, r2, #983040	; 0xf0000
 8000a7e:	ea42 420c 	orr.w	r2, r2, ip, lsl #16
 8000a82:	6002      	str	r2, [r0, #0]
 8000a84:	f013 0120 	ands.w	r1, r3, #32
 8000a88:	d006      	beq.n	8000a98 <gpio_init+0x2e0>
 8000a8a:	6802      	ldr	r2, [r0, #0]
 8000a8c:	6101      	str	r1, [r0, #16]
 8000a8e:	f422 0270 	bic.w	r2, r2, #15728640	; 0xf00000
 8000a92:	ea42 520c 	orr.w	r2, r2, ip, lsl #20
 8000a96:	6002      	str	r2, [r0, #0]
 8000a98:	f013 0140 	ands.w	r1, r3, #64	; 0x40
 8000a9c:	d006      	beq.n	8000aac <gpio_init+0x2f4>
 8000a9e:	6802      	ldr	r2, [r0, #0]
 8000aa0:	6101      	str	r1, [r0, #16]
 8000aa2:	f022 6270 	bic.w	r2, r2, #251658240	; 0xf000000
 8000aa6:	ea42 620c 	orr.w	r2, r2, ip, lsl #24
 8000aaa:	6002      	str	r2, [r0, #0]
 8000aac:	f013 0180 	ands.w	r1, r3, #128	; 0x80
 8000ab0:	d006      	beq.n	8000ac0 <gpio_init+0x308>
 8000ab2:	6802      	ldr	r2, [r0, #0]
 8000ab4:	6101      	str	r1, [r0, #16]
 8000ab6:	f022 4270 	bic.w	r2, r2, #4026531840	; 0xf0000000
 8000aba:	ea42 720c 	orr.w	r2, r2, ip, lsl #28
 8000abe:	6002      	str	r2, [r0, #0]
 8000ac0:	f413 7180 	ands.w	r1, r3, #256	; 0x100
 8000ac4:	d006      	beq.n	8000ad4 <gpio_init+0x31c>
 8000ac6:	6842      	ldr	r2, [r0, #4]
 8000ac8:	6101      	str	r1, [r0, #16]
 8000aca:	f022 020f 	bic.w	r2, r2, #15
 8000ace:	ea4c 0202 	orr.w	r2, ip, r2
 8000ad2:	6042      	str	r2, [r0, #4]
 8000ad4:	f413 7100 	ands.w	r1, r3, #512	; 0x200
 8000ad8:	d006      	beq.n	8000ae8 <gpio_init+0x330>
 8000ada:	6842      	ldr	r2, [r0, #4]
 8000adc:	6101      	str	r1, [r0, #16]
 8000ade:	f022 02f0 	bic.w	r2, r2, #240	; 0xf0
 8000ae2:	ea42 120c 	orr.w	r2, r2, ip, lsl #4
 8000ae6:	6042      	str	r2, [r0, #4]
 8000ae8:	f413 6180 	ands.w	r1, r3, #1024	; 0x400
 8000aec:	d006      	beq.n	8000afc <gpio_init+0x344>
 8000aee:	6842      	ldr	r2, [r0, #4]
 8000af0:	6101      	str	r1, [r0, #16]
 8000af2:	f422 6270 	bic.w	r2, r2, #3840	; 0xf00
 8000af6:	ea42 220c 	orr.w	r2, r2, ip, lsl #8
 8000afa:	6042      	str	r2, [r0, #4]
 8000afc:	f413 6100 	ands.w	r1, r3, #2048	; 0x800
 8000b00:	d006      	beq.n	8000b10 <gpio_init+0x358>
 8000b02:	6842      	ldr	r2, [r0, #4]
 8000b04:	6101      	str	r1, [r0, #16]
 8000b06:	f422 4270 	bic.w	r2, r2, #61440	; 0xf000
 8000b0a:	ea42 320c 	orr.w	r2, r2, ip, lsl #12
 8000b0e:	6042      	str	r2, [r0, #4]
 8000b10:	f413 5180 	ands.w	r1, r3, #4096	; 0x1000
 8000b14:	d006      	beq.n	8000b24 <gpio_init+0x36c>
 8000b16:	6842      	ldr	r2, [r0, #4]
 8000b18:	6101      	str	r1, [r0, #16]
 8000b1a:	f422 2270 	bic.w	r2, r2, #983040	; 0xf0000
 8000b1e:	ea42 420c 	orr.w	r2, r2, ip, lsl #16
 8000b22:	6042      	str	r2, [r0, #4]
 8000b24:	f413 5100 	ands.w	r1, r3, #8192	; 0x2000
 8000b28:	d006      	beq.n	8000b38 <gpio_init+0x380>
 8000b2a:	6842      	ldr	r2, [r0, #4]
 8000b2c:	6101      	str	r1, [r0, #16]
 8000b2e:	f422 0270 	bic.w	r2, r2, #15728640	; 0xf00000
 8000b32:	ea42 520c 	orr.w	r2, r2, ip, lsl #20
 8000b36:	6042      	str	r2, [r0, #4]
 8000b38:	f413 4180 	ands.w	r1, r3, #16384	; 0x4000
 8000b3c:	d006      	beq.n	8000b4c <gpio_init+0x394>
 8000b3e:	6842      	ldr	r2, [r0, #4]
 8000b40:	6101      	str	r1, [r0, #16]
 8000b42:	f022 6270 	bic.w	r2, r2, #251658240	; 0xf000000
 8000b46:	ea42 620c 	orr.w	r2, r2, ip, lsl #24
 8000b4a:	6042      	str	r2, [r0, #4]
 8000b4c:	f413 4300 	ands.w	r3, r3, #32768	; 0x8000
 8000b50:	d106      	bne.n	8000b60 <gpio_init+0x3a8>
 8000b52:	4770      	bx	lr
 8000b54:	6bc2      	ldr	r2, [r0, #60]	; 0x3c
 8000b56:	431a      	orrs	r2, r3
 8000b58:	f04c 0c03 	orr.w	ip, ip, #3
 8000b5c:	63c2      	str	r2, [r0, #60]	; 0x3c
 8000b5e:	e635      	b.n	80007cc <gpio_init+0x14>
 8000b60:	6842      	ldr	r2, [r0, #4]
 8000b62:	6103      	str	r3, [r0, #16]
 8000b64:	f022 4370 	bic.w	r3, r2, #4026531840	; 0xf0000000
 8000b68:	ea43 730c 	orr.w	r3, r3, ip, lsl #28
 8000b6c:	6043      	str	r3, [r0, #4]
 8000b6e:	4770      	bx	lr

08000b70 <gpio_bit_set>:
 8000b70:	6101      	str	r1, [r0, #16]
 8000b72:	4770      	bx	lr

08000b74 <gpio_bit_reset>:
 8000b74:	6141      	str	r1, [r0, #20]
 8000b76:	4770      	bx	lr

08000b78 <gpio_bit_write>:
 8000b78:	b10a      	cbz	r2, 8000b7e <gpio_bit_write+0x6>
 8000b7a:	6101      	str	r1, [r0, #16]
 8000b7c:	4770      	bx	lr
 8000b7e:	6141      	str	r1, [r0, #20]
 8000b80:	4770      	bx	lr
 8000b82:	bf00      	nop

08000b84 <gpio_input_bit_get>:
 8000b84:	6883      	ldr	r3, [r0, #8]
 8000b86:	420b      	tst	r3, r1
 8000b88:	bf14      	ite	ne
 8000b8a:	2001      	movne	r0, #1
 8000b8c:	2000      	moveq	r0, #0
 8000b8e:	4770      	bx	lr

08000b90 <gpio_pin_remap_config>:
 8000b90:	2800      	cmp	r0, #0
 8000b92:	4b1a      	ldr	r3, [pc, #104]	; (8000bfc <gpio_pin_remap_config+0x6c>)
 8000b94:	f400 1240 	and.w	r2, r0, #3145728	; 0x300000
 8000b98:	bfb4      	ite	lt
 8000b9a:	69db      	ldrlt	r3, [r3, #28]
 8000b9c:	685b      	ldrge	r3, [r3, #4]
 8000b9e:	f5b2 1f40 	cmp.w	r2, #3145728	; 0x300000
 8000ba2:	b410      	push	{r4}
 8000ba4:	fa1f fc80 	uxth.w	ip, r0
 8000ba8:	d01f      	beq.n	8000bea <gpio_pin_remap_config+0x5a>
 8000baa:	02c2      	lsls	r2, r0, #11
 8000bac:	d514      	bpl.n	8000bd8 <gpio_pin_remap_config+0x48>
 8000bae:	f3c0 4403 	ubfx	r4, r0, #16, #4
 8000bb2:	2203      	movs	r2, #3
 8000bb4:	40a2      	lsls	r2, r4
 8000bb6:	ea23 0302 	bic.w	r3, r3, r2
 8000bba:	f043 63e0 	orr.w	r3, r3, #117440512	; 0x7000000
 8000bbe:	b121      	cbz	r1, 8000bca <gpio_pin_remap_config+0x3a>
 8000bc0:	0d42      	lsrs	r2, r0, #21
 8000bc2:	0112      	lsls	r2, r2, #4
 8000bc4:	fa0c f202 	lsl.w	r2, ip, r2
 8000bc8:	4313      	orrs	r3, r2
 8000bca:	4a0c      	ldr	r2, [pc, #48]	; (8000bfc <gpio_pin_remap_config+0x6c>)
 8000bcc:	bc10      	pop	{r4}
 8000bce:	2800      	cmp	r0, #0
 8000bd0:	bfb4      	ite	lt
 8000bd2:	61d3      	strlt	r3, [r2, #28]
 8000bd4:	6053      	strge	r3, [r2, #4]
 8000bd6:	4770      	bx	lr
 8000bd8:	0d42      	lsrs	r2, r0, #21
 8000bda:	0112      	lsls	r2, r2, #4
 8000bdc:	fa0c f202 	lsl.w	r2, ip, r2
 8000be0:	ea23 0302 	bic.w	r3, r3, r2
 8000be4:	f043 63e0 	orr.w	r3, r3, #117440512	; 0x7000000
 8000be8:	e7e9      	b.n	8000bbe <gpio_pin_remap_config+0x2e>
 8000bea:	4c04      	ldr	r4, [pc, #16]	; (8000bfc <gpio_pin_remap_config+0x6c>)
 8000bec:	6862      	ldr	r2, [r4, #4]
 8000bee:	f022 62e0 	bic.w	r2, r2, #117440512	; 0x7000000
 8000bf2:	f023 63e0 	bic.w	r3, r3, #117440512	; 0x7000000
 8000bf6:	6062      	str	r2, [r4, #4]
 8000bf8:	e7e1      	b.n	8000bbe <gpio_pin_remap_config+0x2e>
 8000bfa:	bf00      	nop
 8000bfc:	0000      	movs	r0, r0
 8000bfe:	4001      	ands	r1, r0

08000c00 <gpio_exti_source_select>:
 8000c00:	f001 0303 	and.w	r3, r1, #3
 8000c04:	009b      	lsls	r3, r3, #2
 8000c06:	220f      	movs	r2, #15
 8000c08:	2903      	cmp	r1, #3
 8000c0a:	fa02 fc03 	lsl.w	ip, r2, r3
 8000c0e:	d809      	bhi.n	8000c24 <gpio_exti_source_select+0x24>
 8000c10:	4a15      	ldr	r2, [pc, #84]	; (8000c68 <gpio_exti_source_select+0x68>)
 8000c12:	4098      	lsls	r0, r3
 8000c14:	6893      	ldr	r3, [r2, #8]
 8000c16:	ea23 030c 	bic.w	r3, r3, ip
 8000c1a:	6093      	str	r3, [r2, #8]
 8000c1c:	6893      	ldr	r3, [r2, #8]
 8000c1e:	4318      	orrs	r0, r3
 8000c20:	6090      	str	r0, [r2, #8]
 8000c22:	4770      	bx	lr
 8000c24:	2907      	cmp	r1, #7
 8000c26:	d809      	bhi.n	8000c3c <gpio_exti_source_select+0x3c>
 8000c28:	490f      	ldr	r1, [pc, #60]	; (8000c68 <gpio_exti_source_select+0x68>)
 8000c2a:	4098      	lsls	r0, r3
 8000c2c:	68cb      	ldr	r3, [r1, #12]
 8000c2e:	ea23 030c 	bic.w	r3, r3, ip
 8000c32:	60cb      	str	r3, [r1, #12]
 8000c34:	68cb      	ldr	r3, [r1, #12]
 8000c36:	4318      	orrs	r0, r3
 8000c38:	60c8      	str	r0, [r1, #12]
 8000c3a:	4770      	bx	lr
 8000c3c:	290b      	cmp	r1, #11
 8000c3e:	fa00 f003 	lsl.w	r0, r0, r3
 8000c42:	4909      	ldr	r1, [pc, #36]	; (8000c68 <gpio_exti_source_select+0x68>)
 8000c44:	d807      	bhi.n	8000c56 <gpio_exti_source_select+0x56>
 8000c46:	690b      	ldr	r3, [r1, #16]
 8000c48:	ea23 030c 	bic.w	r3, r3, ip
 8000c4c:	610b      	str	r3, [r1, #16]
 8000c4e:	690b      	ldr	r3, [r1, #16]
 8000c50:	4318      	orrs	r0, r3
 8000c52:	6108      	str	r0, [r1, #16]
 8000c54:	4770      	bx	lr
 8000c56:	694b      	ldr	r3, [r1, #20]
 8000c58:	ea23 030c 	bic.w	r3, r3, ip
 8000c5c:	614b      	str	r3, [r1, #20]
 8000c5e:	694b      	ldr	r3, [r1, #20]
 8000c60:	4318      	orrs	r0, r3
 8000c62:	6148      	str	r0, [r1, #20]
 8000c64:	4770      	bx	lr
 8000c66:	bf00      	nop
 8000c68:	0000      	movs	r0, r0
 8000c6a:	4001      	ands	r1, r0

08000c6c <nvic_priority_group_set>:
 8000c6c:	4b03      	ldr	r3, [pc, #12]	; (8000c7c <nvic_priority_group_set+0x10>)
 8000c6e:	f040 60bf 	orr.w	r0, r0, #100139008	; 0x5f80000
 8000c72:	f440 3000 	orr.w	r0, r0, #131072	; 0x20000
 8000c76:	60d8      	str	r0, [r3, #12]
 8000c78:	4770      	bx	lr
 8000c7a:	bf00      	nop
 8000c7c:	ed00 e000 	stc	0, cr14, [r0, #-0]

08000c80 <nvic_irq_enable>:
 8000c80:	4b23      	ldr	r3, [pc, #140]	; (8000d10 <nvic_irq_enable+0x90>)
 8000c82:	b410      	push	{r4}
 8000c84:	68dc      	ldr	r4, [r3, #12]
 8000c86:	f404 64e0 	and.w	r4, r4, #1792	; 0x700
 8000c8a:	f5b4 6fe0 	cmp.w	r4, #1792	; 0x700
 8000c8e:	d033      	beq.n	8000cf8 <nvic_irq_enable+0x78>
 8000c90:	68dc      	ldr	r4, [r3, #12]
 8000c92:	f404 64e0 	and.w	r4, r4, #1792	; 0x700
 8000c96:	f5b4 6fc0 	cmp.w	r4, #1536	; 0x600
 8000c9a:	d017      	beq.n	8000ccc <nvic_irq_enable+0x4c>
 8000c9c:	68dc      	ldr	r4, [r3, #12]
 8000c9e:	f404 64e0 	and.w	r4, r4, #1792	; 0x700
 8000ca2:	f5b4 6fa0 	cmp.w	r4, #1280	; 0x500
 8000ca6:	d00d      	beq.n	8000cc4 <nvic_irq_enable+0x44>
 8000ca8:	68dc      	ldr	r4, [r3, #12]
 8000caa:	f404 64e0 	and.w	r4, r4, #1792	; 0x700
 8000cae:	f5b4 6f80 	cmp.w	r4, #1024	; 0x400
 8000cb2:	d025      	beq.n	8000d00 <nvic_irq_enable+0x80>
 8000cb4:	68dc      	ldr	r4, [r3, #12]
 8000cb6:	f404 64e0 	and.w	r4, r4, #1792	; 0x700
 8000cba:	f5b4 7f40 	cmp.w	r4, #768	; 0x300
 8000cbe:	d023      	beq.n	8000d08 <nvic_irq_enable+0x88>
 8000cc0:	4c14      	ldr	r4, [pc, #80]	; (8000d14 <nvic_irq_enable+0x94>)
 8000cc2:	60dc      	str	r4, [r3, #12]
 8000cc4:	f002 0203 	and.w	r2, r2, #3
 8000cc8:	2302      	movs	r3, #2
 8000cca:	e002      	b.n	8000cd2 <nvic_irq_enable+0x52>
 8000ccc:	f002 0207 	and.w	r2, r2, #7
 8000cd0:	2303      	movs	r3, #3
 8000cd2:	4c11      	ldr	r4, [pc, #68]	; (8000d18 <nvic_irq_enable+0x98>)
 8000cd4:	fa01 f303 	lsl.w	r3, r1, r3
 8000cd8:	4313      	orrs	r3, r2
 8000cda:	1821      	adds	r1, r4, r0
 8000cdc:	011b      	lsls	r3, r3, #4
 8000cde:	b2db      	uxtb	r3, r3
 8000ce0:	f881 3300 	strb.w	r3, [r1, #768]	; 0x300
 8000ce4:	0942      	lsrs	r2, r0, #5
 8000ce6:	2301      	movs	r3, #1
 8000ce8:	f000 001f 	and.w	r0, r0, #31
 8000cec:	fa03 f000 	lsl.w	r0, r3, r0
 8000cf0:	f844 0022 	str.w	r0, [r4, r2, lsl #2]
 8000cf4:	bc10      	pop	{r4}
 8000cf6:	4770      	bx	lr
 8000cf8:	f002 020f 	and.w	r2, r2, #15
 8000cfc:	2304      	movs	r3, #4
 8000cfe:	e7e8      	b.n	8000cd2 <nvic_irq_enable+0x52>
 8000d00:	f002 0201 	and.w	r2, r2, #1
 8000d04:	2301      	movs	r3, #1
 8000d06:	e7e4      	b.n	8000cd2 <nvic_irq_enable+0x52>
 8000d08:	2200      	movs	r2, #0
 8000d0a:	4613      	mov	r3, r2
 8000d0c:	e7e1      	b.n	8000cd2 <nvic_irq_enable+0x52>
 8000d0e:	bf00      	nop
 8000d10:	ed00 e000 	stc	0, cr14, [r0, #-0]
 8000d14:	0500      	lsls	r0, r0, #20
 8000d16:	05fa      	lsls	r2, r7, #23
 8000d18:	e100      	b.n	8000f1c <rcu_clock_freq_get+0x40>
 8000d1a:	e000      	b.n	8000d1e <nvic_irq_disable+0x2>

08000d1c <nvic_irq_disable>:
 8000d1c:	0943      	lsrs	r3, r0, #5
 8000d1e:	4905      	ldr	r1, [pc, #20]	; (8000d34 <nvic_irq_disable+0x18>)
 8000d20:	f000 001f 	and.w	r0, r0, #31
 8000d24:	2201      	movs	r2, #1
 8000d26:	3320      	adds	r3, #32
 8000d28:	fa02 f000 	lsl.w	r0, r2, r0
 8000d2c:	f841 0023 	str.w	r0, [r1, r3, lsl #2]
 8000d30:	4770      	bx	lr
 8000d32:	bf00      	nop
 8000d34:	e100      	b.n	8000f38 <rcu_clock_freq_get+0x5c>
 8000d36:	e000      	b.n	8000d3a <pmu_deinit+0x2>

08000d38 <pmu_deinit>:
 8000d38:	b510      	push	{r4, lr}
 8000d3a:	4b05      	ldr	r3, [pc, #20]	; (8000d50 <pmu_deinit+0x18>)
 8000d3c:	f240 401c 	movw	r0, #1052	; 0x41c
 8000d40:	4798      	blx	r3
 8000d42:	e8bd 4010 	ldmia.w	sp!, {r4, lr}
 8000d46:	4b03      	ldr	r3, [pc, #12]	; (8000d54 <pmu_deinit+0x1c>)
 8000d48:	f240 401c 	movw	r0, #1052	; 0x41c
 8000d4c:	4718      	bx	r3
 8000d4e:	bf00      	nop
 8000d50:	0e39      	lsrs	r1, r7, #24
 8000d52:	0800      	lsrs	r0, r0, #32
 8000d54:	0e55      	lsrs	r5, r2, #25
 8000d56:	0800      	lsrs	r0, r0, #32

08000d58 <pmu_to_deepsleepmode>:
 8000d58:	4b2a      	ldr	r3, [pc, #168]	; (8000e04 <pmu_to_deepsleepmode+0xac>)
 8000d5a:	b430      	push	{r4, r5}
 8000d5c:	681d      	ldr	r5, [r3, #0]
 8000d5e:	4c2a      	ldr	r4, [pc, #168]	; (8000e08 <pmu_to_deepsleepmode+0xb0>)
 8000d60:	402c      	ands	r4, r5
 8000d62:	601c      	str	r4, [r3, #0]
 8000d64:	681c      	ldr	r4, [r3, #0]
 8000d66:	f5b1 2f40 	cmp.w	r1, #786432	; 0xc0000
 8000d6a:	ea44 0400 	orr.w	r4, r4, r0
 8000d6e:	601c      	str	r4, [r3, #0]
 8000d70:	d03b      	beq.n	8000dea <pmu_to_deepsleepmode+0x92>
 8000d72:	4c26      	ldr	r4, [pc, #152]	; (8000e0c <pmu_to_deepsleepmode+0xb4>)
 8000d74:	4926      	ldr	r1, [pc, #152]	; (8000e10 <pmu_to_deepsleepmode+0xb8>)
 8000d76:	6920      	ldr	r0, [r4, #16]
 8000d78:	f04f 23e0 	mov.w	r3, #3758153728	; 0xe000e000
 8000d7c:	f040 0004 	orr.w	r0, r0, #4
 8000d80:	6120      	str	r0, [r4, #16]
 8000d82:	6918      	ldr	r0, [r3, #16]
 8000d84:	6008      	str	r0, [r1, #0]
 8000d86:	f8d3 4100 	ldr.w	r4, [r3, #256]	; 0x100
 8000d8a:	f8d3 5104 	ldr.w	r5, [r3, #260]	; 0x104
 8000d8e:	4821      	ldr	r0, [pc, #132]	; (8000e14 <pmu_to_deepsleepmode+0xbc>)
 8000d90:	e9c1 4501 	strd	r4, r5, [r1, #4]
 8000d94:	f8d3 4108 	ldr.w	r4, [r3, #264]	; 0x108
 8000d98:	60cc      	str	r4, [r1, #12]
 8000d9a:	691c      	ldr	r4, [r3, #16]
 8000d9c:	4020      	ands	r0, r4
 8000d9e:	4c1e      	ldr	r4, [pc, #120]	; (8000e18 <pmu_to_deepsleepmode+0xc0>)
 8000da0:	6118      	str	r0, [r3, #16]
 8000da2:	f8c3 4180 	str.w	r4, [r3, #384]	; 0x180
 8000da6:	f04f 30ff 	mov.w	r0, #4294967295
 8000daa:	f46f 64e0 	mvn.w	r4, #1792	; 0x700
 8000dae:	f8c3 4184 	str.w	r4, [r3, #388]	; 0x184
 8000db2:	f8c3 0188 	str.w	r0, [r3, #392]	; 0x188
 8000db6:	b9a2      	cbnz	r2, 8000de2 <pmu_to_deepsleepmode+0x8a>
 8000db8:	bf30      	wfi
 8000dba:	f04f 23e0 	mov.w	r3, #3758153728	; 0xe000e000
 8000dbe:	6808      	ldr	r0, [r1, #0]
 8000dc0:	684c      	ldr	r4, [r1, #4]
 8000dc2:	6118      	str	r0, [r3, #16]
 8000dc4:	e9d1 0102 	ldrd	r0, r1, [r1, #8]
 8000dc8:	4a10      	ldr	r2, [pc, #64]	; (8000e0c <pmu_to_deepsleepmode+0xb4>)
 8000dca:	f8c3 4100 	str.w	r4, [r3, #256]	; 0x100
 8000dce:	f8c3 0104 	str.w	r0, [r3, #260]	; 0x104
 8000dd2:	f8c3 1108 	str.w	r1, [r3, #264]	; 0x108
 8000dd6:	6913      	ldr	r3, [r2, #16]
 8000dd8:	f023 0304 	bic.w	r3, r3, #4
 8000ddc:	bc30      	pop	{r4, r5}
 8000dde:	6113      	str	r3, [r2, #16]
 8000de0:	4770      	bx	lr
 8000de2:	bf40      	sev
 8000de4:	bf20      	wfe
 8000de6:	bf20      	wfe
 8000de8:	e7e7      	b.n	8000dba <pmu_to_deepsleepmode+0x62>
 8000dea:	6819      	ldr	r1, [r3, #0]
 8000dec:	f441 2140 	orr.w	r1, r1, #786432	; 0xc0000
 8000df0:	b918      	cbnz	r0, 8000dfa <pmu_to_deepsleepmode+0xa2>
 8000df2:	f441 6100 	orr.w	r1, r1, #2048	; 0x800
 8000df6:	6019      	str	r1, [r3, #0]
 8000df8:	e7bb      	b.n	8000d72 <pmu_to_deepsleepmode+0x1a>
 8000dfa:	f441 6180 	orr.w	r1, r1, #1024	; 0x400
 8000dfe:	6019      	str	r1, [r3, #0]
 8000e00:	e7b7      	b.n	8000d72 <pmu_to_deepsleepmode+0x1a>
 8000e02:	bf00      	nop
 8000e04:	7000      	strb	r0, [r0, #0]
 8000e06:	4000      	ands	r0, r0
 8000e08:	f3fc fff3 	bl	83fddf2 <_sidata+0x3f52de>
 8000e0c:	ed00 e000 	stc	0, cr14, [r0, #-0]
 8000e10:	0d5c      	lsrs	r4, r3, #21
 8000e12:	2000      	movs	r0, #0
 8000e14:	0004      	movs	r4, r0
 8000e16:	0001      	movs	r1, r0
 8000e18:	f83d ff7f 	pldw	[sp, #127]!

08000e1c <rcu_periph_clock_enable>:
 8000e1c:	0983      	lsrs	r3, r0, #6
 8000e1e:	f103 4380 	add.w	r3, r3, #1073741824	; 0x40000000
 8000e22:	f503 3304 	add.w	r3, r3, #135168	; 0x21000
 8000e26:	f000 001f 	and.w	r0, r0, #31
 8000e2a:	6819      	ldr	r1, [r3, #0]
 8000e2c:	2201      	movs	r2, #1
 8000e2e:	fa02 f000 	lsl.w	r0, r2, r0
 8000e32:	4308      	orrs	r0, r1
 8000e34:	6018      	str	r0, [r3, #0]
 8000e36:	4770      	bx	lr

08000e38 <rcu_periph_reset_enable>:
 8000e38:	0983      	lsrs	r3, r0, #6
 8000e3a:	f103 4380 	add.w	r3, r3, #1073741824	; 0x40000000
 8000e3e:	f503 3304 	add.w	r3, r3, #135168	; 0x21000
 8000e42:	f000 001f 	and.w	r0, r0, #31
 8000e46:	6819      	ldr	r1, [r3, #0]
 8000e48:	2201      	movs	r2, #1
 8000e4a:	fa02 f000 	lsl.w	r0, r2, r0
 8000e4e:	4308      	orrs	r0, r1
 8000e50:	6018      	str	r0, [r3, #0]
 8000e52:	4770      	bx	lr

08000e54 <rcu_periph_reset_disable>:
 8000e54:	0983      	lsrs	r3, r0, #6
 8000e56:	f103 4380 	add.w	r3, r3, #1073741824	; 0x40000000
 8000e5a:	f503 3304 	add.w	r3, r3, #135168	; 0x21000
 8000e5e:	f000 001f 	and.w	r0, r0, #31
 8000e62:	681a      	ldr	r2, [r3, #0]
 8000e64:	2101      	movs	r1, #1
 8000e66:	fa01 f000 	lsl.w	r0, r1, r0
 8000e6a:	ea22 0000 	bic.w	r0, r2, r0
 8000e6e:	6018      	str	r0, [r3, #0]
 8000e70:	4770      	bx	lr
 8000e72:	bf00      	nop

08000e74 <rcu_system_clock_source_config>:
 8000e74:	4a03      	ldr	r2, [pc, #12]	; (8000e84 <rcu_system_clock_source_config+0x10>)
 8000e76:	6853      	ldr	r3, [r2, #4]
 8000e78:	f023 0303 	bic.w	r3, r3, #3
 8000e7c:	4303      	orrs	r3, r0
 8000e7e:	6053      	str	r3, [r2, #4]
 8000e80:	4770      	bx	lr
 8000e82:	bf00      	nop
 8000e84:	1000      	asrs	r0, r0, #32
 8000e86:	4002      	ands	r2, r0

08000e88 <rcu_system_clock_source_get>:
 8000e88:	4b02      	ldr	r3, [pc, #8]	; (8000e94 <rcu_system_clock_source_get+0xc>)
 8000e8a:	6858      	ldr	r0, [r3, #4]
 8000e8c:	f000 000c 	and.w	r0, r0, #12
 8000e90:	4770      	bx	lr
 8000e92:	bf00      	nop
 8000e94:	1000      	asrs	r0, r0, #32
 8000e96:	4002      	ands	r2, r0

08000e98 <rcu_usb_clock_config>:
 8000e98:	4a03      	ldr	r2, [pc, #12]	; (8000ea8 <rcu_usb_clock_config+0x10>)
 8000e9a:	6853      	ldr	r3, [r2, #4]
 8000e9c:	f423 0340 	bic.w	r3, r3, #12582912	; 0xc00000
 8000ea0:	4303      	orrs	r3, r0
 8000ea2:	6053      	str	r3, [r2, #4]
 8000ea4:	4770      	bx	lr
 8000ea6:	bf00      	nop
 8000ea8:	1000      	asrs	r0, r0, #32
 8000eaa:	4002      	ands	r2, r0

08000eac <rcu_rtc_clock_config>:
 8000eac:	4a03      	ldr	r2, [pc, #12]	; (8000ebc <rcu_rtc_clock_config+0x10>)
 8000eae:	6a13      	ldr	r3, [r2, #32]
 8000eb0:	f423 7340 	bic.w	r3, r3, #768	; 0x300
 8000eb4:	4303      	orrs	r3, r0
 8000eb6:	6213      	str	r3, [r2, #32]
 8000eb8:	4770      	bx	lr
 8000eba:	bf00      	nop
 8000ebc:	1000      	asrs	r0, r0, #32
 8000ebe:	4002      	ands	r2, r0

08000ec0 <rcu_osci_on>:
 8000ec0:	0983      	lsrs	r3, r0, #6
 8000ec2:	f103 4380 	add.w	r3, r3, #1073741824	; 0x40000000
 8000ec6:	f503 3304 	add.w	r3, r3, #135168	; 0x21000
 8000eca:	f000 001f 	and.w	r0, r0, #31
 8000ece:	6819      	ldr	r1, [r3, #0]
 8000ed0:	2201      	movs	r2, #1
 8000ed2:	fa02 f000 	lsl.w	r0, r2, r0
 8000ed6:	4308      	orrs	r0, r1
 8000ed8:	6018      	str	r0, [r3, #0]
 8000eda:	4770      	bx	lr

08000edc <rcu_clock_freq_get>:
 8000edc:	b510      	push	{r4, lr}
 8000ede:	4c4c      	ldr	r4, [pc, #304]	; (8001010 <rcu_clock_freq_get+0x134>)
 8000ee0:	4684      	mov	ip, r0
 8000ee2:	e894 000f 	ldmia.w	r4, {r0, r1, r2, r3}
 8000ee6:	b088      	sub	sp, #32
 8000ee8:	f10d 0e20 	add.w	lr, sp, #32
 8000eec:	3410      	adds	r4, #16
 8000eee:	e90e 000f 	stmdb	lr, {r0, r1, r2, r3}
 8000ef2:	e894 0003 	ldmia.w	r4, {r0, r1}
 8000ef6:	466b      	mov	r3, sp
 8000ef8:	e883 0003 	stmia.w	r3, {r0, r1}
 8000efc:	ab02      	add	r3, sp, #8
 8000efe:	e883 0003 	stmia.w	r3, {r0, r1}
 8000f02:	4a44      	ldr	r2, [pc, #272]	; (8001014 <rcu_clock_freq_get+0x138>)
 8000f04:	6853      	ldr	r3, [r2, #4]
 8000f06:	f3c3 0381 	ubfx	r3, r3, #2, #2
 8000f0a:	2b01      	cmp	r3, #1
 8000f0c:	d040      	beq.n	8000f90 <rcu_clock_freq_get+0xb4>
 8000f0e:	2b02      	cmp	r3, #2
 8000f10:	d115      	bne.n	8000f3e <rcu_clock_freq_get+0x62>
 8000f12:	6853      	ldr	r3, [r2, #4]
 8000f14:	03d9      	lsls	r1, r3, #15
 8000f16:	d43d      	bmi.n	8000f94 <rcu_clock_freq_get+0xb8>
 8000f18:	483f      	ldr	r0, [pc, #252]	; (8001018 <rcu_clock_freq_get+0x13c>)
 8000f1a:	4a3e      	ldr	r2, [pc, #248]	; (8001014 <rcu_clock_freq_get+0x138>)
 8000f1c:	6853      	ldr	r3, [r2, #4]
 8000f1e:	6851      	ldr	r1, [r2, #4]
 8000f20:	6852      	ldr	r2, [r2, #4]
 8000f22:	008c      	lsls	r4, r1, #2
 8000f24:	f3c3 4383 	ubfx	r3, r3, #18, #4
 8000f28:	d556      	bpl.n	8000fd8 <rcu_clock_freq_get+0xfc>
 8000f2a:	0051      	lsls	r1, r2, #1
 8000f2c:	d56a      	bpl.n	8001004 <rcu_clock_freq_get+0x128>
 8000f2e:	f043 0330 	orr.w	r3, r3, #48	; 0x30
 8000f32:	2b3f      	cmp	r3, #63	; 0x3f
 8000f34:	bf08      	it	eq
 8000f36:	ebc0 1080 	rsbeq	r0, r0, r0, lsl #6
 8000f3a:	d001      	beq.n	8000f40 <rcu_clock_freq_get+0x64>
 8000f3c:	e050      	b.n	8000fe0 <rcu_clock_freq_get+0x104>
 8000f3e:	4837      	ldr	r0, [pc, #220]	; (800101c <rcu_clock_freq_get+0x140>)
 8000f40:	4b34      	ldr	r3, [pc, #208]	; (8001014 <rcu_clock_freq_get+0x138>)
 8000f42:	6859      	ldr	r1, [r3, #4]
 8000f44:	685a      	ldr	r2, [r3, #4]
 8000f46:	685b      	ldr	r3, [r3, #4]
 8000f48:	ac08      	add	r4, sp, #32
 8000f4a:	f3c1 1103 	ubfx	r1, r1, #4, #4
 8000f4e:	4421      	add	r1, r4
 8000f50:	f3c2 2202 	ubfx	r2, r2, #8, #3
 8000f54:	f3c3 23c2 	ubfx	r3, r3, #11, #3
 8000f58:	f811 1c10 	ldrb.w	r1, [r1, #-16]
 8000f5c:	4422      	add	r2, r4
 8000f5e:	4423      	add	r3, r4
 8000f60:	f812 2c20 	ldrb.w	r2, [r2, #-32]
 8000f64:	f813 3c18 	ldrb.w	r3, [r3, #-24]
 8000f68:	fa20 f101 	lsr.w	r1, r0, r1
 8000f6c:	f1bc 0f03 	cmp.w	ip, #3
 8000f70:	d84b      	bhi.n	800100a <rcu_clock_freq_get+0x12e>
 8000f72:	e8df f00c 	tbb	[pc, ip]
 8000f76:	0a04      	lsrs	r4, r0, #8
 8000f78:	0206      	lsls	r6, r0, #8
 8000f7a:	fa21 f003 	lsr.w	r0, r1, r3
 8000f7e:	b008      	add	sp, #32
 8000f80:	bd10      	pop	{r4, pc}
 8000f82:	fa21 f002 	lsr.w	r0, r1, r2
 8000f86:	b008      	add	sp, #32
 8000f88:	bd10      	pop	{r4, pc}
 8000f8a:	4608      	mov	r0, r1
 8000f8c:	b008      	add	sp, #32
 8000f8e:	bd10      	pop	{r4, pc}
 8000f90:	4823      	ldr	r0, [pc, #140]	; (8001020 <rcu_clock_freq_get+0x144>)
 8000f92:	e7d5      	b.n	8000f40 <rcu_clock_freq_get+0x64>
 8000f94:	6ad3      	ldr	r3, [r2, #44]	; 0x2c
 8000f96:	4923      	ldr	r1, [pc, #140]	; (8001024 <rcu_clock_freq_get+0x148>)
 8000f98:	4821      	ldr	r0, [pc, #132]	; (8001020 <rcu_clock_freq_get+0x144>)
 8000f9a:	f013 4f80 	tst.w	r3, #1073741824	; 0x40000000
 8000f9e:	6ad3      	ldr	r3, [r2, #44]	; 0x2c
 8000fa0:	bf18      	it	ne
 8000fa2:	4608      	movne	r0, r1
 8000fa4:	03db      	lsls	r3, r3, #15
 8000fa6:	d50f      	bpl.n	8000fc8 <rcu_clock_freq_get+0xec>
 8000fa8:	6ad1      	ldr	r1, [r2, #44]	; 0x2c
 8000faa:	6ad3      	ldr	r3, [r2, #44]	; 0x2c
 8000fac:	f3c3 2303 	ubfx	r3, r3, #8, #4
 8000fb0:	2b0f      	cmp	r3, #15
 8000fb2:	f3c1 1203 	ubfx	r2, r1, #4, #4
 8000fb6:	f103 0302 	add.w	r3, r3, #2
 8000fba:	bf08      	it	eq
 8000fbc:	2314      	moveq	r3, #20
 8000fbe:	3201      	adds	r2, #1
 8000fc0:	fbb0 f0f2 	udiv	r0, r0, r2
 8000fc4:	fb03 f000 	mul.w	r0, r3, r0
 8000fc8:	4b12      	ldr	r3, [pc, #72]	; (8001014 <rcu_clock_freq_get+0x138>)
 8000fca:	6adb      	ldr	r3, [r3, #44]	; 0x2c
 8000fcc:	f003 030f 	and.w	r3, r3, #15
 8000fd0:	3301      	adds	r3, #1
 8000fd2:	fbb0 f0f3 	udiv	r0, r0, r3
 8000fd6:	e7a0      	b.n	8000f1a <rcu_clock_freq_get+0x3e>
 8000fd8:	0052      	lsls	r2, r2, #1
 8000fda:	d504      	bpl.n	8000fe6 <rcu_clock_freq_get+0x10a>
 8000fdc:	f043 0320 	orr.w	r3, r3, #32
 8000fe0:	fb03 0000 	mla	r0, r3, r0, r0
 8000fe4:	e7ac      	b.n	8000f40 <rcu_clock_freq_get+0x64>
 8000fe6:	2b0f      	cmp	r3, #15
 8000fe8:	d0fa      	beq.n	8000fe0 <rcu_clock_freq_get+0x104>
 8000fea:	2b0d      	cmp	r3, #13
 8000fec:	f103 0202 	add.w	r2, r3, #2
 8000ff0:	d105      	bne.n	8000ffe <rcu_clock_freq_get+0x122>
 8000ff2:	eb00 0340 	add.w	r3, r0, r0, lsl #1
 8000ff6:	0840      	lsrs	r0, r0, #1
 8000ff8:	eb00 0043 	add.w	r0, r0, r3, lsl #1
 8000ffc:	e7a0      	b.n	8000f40 <rcu_clock_freq_get+0x64>
 8000ffe:	fb02 f000 	mul.w	r0, r2, r0
 8001002:	e79d      	b.n	8000f40 <rcu_clock_freq_get+0x64>
 8001004:	f043 0310 	orr.w	r3, r3, #16
 8001008:	e7ea      	b.n	8000fe0 <rcu_clock_freq_get+0x104>
 800100a:	2000      	movs	r0, #0
 800100c:	e7b7      	b.n	8000f7e <rcu_clock_freq_get+0xa2>
 800100e:	bf00      	nop
 8001010:	74f4      	strb	r4, [r6, #19]
 8001012:	0800      	lsrs	r0, r0, #32
 8001014:	1000      	asrs	r0, r0, #32
 8001016:	4002      	ands	r2, r0
 8001018:	0900      	lsrs	r0, r0, #4
 800101a:	003d      	movs	r5, r7
 800101c:	1200      	asrs	r0, r0, #8
 800101e:	007a      	lsls	r2, r7, #1
 8001020:	1b00      	subs	r0, r0, r4
 8001022:	00b7      	lsls	r7, r6, #2
 8001024:	6c00      	ldr	r0, [r0, #64]	; 0x40
 8001026:	02dc      	lsls	r4, r3, #11

08001028 <rcu_flag_get>:
 8001028:	0983      	lsrs	r3, r0, #6
 800102a:	f103 4380 	add.w	r3, r3, #1073741824	; 0x40000000
 800102e:	f503 3304 	add.w	r3, r3, #135168	; 0x21000
 8001032:	f000 001f 	and.w	r0, r0, #31
 8001036:	681b      	ldr	r3, [r3, #0]
 8001038:	fa23 f000 	lsr.w	r0, r3, r0
 800103c:	f000 0001 	and.w	r0, r0, #1
 8001040:	4770      	bx	lr
 8001042:	bf00      	nop

08001044 <spi_i2s_deinit>:
 8001044:	4b15      	ldr	r3, [pc, #84]	; (800109c <spi_i2s_deinit+0x58>)
 8001046:	4298      	cmp	r0, r3
 8001048:	b510      	push	{r4, lr}
 800104a:	d008      	beq.n	800105e <spi_i2s_deinit+0x1a>
 800104c:	f503 4374 	add.w	r3, r3, #62464	; 0xf400
 8001050:	4298      	cmp	r0, r3
 8001052:	d018      	beq.n	8001086 <spi_i2s_deinit+0x42>
 8001054:	f5a3 4378 	sub.w	r3, r3, #63488	; 0xf800
 8001058:	4298      	cmp	r0, r3
 800105a:	d00a      	beq.n	8001072 <spi_i2s_deinit+0x2e>
 800105c:	bd10      	pop	{r4, pc}
 800105e:	4b10      	ldr	r3, [pc, #64]	; (80010a0 <spi_i2s_deinit+0x5c>)
 8001060:	f240 400f 	movw	r0, #1039	; 0x40f
 8001064:	4798      	blx	r3
 8001066:	e8bd 4010 	ldmia.w	sp!, {r4, lr}
 800106a:	4b0e      	ldr	r3, [pc, #56]	; (80010a4 <spi_i2s_deinit+0x60>)
 800106c:	f240 400f 	movw	r0, #1039	; 0x40f
 8001070:	4718      	bx	r3
 8001072:	4b0b      	ldr	r3, [pc, #44]	; (80010a0 <spi_i2s_deinit+0x5c>)
 8001074:	f240 400e 	movw	r0, #1038	; 0x40e
 8001078:	4798      	blx	r3
 800107a:	e8bd 4010 	ldmia.w	sp!, {r4, lr}
 800107e:	4b09      	ldr	r3, [pc, #36]	; (80010a4 <spi_i2s_deinit+0x60>)
 8001080:	f240 400e 	movw	r0, #1038	; 0x40e
 8001084:	4718      	bx	r3
 8001086:	4b06      	ldr	r3, [pc, #24]	; (80010a0 <spi_i2s_deinit+0x5c>)
 8001088:	f44f 7043 	mov.w	r0, #780	; 0x30c
 800108c:	4798      	blx	r3
 800108e:	e8bd 4010 	ldmia.w	sp!, {r4, lr}
 8001092:	4b04      	ldr	r3, [pc, #16]	; (80010a4 <spi_i2s_deinit+0x60>)
 8001094:	f44f 7043 	mov.w	r0, #780	; 0x30c
 8001098:	4718      	bx	r3
 800109a:	bf00      	nop
 800109c:	3c00      	subs	r4, #0
 800109e:	4000      	ands	r0, r0
 80010a0:	0e39      	lsrs	r1, r7, #24
 80010a2:	0800      	lsrs	r0, r0, #32
 80010a4:	0e55      	lsrs	r5, r2, #25
 80010a6:	0800      	lsrs	r0, r0, #32

080010a8 <spi_init>:
 80010a8:	b410      	push	{r4}
 80010aa:	e9d1 3400 	ldrd	r3, r4, [r1]
 80010ae:	688a      	ldr	r2, [r1, #8]
 80010b0:	4323      	orrs	r3, r4
 80010b2:	4313      	orrs	r3, r2
 80010b4:	e9d1 2403 	ldrd	r2, r4, [r1, #12]
 80010b8:	4313      	orrs	r3, r2
 80010ba:	4323      	orrs	r3, r4
 80010bc:	e9d1 4105 	ldrd	r4, r1, [r1, #20]
 80010c0:	6802      	ldr	r2, [r0, #0]
 80010c2:	4323      	orrs	r3, r4
 80010c4:	f402 5241 	and.w	r2, r2, #12352	; 0x3040
 80010c8:	430b      	orrs	r3, r1
 80010ca:	4313      	orrs	r3, r2
 80010cc:	6003      	str	r3, [r0, #0]
 80010ce:	69c3      	ldr	r3, [r0, #28]
 80010d0:	bc10      	pop	{r4}
 80010d2:	f423 6300 	bic.w	r3, r3, #2048	; 0x800
 80010d6:	61c3      	str	r3, [r0, #28]
 80010d8:	4770      	bx	lr
 80010da:	bf00      	nop

080010dc <spi_enable>:
 80010dc:	6803      	ldr	r3, [r0, #0]
 80010de:	f043 0340 	orr.w	r3, r3, #64	; 0x40
 80010e2:	6003      	str	r3, [r0, #0]
 80010e4:	4770      	bx	lr
 80010e6:	bf00      	nop

080010e8 <spi_disable>:
 80010e8:	6803      	ldr	r3, [r0, #0]
 80010ea:	f023 0340 	bic.w	r3, r3, #64	; 0x40
 80010ee:	6003      	str	r3, [r0, #0]
 80010f0:	4770      	bx	lr
 80010f2:	bf00      	nop

080010f4 <spi_i2s_data_transmit>:
 80010f4:	60c1      	str	r1, [r0, #12]
 80010f6:	4770      	bx	lr

080010f8 <spi_i2s_data_receive>:
 80010f8:	68c0      	ldr	r0, [r0, #12]
 80010fa:	b280      	uxth	r0, r0
 80010fc:	4770      	bx	lr
 80010fe:	bf00      	nop

08001100 <spi_i2s_interrupt_enable>:
 8001100:	2901      	cmp	r1, #1
 8001102:	d003      	beq.n	800110c <spi_i2s_interrupt_enable+0xc>
 8001104:	2902      	cmp	r1, #2
 8001106:	d00b      	beq.n	8001120 <spi_i2s_interrupt_enable+0x20>
 8001108:	b129      	cbz	r1, 8001116 <spi_i2s_interrupt_enable+0x16>
 800110a:	4770      	bx	lr
 800110c:	6843      	ldr	r3, [r0, #4]
 800110e:	f043 0340 	orr.w	r3, r3, #64	; 0x40
 8001112:	6043      	str	r3, [r0, #4]
 8001114:	4770      	bx	lr
 8001116:	6843      	ldr	r3, [r0, #4]
 8001118:	f043 0380 	orr.w	r3, r3, #128	; 0x80
 800111c:	6043      	str	r3, [r0, #4]
 800111e:	4770      	bx	lr
 8001120:	6843      	ldr	r3, [r0, #4]
 8001122:	f043 0320 	orr.w	r3, r3, #32
 8001126:	6043      	str	r3, [r0, #4]
 8001128:	4770      	bx	lr
 800112a:	bf00      	nop

0800112c <spi_i2s_interrupt_disable>:
 800112c:	2901      	cmp	r1, #1
 800112e:	d003      	beq.n	8001138 <spi_i2s_interrupt_disable+0xc>
 8001130:	2902      	cmp	r1, #2
 8001132:	d00b      	beq.n	800114c <spi_i2s_interrupt_disable+0x20>
 8001134:	b129      	cbz	r1, 8001142 <spi_i2s_interrupt_disable+0x16>
 8001136:	4770      	bx	lr
 8001138:	6843      	ldr	r3, [r0, #4]
 800113a:	f023 0340 	bic.w	r3, r3, #64	; 0x40
 800113e:	6043      	str	r3, [r0, #4]
 8001140:	4770      	bx	lr
 8001142:	6843      	ldr	r3, [r0, #4]
 8001144:	f023 0380 	bic.w	r3, r3, #128	; 0x80
 8001148:	6043      	str	r3, [r0, #4]
 800114a:	4770      	bx	lr
 800114c:	6843      	ldr	r3, [r0, #4]
 800114e:	f023 0320 	bic.w	r3, r3, #32
 8001152:	6043      	str	r3, [r0, #4]
 8001154:	4770      	bx	lr
 8001156:	bf00      	nop

08001158 <spi_i2s_interrupt_flag_get>:
 8001158:	6883      	ldr	r3, [r0, #8]
 800115a:	6840      	ldr	r0, [r0, #4]
 800115c:	2906      	cmp	r1, #6
 800115e:	d809      	bhi.n	8001174 <spi_i2s_interrupt_flag_get+0x1c>
 8001160:	e8df f001 	tbb	[pc, r1]
 8001164:	1404      	asrs	r4, r0, #16
 8001166:	1e19      	subs	r1, r3, #0
 8001168:	2823      	cmp	r0, #35	; 0x23
 800116a:	000f      	movs	r7, r1
 800116c:	f003 0302 	and.w	r3, r3, #2
 8001170:	f000 0080 	and.w	r0, r0, #128	; 0x80
 8001174:	b11b      	cbz	r3, 800117e <spi_i2s_interrupt_flag_get+0x26>
 8001176:	3800      	subs	r0, #0
 8001178:	bf18      	it	ne
 800117a:	2001      	movne	r0, #1
 800117c:	4770      	bx	lr
 800117e:	4618      	mov	r0, r3
 8001180:	4770      	bx	lr
 8001182:	f403 7380 	and.w	r3, r3, #256	; 0x100
 8001186:	f000 0020 	and.w	r0, r0, #32
 800118a:	e7f3      	b.n	8001174 <spi_i2s_interrupt_flag_get+0x1c>
 800118c:	f003 0301 	and.w	r3, r3, #1
 8001190:	f000 0040 	and.w	r0, r0, #64	; 0x40
 8001194:	e7ee      	b.n	8001174 <spi_i2s_interrupt_flag_get+0x1c>
 8001196:	f003 0340 	and.w	r3, r3, #64	; 0x40
 800119a:	f000 0020 	and.w	r0, r0, #32
 800119e:	e7e9      	b.n	8001174 <spi_i2s_interrupt_flag_get+0x1c>
 80011a0:	f003 0320 	and.w	r3, r3, #32
 80011a4:	f000 0020 	and.w	r0, r0, #32
 80011a8:	e7e4      	b.n	8001174 <spi_i2s_interrupt_flag_get+0x1c>
 80011aa:	f003 0310 	and.w	r3, r3, #16
 80011ae:	f000 0020 	and.w	r0, r0, #32
 80011b2:	e7df      	b.n	8001174 <spi_i2s_interrupt_flag_get+0x1c>
 80011b4:	f003 0308 	and.w	r3, r3, #8
 80011b8:	f000 0020 	and.w	r0, r0, #32
 80011bc:	e7da      	b.n	8001174 <spi_i2s_interrupt_flag_get+0x1c>
 80011be:	bf00      	nop

080011c0 <timer_deinit>:
 80011c0:	4b63      	ldr	r3, [pc, #396]	; (8001350 <timer_deinit+0x190>)
 80011c2:	4298      	cmp	r0, r3
 80011c4:	b510      	push	{r4, lr}
 80011c6:	d07c      	beq.n	80012c2 <timer_deinit+0x102>
 80011c8:	d817      	bhi.n	80011fa <timer_deinit+0x3a>
 80011ca:	f5a3 5380 	sub.w	r3, r3, #4096	; 0x1000
 80011ce:	4298      	cmp	r0, r3
 80011d0:	f000 8081 	beq.w	80012d6 <timer_deinit+0x116>
 80011d4:	d936      	bls.n	8001244 <timer_deinit+0x84>
 80011d6:	4b5f      	ldr	r3, [pc, #380]	; (8001354 <timer_deinit+0x194>)
 80011d8:	4298      	cmp	r0, r3
 80011da:	f000 8086 	beq.w	80012ea <timer_deinit+0x12a>
 80011de:	f503 6380 	add.w	r3, r3, #1024	; 0x400
 80011e2:	4298      	cmp	r0, r3
 80011e4:	d120      	bne.n	8001228 <timer_deinit+0x68>
 80011e6:	4b5c      	ldr	r3, [pc, #368]	; (8001358 <timer_deinit+0x198>)
 80011e8:	f240 4006 	movw	r0, #1030	; 0x406
 80011ec:	4798      	blx	r3
 80011ee:	e8bd 4010 	ldmia.w	sp!, {r4, lr}
 80011f2:	4b5a      	ldr	r3, [pc, #360]	; (800135c <timer_deinit+0x19c>)
 80011f4:	f240 4006 	movw	r0, #1030	; 0x406
 80011f8:	4718      	bx	r3
 80011fa:	4b59      	ldr	r3, [pc, #356]	; (8001360 <timer_deinit+0x1a0>)
 80011fc:	4298      	cmp	r0, r3
 80011fe:	d07e      	beq.n	80012fe <timer_deinit+0x13e>
 8001200:	d932      	bls.n	8001268 <timer_deinit+0xa8>
 8001202:	4b58      	ldr	r3, [pc, #352]	; (8001364 <timer_deinit+0x1a4>)
 8001204:	4298      	cmp	r0, r3
 8001206:	f000 8084 	beq.w	8001312 <timer_deinit+0x152>
 800120a:	f503 6380 	add.w	r3, r3, #1024	; 0x400
 800120e:	4298      	cmp	r0, r3
 8001210:	f040 8089 	bne.w	8001326 <timer_deinit+0x166>
 8001214:	4b50      	ldr	r3, [pc, #320]	; (8001358 <timer_deinit+0x198>)
 8001216:	f240 3015 	movw	r0, #789	; 0x315
 800121a:	4798      	blx	r3
 800121c:	e8bd 4010 	ldmia.w	sp!, {r4, lr}
 8001220:	4b4e      	ldr	r3, [pc, #312]	; (800135c <timer_deinit+0x19c>)
 8001222:	f240 3015 	movw	r0, #789	; 0x315
 8001226:	4718      	bx	r3
 8001228:	f5a3 6300 	sub.w	r3, r3, #2048	; 0x800
 800122c:	4298      	cmp	r0, r3
 800122e:	d17a      	bne.n	8001326 <timer_deinit+0x166>
 8001230:	4b49      	ldr	r3, [pc, #292]	; (8001358 <timer_deinit+0x198>)
 8001232:	f240 4004 	movw	r0, #1028	; 0x404
 8001236:	4798      	blx	r3
 8001238:	e8bd 4010 	ldmia.w	sp!, {r4, lr}
 800123c:	4b47      	ldr	r3, [pc, #284]	; (800135c <timer_deinit+0x19c>)
 800123e:	f240 4004 	movw	r0, #1028	; 0x404
 8001242:	4718      	bx	r3
 8001244:	f5a3 6300 	sub.w	r3, r3, #2048	; 0x800
 8001248:	4298      	cmp	r0, r3
 800124a:	d06d      	beq.n	8001328 <timer_deinit+0x168>
 800124c:	f503 6380 	add.w	r3, r3, #1024	; 0x400
 8001250:	4298      	cmp	r0, r3
 8001252:	d11b      	bne.n	800128c <timer_deinit+0xcc>
 8001254:	4b40      	ldr	r3, [pc, #256]	; (8001358 <timer_deinit+0x198>)
 8001256:	f240 4002 	movw	r0, #1026	; 0x402
 800125a:	4798      	blx	r3
 800125c:	e8bd 4010 	ldmia.w	sp!, {r4, lr}
 8001260:	4b3e      	ldr	r3, [pc, #248]	; (800135c <timer_deinit+0x19c>)
 8001262:	f240 4002 	movw	r0, #1026	; 0x402
 8001266:	4718      	bx	r3
 8001268:	f5a3 5300 	sub.w	r3, r3, #8192	; 0x2000
 800126c:	4298      	cmp	r0, r3
 800126e:	d065      	beq.n	800133c <timer_deinit+0x17c>
 8001270:	f503 6300 	add.w	r3, r3, #2048	; 0x800
 8001274:	4298      	cmp	r0, r3
 8001276:	d116      	bne.n	80012a6 <timer_deinit+0xe6>
 8001278:	4b37      	ldr	r3, [pc, #220]	; (8001358 <timer_deinit+0x198>)
 800127a:	f240 300d 	movw	r0, #781	; 0x30d
 800127e:	4798      	blx	r3
 8001280:	e8bd 4010 	ldmia.w	sp!, {r4, lr}
 8001284:	4b35      	ldr	r3, [pc, #212]	; (800135c <timer_deinit+0x19c>)
 8001286:	f240 300d 	movw	r0, #781	; 0x30d
 800128a:	4718      	bx	r3
 800128c:	f1b0 4f80 	cmp.w	r0, #1073741824	; 0x40000000
 8001290:	d149      	bne.n	8001326 <timer_deinit+0x166>
 8001292:	4b31      	ldr	r3, [pc, #196]	; (8001358 <timer_deinit+0x198>)
 8001294:	f44f 6080 	mov.w	r0, #1024	; 0x400
 8001298:	4798      	blx	r3
 800129a:	e8bd 4010 	ldmia.w	sp!, {r4, lr}
 800129e:	4b2f      	ldr	r3, [pc, #188]	; (800135c <timer_deinit+0x19c>)
 80012a0:	f44f 6080 	mov.w	r0, #1024	; 0x400
 80012a4:	4718      	bx	r3
 80012a6:	f5a3 338a 	sub.w	r3, r3, #70656	; 0x11400
 80012aa:	4298      	cmp	r0, r3
 80012ac:	d13b      	bne.n	8001326 <timer_deinit+0x166>
 80012ae:	4b2a      	ldr	r3, [pc, #168]	; (8001358 <timer_deinit+0x198>)
 80012b0:	f44f 6081 	mov.w	r0, #1032	; 0x408
 80012b4:	4798      	blx	r3
 80012b6:	e8bd 4010 	ldmia.w	sp!, {r4, lr}
 80012ba:	4b28      	ldr	r3, [pc, #160]	; (800135c <timer_deinit+0x19c>)
 80012bc:	f44f 6081 	mov.w	r0, #1032	; 0x408
 80012c0:	4718      	bx	r3
 80012c2:	4b25      	ldr	r3, [pc, #148]	; (8001358 <timer_deinit+0x198>)
 80012c4:	f240 4007 	movw	r0, #1031	; 0x407
 80012c8:	4798      	blx	r3
 80012ca:	e8bd 4010 	ldmia.w	sp!, {r4, lr}
 80012ce:	4b23      	ldr	r3, [pc, #140]	; (800135c <timer_deinit+0x19c>)
 80012d0:	f240 4007 	movw	r0, #1031	; 0x407
 80012d4:	4718      	bx	r3
 80012d6:	4b20      	ldr	r3, [pc, #128]	; (8001358 <timer_deinit+0x198>)
 80012d8:	f240 4003 	movw	r0, #1027	; 0x403
 80012dc:	4798      	blx	r3
 80012de:	e8bd 4010 	ldmia.w	sp!, {r4, lr}
 80012e2:	4b1e      	ldr	r3, [pc, #120]	; (800135c <timer_deinit+0x19c>)
 80012e4:	f240 4003 	movw	r0, #1027	; 0x403
 80012e8:	4718      	bx	r3
 80012ea:	4b1b      	ldr	r3, [pc, #108]	; (8001358 <timer_deinit+0x198>)
 80012ec:	f240 4005 	movw	r0, #1029	; 0x405
 80012f0:	4798      	blx	r3
 80012f2:	e8bd 4010 	ldmia.w	sp!, {r4, lr}
 80012f6:	4b19      	ldr	r3, [pc, #100]	; (800135c <timer_deinit+0x19c>)
 80012f8:	f240 4005 	movw	r0, #1029	; 0x405
 80012fc:	4718      	bx	r3
 80012fe:	4b16      	ldr	r3, [pc, #88]	; (8001358 <timer_deinit+0x198>)
 8001300:	f240 3013 	movw	r0, #787	; 0x313
 8001304:	4798      	blx	r3
 8001306:	e8bd 4010 	ldmia.w	sp!, {r4, lr}
 800130a:	4b14      	ldr	r3, [pc, #80]	; (800135c <timer_deinit+0x19c>)
 800130c:	f240 3013 	movw	r0, #787	; 0x313
 8001310:	4718      	bx	r3
 8001312:	4b11      	ldr	r3, [pc, #68]	; (8001358 <timer_deinit+0x198>)
 8001314:	f44f 7045 	mov.w	r0, #788	; 0x314
 8001318:	4798      	blx	r3
 800131a:	e8bd 4010 	ldmia.w	sp!, {r4, lr}
 800131e:	4b0f      	ldr	r3, [pc, #60]	; (800135c <timer_deinit+0x19c>)
 8001320:	f44f 7045 	mov.w	r0, #788	; 0x314
 8001324:	4718      	bx	r3
 8001326:	bd10      	pop	{r4, pc}
 8001328:	4b0b      	ldr	r3, [pc, #44]	; (8001358 <timer_deinit+0x198>)
 800132a:	f240 4001 	movw	r0, #1025	; 0x401
 800132e:	4798      	blx	r3
 8001330:	e8bd 4010 	ldmia.w	sp!, {r4, lr}
 8001334:	4b09      	ldr	r3, [pc, #36]	; (800135c <timer_deinit+0x19c>)
 8001336:	f240 4001 	movw	r0, #1025	; 0x401
 800133a:	4718      	bx	r3
 800133c:	4b06      	ldr	r3, [pc, #24]	; (8001358 <timer_deinit+0x198>)
 800133e:	f240 300b 	movw	r0, #779	; 0x30b
 8001342:	4798      	blx	r3
 8001344:	e8bd 4010 	ldmia.w	sp!, {r4, lr}
 8001348:	4b04      	ldr	r3, [pc, #16]	; (800135c <timer_deinit+0x19c>)
 800134a:	f240 300b 	movw	r0, #779	; 0x30b
 800134e:	4718      	bx	r3
 8001350:	1c00      	adds	r0, r0, #0
 8001352:	4000      	ands	r0, r0
 8001354:	1400      	asrs	r0, r0, #16
 8001356:	4000      	ands	r0, r0
 8001358:	0e39      	lsrs	r1, r7, #24
 800135a:	0800      	lsrs	r0, r0, #32
 800135c:	0e55      	lsrs	r5, r2, #25
 800135e:	0800      	lsrs	r0, r0, #32
 8001360:	4c00      	ldr	r4, [pc, #0]	; (8001364 <timer_deinit+0x1a4>)
 8001362:	4001      	ands	r1, r0
 8001364:	5000      	str	r0, [r0, r0]
 8001366:	4001      	ands	r1, r0

08001368 <timer_init>:
 8001368:	4b1c      	ldr	r3, [pc, #112]	; (80013dc <timer_init+0x74>)
 800136a:	880a      	ldrh	r2, [r1, #0]
 800136c:	4298      	cmp	r0, r3
 800136e:	b410      	push	{r4}
 8001370:	6282      	str	r2, [r0, #40]	; 0x28
 8001372:	d007      	beq.n	8001384 <timer_init+0x1c>
 8001374:	f420 6340 	bic.w	r3, r0, #3072	; 0xc00
 8001378:	f1b3 4f80 	cmp.w	r3, #1073741824	; 0x40000000
 800137c:	d002      	beq.n	8001384 <timer_init+0x1c>
 800137e:	4b18      	ldr	r3, [pc, #96]	; (80013e0 <timer_init+0x78>)
 8001380:	4298      	cmp	r0, r3
 8001382:	d10b      	bne.n	800139c <timer_init+0x34>
 8001384:	6803      	ldr	r3, [r0, #0]
 8001386:	884a      	ldrh	r2, [r1, #2]
 8001388:	f023 0370 	bic.w	r3, r3, #112	; 0x70
 800138c:	6003      	str	r3, [r0, #0]
 800138e:	6804      	ldr	r4, [r0, #0]
 8001390:	888b      	ldrh	r3, [r1, #4]
 8001392:	4322      	orrs	r2, r4
 8001394:	6002      	str	r2, [r0, #0]
 8001396:	6802      	ldr	r2, [r0, #0]
 8001398:	4313      	orrs	r3, r2
 800139a:	6003      	str	r3, [r0, #0]
 800139c:	4b11      	ldr	r3, [pc, #68]	; (80013e4 <timer_init+0x7c>)
 800139e:	688a      	ldr	r2, [r1, #8]
 80013a0:	62c2      	str	r2, [r0, #44]	; 0x2c
 80013a2:	4298      	cmp	r0, r3
 80013a4:	d010      	beq.n	80013c8 <timer_init+0x60>
 80013a6:	f503 6380 	add.w	r3, r3, #1024	; 0x400
 80013aa:	4298      	cmp	r0, r3
 80013ac:	d00c      	beq.n	80013c8 <timer_init+0x60>
 80013ae:	6802      	ldr	r2, [r0, #0]
 80013b0:	88cb      	ldrh	r3, [r1, #6]
 80013b2:	f422 7240 	bic.w	r2, r2, #768	; 0x300
 80013b6:	6002      	str	r2, [r0, #0]
 80013b8:	6804      	ldr	r4, [r0, #0]
 80013ba:	4a08      	ldr	r2, [pc, #32]	; (80013dc <timer_init+0x74>)
 80013bc:	4323      	orrs	r3, r4
 80013be:	4290      	cmp	r0, r2
 80013c0:	6003      	str	r3, [r0, #0]
 80013c2:	d107      	bne.n	80013d4 <timer_init+0x6c>
 80013c4:	7b0b      	ldrb	r3, [r1, #12]
 80013c6:	6303      	str	r3, [r0, #48]	; 0x30
 80013c8:	6943      	ldr	r3, [r0, #20]
 80013ca:	bc10      	pop	{r4}
 80013cc:	f043 0301 	orr.w	r3, r3, #1
 80013d0:	6143      	str	r3, [r0, #20]
 80013d2:	4770      	bx	lr
 80013d4:	4b02      	ldr	r3, [pc, #8]	; (80013e0 <timer_init+0x78>)
 80013d6:	4298      	cmp	r0, r3
 80013d8:	d0f4      	beq.n	80013c4 <timer_init+0x5c>
 80013da:	e7f5      	b.n	80013c8 <timer_init+0x60>
 80013dc:	2c00      	cmp	r4, #0
 80013de:	4001      	ands	r1, r0
 80013e0:	3400      	adds	r4, #0
 80013e2:	4001      	ands	r1, r0
 80013e4:	1000      	asrs	r0, r0, #32
 80013e6:	4000      	ands	r0, r0

080013e8 <timer_interrupt_flag_get>:
 80013e8:	68c3      	ldr	r3, [r0, #12]
 80013ea:	6900      	ldr	r0, [r0, #16]
 80013ec:	4008      	ands	r0, r1
 80013ee:	d003      	beq.n	80013f8 <timer_interrupt_flag_get+0x10>
 80013f0:	420b      	tst	r3, r1
 80013f2:	bf14      	ite	ne
 80013f4:	2001      	movne	r0, #1
 80013f6:	2000      	moveq	r0, #0
 80013f8:	4770      	bx	lr
 80013fa:	bf00      	nop

080013fc <timer_interrupt_flag_clear>:
 80013fc:	43c9      	mvns	r1, r1
 80013fe:	6101      	str	r1, [r0, #16]
 8001400:	4770      	bx	lr
 8001402:	bf00      	nop

08001404 <usart_deinit>:
 8001404:	4b23      	ldr	r3, [pc, #140]	; (8001494 <usart_deinit+0x90>)
 8001406:	4298      	cmp	r0, r3
 8001408:	b510      	push	{r4, lr}
 800140a:	d023      	beq.n	8001454 <usart_deinit+0x50>
 800140c:	d910      	bls.n	8001430 <usart_deinit+0x2c>
 800140e:	4b22      	ldr	r3, [pc, #136]	; (8001498 <usart_deinit+0x94>)
 8001410:	4298      	cmp	r0, r3
 8001412:	d029      	beq.n	8001468 <usart_deinit+0x64>
 8001414:	f503 4368 	add.w	r3, r3, #59392	; 0xe800
 8001418:	4298      	cmp	r0, r3
 800141a:	d12f      	bne.n	800147c <usart_deinit+0x78>
 800141c:	4b1f      	ldr	r3, [pc, #124]	; (800149c <usart_deinit+0x98>)
 800141e:	f240 300e 	movw	r0, #782	; 0x30e
 8001422:	4798      	blx	r3
 8001424:	e8bd 4010 	ldmia.w	sp!, {r4, lr}
 8001428:	4b1d      	ldr	r3, [pc, #116]	; (80014a0 <usart_deinit+0x9c>)
 800142a:	f240 300e 	movw	r0, #782	; 0x30e
 800142e:	4718      	bx	r3
 8001430:	f5a3 6300 	sub.w	r3, r3, #2048	; 0x800
 8001434:	4298      	cmp	r0, r3
 8001436:	d022      	beq.n	800147e <usart_deinit+0x7a>
 8001438:	f503 6380 	add.w	r3, r3, #1024	; 0x400
 800143c:	4298      	cmp	r0, r3
 800143e:	d11d      	bne.n	800147c <usart_deinit+0x78>
 8001440:	4b16      	ldr	r3, [pc, #88]	; (800149c <usart_deinit+0x98>)
 8001442:	f240 4012 	movw	r0, #1042	; 0x412
 8001446:	4798      	blx	r3
 8001448:	e8bd 4010 	ldmia.w	sp!, {r4, lr}
 800144c:	4b14      	ldr	r3, [pc, #80]	; (80014a0 <usart_deinit+0x9c>)
 800144e:	f240 4012 	movw	r0, #1042	; 0x412
 8001452:	4718      	bx	r3
 8001454:	4b11      	ldr	r3, [pc, #68]	; (800149c <usart_deinit+0x98>)
 8001456:	f240 4013 	movw	r0, #1043	; 0x413
 800145a:	4798      	blx	r3
 800145c:	e8bd 4010 	ldmia.w	sp!, {r4, lr}
 8001460:	4b0f      	ldr	r3, [pc, #60]	; (80014a0 <usart_deinit+0x9c>)
 8001462:	f240 4013 	movw	r0, #1043	; 0x413
 8001466:	4718      	bx	r3
 8001468:	4b0c      	ldr	r3, [pc, #48]	; (800149c <usart_deinit+0x98>)
 800146a:	f240 4014 	movw	r0, #1044	; 0x414
 800146e:	4798      	blx	r3
 8001470:	e8bd 4010 	ldmia.w	sp!, {r4, lr}
 8001474:	4b0a      	ldr	r3, [pc, #40]	; (80014a0 <usart_deinit+0x9c>)
 8001476:	f240 4014 	movw	r0, #1044	; 0x414
 800147a:	4718      	bx	r3
 800147c:	bd10      	pop	{r4, pc}
 800147e:	4b07      	ldr	r3, [pc, #28]	; (800149c <usart_deinit+0x98>)
 8001480:	f240 4011 	movw	r0, #1041	; 0x411
 8001484:	4798      	blx	r3
 8001486:	e8bd 4010 	ldmia.w	sp!, {r4, lr}
 800148a:	4b05      	ldr	r3, [pc, #20]	; (80014a0 <usart_deinit+0x9c>)
 800148c:	f240 4011 	movw	r0, #1041	; 0x411
 8001490:	4718      	bx	r3
 8001492:	bf00      	nop
 8001494:	4c00      	ldr	r4, [pc, #0]	; (8001498 <usart_deinit+0x94>)
 8001496:	4000      	ands	r0, r0
 8001498:	5000      	str	r0, [r0, r0]
 800149a:	4000      	ands	r0, r0
 800149c:	0e39      	lsrs	r1, r7, #24
 800149e:	0800      	lsrs	r0, r0, #32
 80014a0:	0e55      	lsrs	r5, r2, #25
 80014a2:	0800      	lsrs	r0, r0, #32

080014a4 <usart_baudrate_set>:
 80014a4:	b538      	push	{r3, r4, r5, lr}
 80014a6:	4b12      	ldr	r3, [pc, #72]	; (80014f0 <usart_baudrate_set+0x4c>)
 80014a8:	4298      	cmp	r0, r3
 80014aa:	4604      	mov	r4, r0
 80014ac:	460d      	mov	r5, r1
 80014ae:	d019      	beq.n	80014e4 <usart_baudrate_set+0x40>
 80014b0:	d910      	bls.n	80014d4 <usart_baudrate_set+0x30>
 80014b2:	4b10      	ldr	r3, [pc, #64]	; (80014f4 <usart_baudrate_set+0x50>)
 80014b4:	4298      	cmp	r0, r3
 80014b6:	d015      	beq.n	80014e4 <usart_baudrate_set+0x40>
 80014b8:	f503 4368 	add.w	r3, r3, #59392	; 0xe800
 80014bc:	4298      	cmp	r0, r3
 80014be:	d115      	bne.n	80014ec <usart_baudrate_set+0x48>
 80014c0:	4b0d      	ldr	r3, [pc, #52]	; (80014f8 <usart_baudrate_set+0x54>)
 80014c2:	2003      	movs	r0, #3
 80014c4:	4798      	blx	r3
 80014c6:	eb00 0355 	add.w	r3, r0, r5, lsr #1
 80014ca:	fbb3 f1f5 	udiv	r1, r3, r5
 80014ce:	b289      	uxth	r1, r1
 80014d0:	60a1      	str	r1, [r4, #8]
 80014d2:	bd38      	pop	{r3, r4, r5, pc}
 80014d4:	f5a3 6300 	sub.w	r3, r3, #2048	; 0x800
 80014d8:	4298      	cmp	r0, r3
 80014da:	d003      	beq.n	80014e4 <usart_baudrate_set+0x40>
 80014dc:	f503 6380 	add.w	r3, r3, #1024	; 0x400
 80014e0:	4298      	cmp	r0, r3
 80014e2:	d103      	bne.n	80014ec <usart_baudrate_set+0x48>
 80014e4:	4b04      	ldr	r3, [pc, #16]	; (80014f8 <usart_baudrate_set+0x54>)
 80014e6:	2002      	movs	r0, #2
 80014e8:	4798      	blx	r3
 80014ea:	e7ec      	b.n	80014c6 <usart_baudrate_set+0x22>
 80014ec:	2000      	movs	r0, #0
 80014ee:	e7ea      	b.n	80014c6 <usart_baudrate_set+0x22>
 80014f0:	4c00      	ldr	r4, [pc, #0]	; (80014f4 <usart_baudrate_set+0x50>)
 80014f2:	4000      	ands	r0, r0
 80014f4:	5000      	str	r0, [r0, r0]
 80014f6:	4000      	ands	r0, r0
 80014f8:	0edd      	lsrs	r5, r3, #27
 80014fa:	0800      	lsrs	r0, r0, #32

080014fc <usart_enable>:
 80014fc:	68c3      	ldr	r3, [r0, #12]
 80014fe:	f443 5300 	orr.w	r3, r3, #8192	; 0x2000
 8001502:	60c3      	str	r3, [r0, #12]
 8001504:	4770      	bx	lr
 8001506:	bf00      	nop

08001508 <usart_transmit_config>:
 8001508:	68c3      	ldr	r3, [r0, #12]
 800150a:	f023 0308 	bic.w	r3, r3, #8
 800150e:	60c3      	str	r3, [r0, #12]
 8001510:	68c3      	ldr	r3, [r0, #12]
 8001512:	f001 0108 	and.w	r1, r1, #8
 8001516:	4319      	orrs	r1, r3
 8001518:	60c1      	str	r1, [r0, #12]
 800151a:	4770      	bx	lr

0800151c <usart_receive_config>:
 800151c:	68c3      	ldr	r3, [r0, #12]
 800151e:	f023 0304 	bic.w	r3, r3, #4
 8001522:	60c3      	str	r3, [r0, #12]
 8001524:	68c3      	ldr	r3, [r0, #12]
 8001526:	f001 0104 	and.w	r1, r1, #4
 800152a:	4319      	orrs	r1, r3
 800152c:	60c1      	str	r1, [r0, #12]
 800152e:	4770      	bx	lr

08001530 <usart_data_receive>:
 8001530:	6840      	ldr	r0, [r0, #4]
 8001532:	f3c0 0008 	ubfx	r0, r0, #0, #9
 8001536:	4770      	bx	lr

08001538 <usart_hardware_flow_rts_config>:
 8001538:	6943      	ldr	r3, [r0, #20]
 800153a:	f423 7380 	bic.w	r3, r3, #256	; 0x100
 800153e:	6143      	str	r3, [r0, #20]
 8001540:	6943      	ldr	r3, [r0, #20]
 8001542:	f401 7180 	and.w	r1, r1, #256	; 0x100
 8001546:	4319      	orrs	r1, r3
 8001548:	6141      	str	r1, [r0, #20]
 800154a:	4770      	bx	lr

0800154c <usart_hardware_flow_cts_config>:
 800154c:	6943      	ldr	r3, [r0, #20]
 800154e:	f423 7300 	bic.w	r3, r3, #512	; 0x200
 8001552:	6143      	str	r3, [r0, #20]
 8001554:	6943      	ldr	r3, [r0, #20]
 8001556:	f401 7100 	and.w	r1, r1, #512	; 0x200
 800155a:	4319      	orrs	r1, r3
 800155c:	6141      	str	r1, [r0, #20]
 800155e:	4770      	bx	lr

08001560 <usart_interrupt_enable>:
 8001560:	098a      	lsrs	r2, r1, #6
 8001562:	b410      	push	{r4}
 8001564:	f001 011f 	and.w	r1, r1, #31
 8001568:	5814      	ldr	r4, [r2, r0]
 800156a:	2301      	movs	r3, #1
 800156c:	fa03 f101 	lsl.w	r1, r3, r1
 8001570:	4321      	orrs	r1, r4
 8001572:	5011      	str	r1, [r2, r0]
 8001574:	bc10      	pop	{r4}
 8001576:	4770      	bx	lr

08001578 <usart_interrupt_flag_get>:
 8001578:	f3c1 1389 	ubfx	r3, r1, #6, #10
 800157c:	0d8a      	lsrs	r2, r1, #22
 800157e:	b430      	push	{r4, r5}
 8001580:	581d      	ldr	r5, [r3, r0]
 8001582:	5814      	ldr	r4, [r2, r0]
 8001584:	f3c1 4304 	ubfx	r3, r1, #16, #5
 8001588:	2201      	movs	r2, #1
 800158a:	fa02 f003 	lsl.w	r0, r2, r3
 800158e:	4020      	ands	r0, r4
 8001590:	d007      	beq.n	80015a2 <usart_interrupt_flag_get+0x2a>
 8001592:	f001 011f 	and.w	r1, r1, #31
 8001596:	fa02 f101 	lsl.w	r1, r2, r1
 800159a:	4229      	tst	r1, r5
 800159c:	bf14      	ite	ne
 800159e:	4610      	movne	r0, r2
 80015a0:	2000      	moveq	r0, #0
 80015a2:	bc30      	pop	{r4, r5}
 80015a4:	4770      	bx	lr
 80015a6:	bf00      	nop

080015a8 <usart_interrupt_flag_clear>:
 80015a8:	f3c1 4204 	ubfx	r2, r1, #16, #5
 80015ac:	2301      	movs	r3, #1
 80015ae:	0d89      	lsrs	r1, r1, #22
 80015b0:	4093      	lsls	r3, r2
 80015b2:	43db      	mvns	r3, r3
 80015b4:	500b      	str	r3, [r1, r0]
 80015b6:	4770      	bx	lr

080015b8 <usb_rcu_config>:
 80015b8:	4b15      	ldr	r3, [pc, #84]	; (8001610 <usb_rcu_config+0x58>)
 80015ba:	b510      	push	{r4, lr}
 80015bc:	2000      	movs	r0, #0
 80015be:	4798      	blx	r3
 80015c0:	4b14      	ldr	r3, [pc, #80]	; (8001614 <usb_rcu_config+0x5c>)
 80015c2:	4298      	cmp	r0, r3
 80015c4:	d019      	beq.n	80015fa <usb_rcu_config+0x42>
 80015c6:	4b14      	ldr	r3, [pc, #80]	; (8001618 <usb_rcu_config+0x60>)
 80015c8:	4298      	cmp	r0, r3
 80015ca:	d012      	beq.n	80015f2 <usb_rcu_config+0x3a>
 80015cc:	4b13      	ldr	r3, [pc, #76]	; (800161c <usb_rcu_config+0x64>)
 80015ce:	4298      	cmp	r0, r3
 80015d0:	d018      	beq.n	8001604 <usb_rcu_config+0x4c>
 80015d2:	4b13      	ldr	r3, [pc, #76]	; (8001620 <usb_rcu_config+0x68>)
 80015d4:	4298      	cmp	r0, r3
 80015d6:	4b13      	ldr	r3, [pc, #76]	; (8001624 <usb_rcu_config+0x6c>)
 80015d8:	bf0a      	itet	eq
 80015da:	f44f 0000 	moveq.w	r0, #8388608	; 0x800000
 80015de:	6818      	ldrne	r0, [r3, #0]
 80015e0:	6018      	streq	r0, [r3, #0]
 80015e2:	4b11      	ldr	r3, [pc, #68]	; (8001628 <usb_rcu_config+0x70>)
 80015e4:	4798      	blx	r3
 80015e6:	e8bd 4010 	ldmia.w	sp!, {r4, lr}
 80015ea:	4b10      	ldr	r3, [pc, #64]	; (800162c <usb_rcu_config+0x74>)
 80015ec:	f240 500c 	movw	r0, #1292	; 0x50c
 80015f0:	4718      	bx	r3
 80015f2:	4b0c      	ldr	r3, [pc, #48]	; (8001624 <usb_rcu_config+0x6c>)
 80015f4:	2000      	movs	r0, #0
 80015f6:	6018      	str	r0, [r3, #0]
 80015f8:	e7f3      	b.n	80015e2 <usb_rcu_config+0x2a>
 80015fa:	4b0a      	ldr	r3, [pc, #40]	; (8001624 <usb_rcu_config+0x6c>)
 80015fc:	f44f 0080 	mov.w	r0, #4194304	; 0x400000
 8001600:	6018      	str	r0, [r3, #0]
 8001602:	e7ee      	b.n	80015e2 <usb_rcu_config+0x2a>
 8001604:	4b07      	ldr	r3, [pc, #28]	; (8001624 <usb_rcu_config+0x6c>)
 8001606:	f44f 0040 	mov.w	r0, #12582912	; 0xc00000
 800160a:	6018      	str	r0, [r3, #0]
 800160c:	e7e9      	b.n	80015e2 <usb_rcu_config+0x2a>
 800160e:	bf00      	nop
 8001610:	0edd      	lsrs	r5, r3, #27
 8001612:	0800      	lsrs	r0, r0, #32
 8001614:	6c00      	ldr	r0, [r0, #64]	; 0x40
 8001616:	02dc      	lsls	r4, r3, #11
 8001618:	a200      	add	r2, pc, #0	; (adr r2, 800161c <usb_rcu_config+0x64>)
 800161a:	044a      	lsls	r2, r1, #17
 800161c:	d800      	bhi.n	8001620 <usb_rcu_config+0x68>
 800161e:	05b8      	lsls	r0, r7, #22
 8001620:	0e00      	lsrs	r0, r0, #24
 8001622:	0727      	lsls	r7, r4, #28
 8001624:	0d6c      	lsrs	r4, r5, #21
 8001626:	2000      	movs	r0, #0
 8001628:	0e99      	lsrs	r1, r3, #26
 800162a:	0800      	lsrs	r0, r0, #32
 800162c:	0e1d      	lsrs	r5, r3, #24
 800162e:	0800      	lsrs	r0, r0, #32

08001630 <usb_intr_config>:
 8001630:	4b02      	ldr	r3, [pc, #8]	; (800163c <usb_intr_config+0xc>)
 8001632:	2220      	movs	r2, #32
 8001634:	f883 2343 	strb.w	r2, [r3, #835]	; 0x343
 8001638:	4770      	bx	lr
 800163a:	bf00      	nop
 800163c:	e100      	b.n	8001840 <printer_in>
 800163e:	e000      	b.n	8001642 <SysTick_Handler+0x2>

08001640 <SysTick_Handler>:
 8001640:	b510      	push	{r4, lr}
 8001642:	4c15      	ldr	r4, [pc, #84]	; (8001698 <SysTick_Handler+0x58>)
 8001644:	6823      	ldr	r3, [r4, #0]
 8001646:	3301      	adds	r3, #1
 8001648:	6023      	str	r3, [r4, #0]
 800164a:	6863      	ldr	r3, [r4, #4]
 800164c:	6063      	str	r3, [r4, #4]
 800164e:	6863      	ldr	r3, [r4, #4]
 8001650:	2b7c      	cmp	r3, #124	; 0x7c
 8001652:	d905      	bls.n	8001660 <SysTick_Handler+0x20>
 8001654:	6863      	ldr	r3, [r4, #4]
 8001656:	3b7d      	subs	r3, #125	; 0x7d
 8001658:	6063      	str	r3, [r4, #4]
 800165a:	6823      	ldr	r3, [r4, #0]
 800165c:	3301      	adds	r3, #1
 800165e:	6023      	str	r3, [r4, #0]
 8001660:	68a3      	ldr	r3, [r4, #8]
 8001662:	f5b3 7ff9 	cmp.w	r3, #498	; 0x1f2
 8001666:	d808      	bhi.n	800167a <SysTick_Handler+0x3a>
 8001668:	68a3      	ldr	r3, [r4, #8]
 800166a:	3301      	adds	r3, #1
 800166c:	60a3      	str	r3, [r4, #8]
 800166e:	4b0b      	ldr	r3, [pc, #44]	; (800169c <SysTick_Handler+0x5c>)
 8001670:	4798      	blx	r3
 8001672:	69a3      	ldr	r3, [r4, #24]
 8001674:	3301      	adds	r3, #1
 8001676:	61a3      	str	r3, [r4, #24]
 8001678:	bd10      	pop	{r4, pc}
 800167a:	2300      	movs	r3, #0
 800167c:	60a3      	str	r3, [r4, #8]
 800167e:	68e3      	ldr	r3, [r4, #12]
 8001680:	2201      	movs	r2, #1
 8001682:	4053      	eors	r3, r2
 8001684:	60e3      	str	r3, [r4, #12]
 8001686:	6122      	str	r2, [r4, #16]
 8001688:	68e3      	ldr	r3, [r4, #12]
 800168a:	2b00      	cmp	r3, #0
 800168c:	d1ef      	bne.n	800166e <SysTick_Handler+0x2e>
 800168e:	6963      	ldr	r3, [r4, #20]
 8001690:	4413      	add	r3, r2
 8001692:	6163      	str	r3, [r4, #20]
 8001694:	e7eb      	b.n	800166e <SysTick_Handler+0x2e>
 8001696:	bf00      	nop
 8001698:	0d74      	lsrs	r4, r6, #21
 800169a:	2000      	movs	r0, #0
 800169c:	044d      	lsls	r5, r1, #17
 800169e:	0800      	lsrs	r0, r0, #32

080016a0 <sysSetPeriodUS>:
 80016a0:	4b0a      	ldr	r3, [pc, #40]	; (80016cc <sysSetPeriodUS+0x2c>)
 80016a2:	f04f 22e0 	mov.w	r2, #3758153728	; 0xe000e000
 80016a6:	b410      	push	{r4}
 80016a8:	699c      	ldr	r4, [r3, #24]
 80016aa:	6993      	ldr	r3, [r2, #24]
 80016ac:	6952      	ldr	r2, [r2, #20]
 80016ae:	f44f 7c7a 	mov.w	ip, #1000	; 0x3e8
 80016b2:	3201      	adds	r2, #1
 80016b4:	fb0c 1104 	mla	r1, ip, r4, r1
 80016b8:	1ad3      	subs	r3, r2, r3
 80016ba:	fb0c f303 	mul.w	r3, ip, r3
 80016be:	fbb3 f3f2 	udiv	r3, r3, r2
 80016c2:	440b      	add	r3, r1
 80016c4:	bc10      	pop	{r4}
 80016c6:	6003      	str	r3, [r0, #0]
 80016c8:	4770      	bx	lr
 80016ca:	bf00      	nop
 80016cc:	0d74      	lsrs	r4, r6, #21
 80016ce:	2000      	movs	r0, #0

080016d0 <sysSetPeriodMS>:
 80016d0:	4b02      	ldr	r3, [pc, #8]	; (80016dc <sysSetPeriodMS+0xc>)
 80016d2:	681b      	ldr	r3, [r3, #0]
 80016d4:	4419      	add	r1, r3
 80016d6:	6001      	str	r1, [r0, #0]
 80016d8:	4770      	bx	lr
 80016da:	bf00      	nop
 80016dc:	0d74      	lsrs	r4, r6, #21
 80016de:	2000      	movs	r0, #0

080016e0 <SysInit>:
 80016e0:	4b11      	ldr	r3, [pc, #68]	; (8001728 <SysInit+0x48>)
 80016e2:	4912      	ldr	r1, [pc, #72]	; (800172c <SysInit+0x4c>)
 80016e4:	681b      	ldr	r3, [r3, #0]
 80016e6:	4a12      	ldr	r2, [pc, #72]	; (8001730 <SysInit+0x50>)
 80016e8:	fba1 1303 	umull	r1, r3, r1, r3
 80016ec:	099b      	lsrs	r3, r3, #6
 80016ee:	3b01      	subs	r3, #1
 80016f0:	2100      	movs	r1, #0
 80016f2:	2001      	movs	r0, #1
 80016f4:	f1b3 7f80 	cmp.w	r3, #16777216	; 0x1000000
 80016f8:	6191      	str	r1, [r2, #24]
 80016fa:	6011      	str	r1, [r2, #0]
 80016fc:	60d1      	str	r1, [r2, #12]
 80016fe:	6110      	str	r0, [r2, #16]
 8001700:	6151      	str	r1, [r2, #20]
 8001702:	6051      	str	r1, [r2, #4]
 8001704:	6091      	str	r1, [r2, #8]
 8001706:	d20a      	bcs.n	800171e <SysInit+0x3e>
 8001708:	f04f 22e0 	mov.w	r2, #3758153728	; 0xe000e000
 800170c:	4809      	ldr	r0, [pc, #36]	; (8001734 <SysInit+0x54>)
 800170e:	6153      	str	r3, [r2, #20]
 8001710:	f04f 0cf0 	mov.w	ip, #240	; 0xf0
 8001714:	2307      	movs	r3, #7
 8001716:	f880 c023 	strb.w	ip, [r0, #35]	; 0x23
 800171a:	6191      	str	r1, [r2, #24]
 800171c:	6113      	str	r3, [r2, #16]
 800171e:	4b05      	ldr	r3, [pc, #20]	; (8001734 <SysInit+0x54>)
 8001720:	2200      	movs	r2, #0
 8001722:	f883 2023 	strb.w	r2, [r3, #35]	; 0x23
 8001726:	4770      	bx	lr
 8001728:	0000      	movs	r0, r0
 800172a:	2000      	movs	r0, #0
 800172c:	4dd3      	ldr	r5, [pc, #844]	; (8001a7c <usbd_connect+0xc>)
 800172e:	1062      	asrs	r2, r4, #1
 8001730:	0d74      	lsrs	r4, r6, #21
 8001732:	2000      	movs	r0, #0
 8001734:	ed00 e000 	stc	0, cr14, [r0, #-0]

08001738 <SysTickStart>:
 8001738:	4b02      	ldr	r3, [pc, #8]	; (8001744 <SysTickStart+0xc>)
 800173a:	2200      	movs	r2, #0
 800173c:	f883 2023 	strb.w	r2, [r3, #35]	; 0x23
 8001740:	4770      	bx	lr
 8001742:	bf00      	nop
 8001744:	ed00 e000 	stc	0, cr14, [r0, #-0]

08001748 <sysIsTimeoutMs>:
 8001748:	6800      	ldr	r0, [r0, #0]
 800174a:	2800      	cmp	r0, #0
 800174c:	db0b      	blt.n	8001766 <sysIsTimeoutMs+0x1e>
 800174e:	4b07      	ldr	r3, [pc, #28]	; (800176c <sysIsTimeoutMs+0x24>)
 8001750:	681b      	ldr	r3, [r3, #0]
 8001752:	ea90 0f03 	teq	r0, r3
 8001756:	d404      	bmi.n	8001762 <sysIsTimeoutMs+0x1a>
 8001758:	4298      	cmp	r0, r3
 800175a:	bf8c      	ite	hi
 800175c:	2000      	movhi	r0, #0
 800175e:	2001      	movls	r0, #1
 8001760:	4770      	bx	lr
 8001762:	2000      	movs	r0, #0
 8001764:	4770      	bx	lr
 8001766:	2001      	movs	r0, #1
 8001768:	4770      	bx	lr
 800176a:	bf00      	nop
 800176c:	0d74      	lsrs	r4, r6, #21
 800176e:	2000      	movs	r0, #0

08001770 <sysIsTimeoutUs>:
 8001770:	6803      	ldr	r3, [r0, #0]
 8001772:	2b00      	cmp	r3, #0
 8001774:	db1c      	blt.n	80017b0 <sysIsTimeoutUs+0x40>
 8001776:	490f      	ldr	r1, [pc, #60]	; (80017b4 <sysIsTimeoutUs+0x44>)
 8001778:	f04f 22e0 	mov.w	r2, #3758153728	; 0xe000e000
 800177c:	b410      	push	{r4}
 800177e:	698c      	ldr	r4, [r1, #24]
 8001780:	6990      	ldr	r0, [r2, #24]
 8001782:	6952      	ldr	r2, [r2, #20]
 8001784:	3201      	adds	r2, #1
 8001786:	f44f 717a 	mov.w	r1, #1000	; 0x3e8
 800178a:	1a10      	subs	r0, r2, r0
 800178c:	fb01 f000 	mul.w	r0, r1, r0
 8001790:	fbb0 f0f2 	udiv	r0, r0, r2
 8001794:	fb01 0004 	mla	r0, r1, r4, r0
 8001798:	ea93 0f00 	teq	r3, r0
 800179c:	d405      	bmi.n	80017aa <sysIsTimeoutUs+0x3a>
 800179e:	4283      	cmp	r3, r0
 80017a0:	bf8c      	ite	hi
 80017a2:	2000      	movhi	r0, #0
 80017a4:	2001      	movls	r0, #1
 80017a6:	bc10      	pop	{r4}
 80017a8:	4770      	bx	lr
 80017aa:	2000      	movs	r0, #0
 80017ac:	bc10      	pop	{r4}
 80017ae:	4770      	bx	lr
 80017b0:	2001      	movs	r0, #1
 80017b2:	4770      	bx	lr
 80017b4:	0d74      	lsrs	r4, r6, #21
 80017b6:	2000      	movs	r0, #0

080017b8 <systemMacros>:
 80017b8:	4b08      	ldr	r3, [pc, #32]	; (80017dc <systemMacros+0x24>)
 80017ba:	f04f 22e0 	mov.w	r2, #3758153728	; 0xe000e000
 80017be:	6998      	ldr	r0, [r3, #24]
 80017c0:	6993      	ldr	r3, [r2, #24]
 80017c2:	6952      	ldr	r2, [r2, #20]
 80017c4:	3201      	adds	r2, #1
 80017c6:	f44f 717a 	mov.w	r1, #1000	; 0x3e8
 80017ca:	1ad3      	subs	r3, r2, r3
 80017cc:	fb01 f303 	mul.w	r3, r1, r3
 80017d0:	fbb3 f3f2 	udiv	r3, r3, r2
 80017d4:	fb01 3000 	mla	r0, r1, r0, r3
 80017d8:	4770      	bx	lr
 80017da:	bf00      	nop
 80017dc:	0d74      	lsrs	r4, r6, #21
 80017de:	2000      	movs	r0, #0

080017e0 <__delay_ms>:
 80017e0:	4a03      	ldr	r2, [pc, #12]	; (80017f0 <__delay_ms+0x10>)
 80017e2:	6813      	ldr	r3, [r2, #0]
 80017e4:	4418      	add	r0, r3
 80017e6:	6813      	ldr	r3, [r2, #0]
 80017e8:	4298      	cmp	r0, r3
 80017ea:	d8fc      	bhi.n	80017e6 <__delay_ms+0x6>
 80017ec:	4770      	bx	lr
 80017ee:	bf00      	nop
 80017f0:	0d74      	lsrs	r4, r6, #21
 80017f2:	2000      	movs	r0, #0

080017f4 <__delay_us>:
 80017f4:	b530      	push	{r4, r5, lr}
 80017f6:	f04f 2ce0 	mov.w	ip, #3758153728	; 0xe000e000
 80017fa:	4c10      	ldr	r4, [pc, #64]	; (800183c <__delay_us+0x48>)
 80017fc:	69a5      	ldr	r5, [r4, #24]
 80017fe:	f8dc 3018 	ldr.w	r3, [ip, #24]
 8001802:	f8dc 2014 	ldr.w	r2, [ip, #20]
 8001806:	f44f 717a 	mov.w	r1, #1000	; 0x3e8
 800180a:	3201      	adds	r2, #1
 800180c:	1ad3      	subs	r3, r2, r3
 800180e:	fb01 0005 	mla	r0, r1, r5, r0
 8001812:	fb01 fe03 	mul.w	lr, r1, r3
 8001816:	fbbe fef2 	udiv	lr, lr, r2
 800181a:	4486      	add	lr, r0
 800181c:	69a0      	ldr	r0, [r4, #24]
 800181e:	f8dc 3018 	ldr.w	r3, [ip, #24]
 8001822:	f8dc 2014 	ldr.w	r2, [ip, #20]
 8001826:	3201      	adds	r2, #1
 8001828:	1ad3      	subs	r3, r2, r3
 800182a:	fb01 f303 	mul.w	r3, r1, r3
 800182e:	fbb3 f3f2 	udiv	r3, r3, r2
 8001832:	fb01 3300 	mla	r3, r1, r0, r3
 8001836:	459e      	cmp	lr, r3
 8001838:	d8f0      	bhi.n	800181c <__delay_us+0x28>
 800183a:	bd30      	pop	{r4, r5, pc}
 800183c:	0d74      	lsrs	r4, r6, #21
 800183e:	2000      	movs	r0, #0

08001840 <printer_in>:
 8001840:	2000      	movs	r0, #0
 8001842:	4770      	bx	lr

08001844 <printer_out>:
 8001844:	b510      	push	{r4, lr}
 8001846:	4604      	mov	r4, r0
 8001848:	4808      	ldr	r0, [pc, #32]	; (800186c <printer_out+0x28>)
 800184a:	6803      	ldr	r3, [r0, #0]
 800184c:	b133      	cbz	r3, 800185c <printer_out+0x18>
 800184e:	2218      	movs	r2, #24
 8001850:	fb02 4101 	mla	r1, r2, r1, r4
 8001854:	3004      	adds	r0, #4
 8001856:	f891 1248 	ldrb.w	r1, [r1, #584]	; 0x248
 800185a:	4798      	blx	r3
 800185c:	4a04      	ldr	r2, [pc, #16]	; (8001870 <printer_out+0x2c>)
 800185e:	2340      	movs	r3, #64	; 0x40
 8001860:	2102      	movs	r1, #2
 8001862:	4620      	mov	r0, r4
 8001864:	4c03      	ldr	r4, [pc, #12]	; (8001874 <printer_out+0x30>)
 8001866:	47a0      	blx	r4
 8001868:	2000      	movs	r0, #0
 800186a:	bd10      	pop	{r4, pc}
 800186c:	0d90      	lsrs	r0, r2, #22
 800186e:	2000      	movs	r0, #0
 8001870:	0d94      	lsrs	r4, r2, #22
 8001872:	2000      	movs	r0, #0
 8001874:	19c1      	adds	r1, r0, r7
 8001876:	0800      	lsrs	r0, r0, #32

08001878 <printer_deinit>:
 8001878:	b538      	push	{r3, r4, r5, lr}
 800187a:	2182      	movs	r1, #130	; 0x82
 800187c:	4d03      	ldr	r5, [pc, #12]	; (800188c <printer_deinit+0x14>)
 800187e:	4604      	mov	r4, r0
 8001880:	47a8      	blx	r5
 8001882:	2102      	movs	r1, #2
 8001884:	4620      	mov	r0, r4
 8001886:	47a8      	blx	r5
 8001888:	2000      	movs	r0, #0
 800188a:	bd38      	pop	{r3, r4, r5, pc}
 800188c:	1991      	adds	r1, r2, r6
 800188e:	0800      	lsrs	r0, r0, #32

08001890 <printer_init>:
 8001890:	b570      	push	{r4, r5, r6, lr}
 8001892:	4e09      	ldr	r6, [pc, #36]	; (80018b8 <printer_init+0x28>)
 8001894:	4d09      	ldr	r5, [pc, #36]	; (80018bc <printer_init+0x2c>)
 8001896:	4604      	mov	r4, r0
 8001898:	f106 0112 	add.w	r1, r6, #18
 800189c:	47a8      	blx	r5
 800189e:	f106 0119 	add.w	r1, r6, #25
 80018a2:	4620      	mov	r0, r4
 80018a4:	47a8      	blx	r5
 80018a6:	4a06      	ldr	r2, [pc, #24]	; (80018c0 <printer_init+0x30>)
 80018a8:	2340      	movs	r3, #64	; 0x40
 80018aa:	2102      	movs	r1, #2
 80018ac:	4620      	mov	r0, r4
 80018ae:	4c05      	ldr	r4, [pc, #20]	; (80018c4 <printer_init+0x34>)
 80018b0:	47a0      	blx	r4
 80018b2:	2000      	movs	r0, #0
 80018b4:	bd70      	pop	{r4, r5, r6, pc}
 80018b6:	bf00      	nop
 80018b8:	750c      	strb	r4, [r1, #20]
 80018ba:	0800      	lsrs	r0, r0, #32
 80018bc:	1921      	adds	r1, r4, r4
 80018be:	0800      	lsrs	r0, r0, #32
 80018c0:	0d94      	lsrs	r4, r2, #22
 80018c2:	2000      	movs	r0, #0
 80018c4:	19c1      	adds	r1, r0, r7
 80018c6:	0800      	lsrs	r0, r0, #32

080018c8 <printer_req>:
 80018c8:	b510      	push	{r4, lr}
 80018ca:	7849      	ldrb	r1, [r1, #1]
 80018cc:	2901      	cmp	r1, #1
 80018ce:	d00a      	beq.n	80018e6 <printer_req+0x1e>
 80018d0:	2902      	cmp	r1, #2
 80018d2:	d00f      	beq.n	80018f4 <printer_req+0x2c>
 80018d4:	b999      	cbnz	r1, 80018fe <printer_req+0x36>
 80018d6:	4a0b      	ldr	r2, [pc, #44]	; (8001904 <printer_req+0x3c>)
 80018d8:	f8c0 20d8 	str.w	r2, [r0, #216]	; 0xd8
 80018dc:	2267      	movs	r2, #103	; 0x67
 80018de:	f8c0 20e4 	str.w	r2, [r0, #228]	; 0xe4
 80018e2:	4608      	mov	r0, r1
 80018e4:	bd10      	pop	{r4, pc}
 80018e6:	4a08      	ldr	r2, [pc, #32]	; (8001908 <printer_req+0x40>)
 80018e8:	f8c0 20d8 	str.w	r2, [r0, #216]	; 0xd8
 80018ec:	f8c0 10e4 	str.w	r1, [r0, #228]	; 0xe4
 80018f0:	2100      	movs	r1, #0
 80018f2:	e7f6      	b.n	80018e2 <printer_req+0x1a>
 80018f4:	4a05      	ldr	r2, [pc, #20]	; (800190c <printer_req+0x44>)
 80018f6:	4c06      	ldr	r4, [pc, #24]	; (8001910 <printer_req+0x48>)
 80018f8:	2340      	movs	r3, #64	; 0x40
 80018fa:	47a0      	blx	r4
 80018fc:	e7f8      	b.n	80018f0 <printer_req+0x28>
 80018fe:	2102      	movs	r1, #2
 8001900:	e7ef      	b.n	80018e2 <printer_req+0x1a>
 8001902:	bf00      	nop
 8001904:	0004      	movs	r4, r0
 8001906:	2000      	movs	r0, #0
 8001908:	006b      	lsls	r3, r5, #1
 800190a:	2000      	movs	r0, #0
 800190c:	0d94      	lsrs	r4, r2, #22
 800190e:	2000      	movs	r0, #0
 8001910:	19c1      	adds	r1, r0, r7
 8001912:	0800      	lsrs	r0, r0, #32

08001914 <usbdRegisterToreadData>:
 8001914:	4b01      	ldr	r3, [pc, #4]	; (800191c <usbdRegisterToreadData+0x8>)
 8001916:	6018      	str	r0, [r3, #0]
 8001918:	4770      	bx	lr
 800191a:	bf00      	nop
 800191c:	0d90      	lsrs	r0, r2, #22
 800191e:	2000      	movs	r0, #0

08001920 <usbd_ep_setup>:
 8001920:	b570      	push	{r4, r5, r6, lr}
 8001922:	f991 3002 	ldrsb.w	r3, [r1, #2]
 8001926:	788d      	ldrb	r5, [r1, #2]
 8001928:	888e      	ldrh	r6, [r1, #4]
 800192a:	2b00      	cmp	r3, #0
 800192c:	460a      	mov	r2, r1
 800192e:	f04f 0318 	mov.w	r3, #24
 8001932:	da1c      	bge.n	800196e <usbd_ep_setup+0x4e>
 8001934:	f005 047f 	and.w	r4, r5, #127	; 0x7f
 8001938:	fb03 0104 	mla	r1, r3, r4, r0
 800193c:	fb03 0304 	mla	r3, r3, r4, r0
 8001940:	31d0      	adds	r1, #208	; 0xd0
 8001942:	f893 40d0 	ldrb.w	r4, [r3, #208]	; 0xd0
 8001946:	f044 0480 	orr.w	r4, r4, #128	; 0x80
 800194a:	f883 40d0 	strb.w	r4, [r3, #208]	; 0xd0
 800194e:	780b      	ldrb	r3, [r1, #0]
 8001950:	808e      	strh	r6, [r1, #4]
 8001952:	f365 0303 	bfi	r3, r5, #0, #4
 8001956:	700b      	strb	r3, [r1, #0]
 8001958:	78d3      	ldrb	r3, [r2, #3]
 800195a:	4a0b      	ldr	r2, [pc, #44]	; (8001988 <usbd_ep_setup+0x68>)
 800195c:	f003 0303 	and.w	r3, r3, #3
 8001960:	f852 3023 	ldr.w	r3, [r2, r3, lsl #2]
 8001964:	704b      	strb	r3, [r1, #1]
 8001966:	4b09      	ldr	r3, [pc, #36]	; (800198c <usbd_ep_setup+0x6c>)
 8001968:	4798      	blx	r3
 800196a:	2000      	movs	r0, #0
 800196c:	bd70      	pop	{r4, r5, r6, pc}
 800196e:	fb03 0105 	mla	r1, r3, r5, r0
 8001972:	fb03 0305 	mla	r3, r3, r5, r0
 8001976:	f501 710e 	add.w	r1, r1, #568	; 0x238
 800197a:	f893 4238 	ldrb.w	r4, [r3, #568]	; 0x238
 800197e:	f36f 14c7 	bfc	r4, #7, #1
 8001982:	f883 4238 	strb.w	r4, [r3, #568]	; 0x238
 8001986:	e7e2      	b.n	800194e <usbd_ep_setup+0x2e>
 8001988:	7658      	strb	r0, [r3, #25]
 800198a:	0800      	lsrs	r0, r0, #32
 800198c:	276d      	movs	r7, #109	; 0x6d
 800198e:	0800      	lsrs	r0, r0, #32

08001990 <usbd_ep_clear>:
 8001990:	b508      	push	{r3, lr}
 8001992:	f011 0f80 	tst.w	r1, #128	; 0x80
 8001996:	bf18      	it	ne
 8001998:	f001 017f 	andne.w	r1, r1, #127	; 0x7f
 800199c:	f04f 0318 	mov.w	r3, #24
 80019a0:	bf16      	itet	ne
 80019a2:	fb03 0101 	mlane	r1, r3, r1, r0
 80019a6:	fb03 0101 	mlaeq	r1, r3, r1, r0
 80019aa:	31d0      	addne	r1, #208	; 0xd0
 80019ac:	4b03      	ldr	r3, [pc, #12]	; (80019bc <usbd_ep_clear+0x2c>)
 80019ae:	bf08      	it	eq
 80019b0:	f501 710e 	addeq.w	r1, r1, #568	; 0x238
 80019b4:	4798      	blx	r3
 80019b6:	2000      	movs	r0, #0
 80019b8:	bd08      	pop	{r3, pc}
 80019ba:	bf00      	nop
 80019bc:	27e9      	movs	r7, #233	; 0xe9
 80019be:	0800      	lsrs	r0, r0, #32

080019c0 <usbd_ep_recev>:
 80019c0:	b5f8      	push	{r3, r4, r5, r6, r7, lr}
 80019c2:	f001 017f 	and.w	r1, r1, #127	; 0x7f
 80019c6:	2718      	movs	r7, #24
 80019c8:	fb07 0501 	mla	r5, r7, r1, r0
 80019cc:	2600      	movs	r6, #0
 80019ce:	e9c5 2390 	strd	r2, r3, [r5, #576]	; 0x240
 80019d2:	f8c5 6248 	str.w	r6, [r5, #584]	; 0x248
 80019d6:	4b03      	ldr	r3, [pc, #12]	; (80019e4 <usbd_ep_recev+0x24>)
 80019d8:	f505 710e 	add.w	r1, r5, #568	; 0x238
 80019dc:	4798      	blx	r3
 80019de:	4630      	mov	r0, r6
 80019e0:	bdf8      	pop	{r3, r4, r5, r6, r7, pc}
 80019e2:	bf00      	nop
 80019e4:	28e9      	cmp	r0, #233	; 0xe9
 80019e6:	0800      	lsrs	r0, r0, #32

080019e8 <usbd_ep_send>:
 80019e8:	b5f8      	push	{r3, r4, r5, r6, r7, lr}
 80019ea:	f001 017f 	and.w	r1, r1, #127	; 0x7f
 80019ee:	2718      	movs	r7, #24
 80019f0:	fb07 0501 	mla	r5, r7, r1, r0
 80019f4:	2600      	movs	r6, #0
 80019f6:	4629      	mov	r1, r5
 80019f8:	e9c5 2336 	strd	r2, r3, [r5, #216]	; 0xd8
 80019fc:	f8c5 60e0 	str.w	r6, [r5, #224]	; 0xe0
 8001a00:	4b02      	ldr	r3, [pc, #8]	; (8001a0c <usbd_ep_send+0x24>)
 8001a02:	31d0      	adds	r1, #208	; 0xd0
 8001a04:	4798      	blx	r3
 8001a06:	4630      	mov	r0, r6
 8001a08:	bdf8      	pop	{r3, r4, r5, r6, r7, pc}
 8001a0a:	bf00      	nop
 8001a0c:	2829      	cmp	r0, #41	; 0x29
 8001a0e:	0800      	lsrs	r0, r0, #32

08001a10 <usbd_ep_stall>:
 8001a10:	f011 0f80 	tst.w	r1, #128	; 0x80
 8001a14:	bf18      	it	ne
 8001a16:	f001 017f 	andne.w	r1, r1, #127	; 0x7f
 8001a1a:	b508      	push	{r3, lr}
 8001a1c:	f04f 0318 	mov.w	r3, #24
 8001a20:	bf15      	itete	ne
 8001a22:	fb03 0101 	mlane	r1, r3, r1, r0
 8001a26:	fb03 0101 	mlaeq	r1, r3, r1, r0
 8001a2a:	31d0      	addne	r1, #208	; 0xd0
 8001a2c:	f501 710e 	addeq.w	r1, r1, #568	; 0x238
 8001a30:	2301      	movs	r3, #1
 8001a32:	708b      	strb	r3, [r1, #2]
 8001a34:	4b01      	ldr	r3, [pc, #4]	; (8001a3c <usbd_ep_stall+0x2c>)
 8001a36:	4798      	blx	r3
 8001a38:	2000      	movs	r0, #0
 8001a3a:	bd08      	pop	{r3, pc}
 8001a3c:	293f      	cmp	r1, #63	; 0x3f
 8001a3e:	0800      	lsrs	r0, r0, #32

08001a40 <usbd_ep_stall_clear>:
 8001a40:	f011 0f80 	tst.w	r1, #128	; 0x80
 8001a44:	bf18      	it	ne
 8001a46:	f001 017f 	andne.w	r1, r1, #127	; 0x7f
 8001a4a:	b510      	push	{r4, lr}
 8001a4c:	f04f 0318 	mov.w	r3, #24
 8001a50:	bf15      	itete	ne
 8001a52:	fb03 0101 	mlane	r1, r3, r1, r0
 8001a56:	fb03 0101 	mlaeq	r1, r3, r1, r0
 8001a5a:	31d0      	addne	r1, #208	; 0xd0
 8001a5c:	f501 710e 	addeq.w	r1, r1, #568	; 0x238
 8001a60:	2400      	movs	r4, #0
 8001a62:	4b02      	ldr	r3, [pc, #8]	; (8001a6c <usbd_ep_stall_clear+0x2c>)
 8001a64:	708c      	strb	r4, [r1, #2]
 8001a66:	4798      	blx	r3
 8001a68:	4620      	mov	r0, r4
 8001a6a:	bd10      	pop	{r4, pc}
 8001a6c:	2971      	cmp	r1, #113	; 0x71
 8001a6e:	0800      	lsrs	r0, r0, #32

08001a70 <usbd_connect>:
 8001a70:	6942      	ldr	r2, [r0, #20]
 8001a72:	6853      	ldr	r3, [r2, #4]
 8001a74:	f023 0302 	bic.w	r3, r3, #2
 8001a78:	6053      	str	r3, [r2, #4]
 8001a7a:	2003      	movs	r0, #3
 8001a7c:	4b00      	ldr	r3, [pc, #0]	; (8001a80 <usbd_connect+0x10>)
 8001a7e:	4718      	bx	r3
 8001a80:	17e1      	asrs	r1, r4, #31
 8001a82:	0800      	lsrs	r0, r0, #32

08001a84 <usbd_disconnect>:
 8001a84:	6942      	ldr	r2, [r0, #20]
 8001a86:	6853      	ldr	r3, [r2, #4]
 8001a88:	f043 0302 	orr.w	r3, r3, #2
 8001a8c:	6053      	str	r3, [r2, #4]
 8001a8e:	2003      	movs	r0, #3
 8001a90:	4b00      	ldr	r3, [pc, #0]	; (8001a94 <usbd_disconnect+0x10>)
 8001a92:	4718      	bx	r3
 8001a94:	17e1      	asrs	r1, r4, #31
 8001a96:	0800      	lsrs	r0, r0, #32

08001a98 <usbd_init>:
 8001a98:	b573      	push	{r0, r1, r4, r5, r6, lr}
 8001a9a:	e9c0 23ec 	strd	r2, r3, [r0, #944]	; 0x3b0
 8001a9e:	68d3      	ldr	r3, [r2, #12]
 8001aa0:	4604      	mov	r4, r0
 8001aa2:	460e      	mov	r6, r1
 8001aa4:	f104 0510 	add.w	r5, r4, #16
 8001aa8:	68d8      	ldr	r0, [r3, #12]
 8001aaa:	4b14      	ldr	r3, [pc, #80]	; (8001afc <usbd_init+0x64>)
 8001aac:	4798      	blx	r3
 8001aae:	4632      	mov	r2, r6
 8001ab0:	4629      	mov	r1, r5
 8001ab2:	4b13      	ldr	r3, [pc, #76]	; (8001b00 <usbd_init+0x68>)
 8001ab4:	4e13      	ldr	r6, [pc, #76]	; (8001b04 <usbd_init+0x6c>)
 8001ab6:	4620      	mov	r0, r4
 8001ab8:	4798      	blx	r3
 8001aba:	6922      	ldr	r2, [r4, #16]
 8001abc:	6893      	ldr	r3, [r2, #8]
 8001abe:	f023 0301 	bic.w	r3, r3, #1
 8001ac2:	6093      	str	r3, [r2, #8]
 8001ac4:	e894 000f 	ldmia.w	r4, {r0, r1, r2, r3}
 8001ac8:	9500      	str	r5, [sp, #0]
 8001aca:	47b0      	blx	r6
 8001acc:	4620      	mov	r0, r4
 8001ace:	4b0e      	ldr	r3, [pc, #56]	; (8001b08 <usbd_init+0x70>)
 8001ad0:	4798      	blx	r3
 8001ad2:	2100      	movs	r1, #0
 8001ad4:	4628      	mov	r0, r5
 8001ad6:	4b0d      	ldr	r3, [pc, #52]	; (8001b0c <usbd_init+0x74>)
 8001ad8:	4798      	blx	r3
 8001ada:	4b0d      	ldr	r3, [pc, #52]	; (8001b10 <usbd_init+0x78>)
 8001adc:	4620      	mov	r0, r4
 8001ade:	4798      	blx	r3
 8001ae0:	6922      	ldr	r2, [r4, #16]
 8001ae2:	6893      	ldr	r3, [r2, #8]
 8001ae4:	f043 0301 	orr.w	r3, r3, #1
 8001ae8:	6093      	str	r3, [r2, #8]
 8001aea:	4620      	mov	r0, r4
 8001aec:	4b09      	ldr	r3, [pc, #36]	; (8001b14 <usbd_init+0x7c>)
 8001aee:	4798      	blx	r3
 8001af0:	2301      	movs	r3, #1
 8001af2:	f884 30ce 	strb.w	r3, [r4, #206]	; 0xce
 8001af6:	b002      	add	sp, #8
 8001af8:	bd70      	pop	{r4, r5, r6, pc}
 8001afa:	bf00      	nop
 8001afc:	1f3d      	subs	r5, r7, #4
 8001afe:	0800      	lsrs	r0, r0, #32
 8001b00:	23f9      	movs	r3, #249	; 0xf9
 8001b02:	0800      	lsrs	r0, r0, #32
 8001b04:	24fd      	movs	r4, #253	; 0xfd
 8001b06:	0800      	lsrs	r0, r0, #32
 8001b08:	1a85      	subs	r5, r0, r2
 8001b0a:	0800      	lsrs	r0, r0, #32
 8001b0c:	2637      	movs	r6, #55	; 0x37
 8001b0e:	0800      	lsrs	r0, r0, #32
 8001b10:	268d      	movs	r6, #141	; 0x8d
 8001b12:	0800      	lsrs	r0, r0, #32
 8001b14:	1a71      	subs	r1, r6, r1
 8001b16:	0800      	lsrs	r0, r0, #32

08001b18 <_usb_std_reserved>:
 8001b18:	2001      	movs	r0, #1
 8001b1a:	4770      	bx	lr

08001b1c <_usb_dev_desc_get>:
 8001b1c:	f8d0 33b0 	ldr.w	r3, [r0, #944]	; 0x3b0
 8001b20:	6818      	ldr	r0, [r3, #0]
 8001b22:	7803      	ldrb	r3, [r0, #0]
 8001b24:	8013      	strh	r3, [r2, #0]
 8001b26:	4770      	bx	lr

08001b28 <_usb_config_desc_get>:
 8001b28:	f8d0 33b0 	ldr.w	r3, [r0, #944]	; 0x3b0
 8001b2c:	6858      	ldr	r0, [r3, #4]
 8001b2e:	8843      	ldrh	r3, [r0, #2]
 8001b30:	8013      	strh	r3, [r2, #0]
 8001b32:	4770      	bx	lr

08001b34 <_usb_str_desc_get>:
 8001b34:	f8d0 33b0 	ldr.w	r3, [r0, #944]	; 0x3b0
 8001b38:	68db      	ldr	r3, [r3, #12]
 8001b3a:	f853 0021 	ldr.w	r0, [r3, r1, lsl #2]
 8001b3e:	7803      	ldrb	r3, [r0, #0]
 8001b40:	8013      	strh	r3, [r2, #0]
 8001b42:	4770      	bx	lr

08001b44 <_usb_std_getstatus>:
 8001b44:	b510      	push	{r4, lr}
 8001b46:	4603      	mov	r3, r0
 8001b48:	7808      	ldrb	r0, [r1, #0]
 8001b4a:	888c      	ldrh	r4, [r1, #4]
 8001b4c:	f000 0003 	and.w	r0, r0, #3
 8001b50:	2801      	cmp	r0, #1
 8001b52:	b2e2      	uxtb	r2, r4
 8001b54:	d01f      	beq.n	8001b96 <_usb_std_getstatus+0x52>
 8001b56:	2802      	cmp	r0, #2
 8001b58:	d024      	beq.n	8001ba4 <_usb_std_getstatus+0x60>
 8001b5a:	2800      	cmp	r0, #0
 8001b5c:	d138      	bne.n	8001bd0 <_usb_std_getstatus+0x8c>
 8001b5e:	f893 20ce 	ldrb.w	r2, [r3, #206]	; 0xce
 8001b62:	2a02      	cmp	r2, #2
 8001b64:	d003      	beq.n	8001b6e <_usb_std_getstatus+0x2a>
 8001b66:	f893 20ce 	ldrb.w	r2, [r3, #206]	; 0xce
 8001b6a:	2a03      	cmp	r2, #3
 8001b6c:	d130      	bne.n	8001bd0 <_usb_std_getstatus+0x8c>
 8001b6e:	f893 23a2 	ldrb.w	r2, [r3, #930]	; 0x3a2
 8001b72:	4918      	ldr	r1, [pc, #96]	; (8001bd4 <_usb_std_getstatus+0x90>)
 8001b74:	b132      	cbz	r2, 8001b84 <_usb_std_getstatus+0x40>
 8001b76:	f893 23a0 	ldrb.w	r2, [r3, #928]	; 0x3a0
 8001b7a:	3a00      	subs	r2, #0
 8001b7c:	bf18      	it	ne
 8001b7e:	2201      	movne	r2, #1
 8001b80:	f042 0202 	orr.w	r2, r2, #2
 8001b84:	700a      	strb	r2, [r1, #0]
 8001b86:	4a13      	ldr	r2, [pc, #76]	; (8001bd4 <_usb_std_getstatus+0x90>)
 8001b88:	f8c3 20d8 	str.w	r2, [r3, #216]	; 0xd8
 8001b8c:	2202      	movs	r2, #2
 8001b8e:	f8c3 20e4 	str.w	r2, [r3, #228]	; 0xe4
 8001b92:	2000      	movs	r0, #0
 8001b94:	e005      	b.n	8001ba2 <_usb_std_getstatus+0x5e>
 8001b96:	f893 10ce 	ldrb.w	r1, [r3, #206]	; 0xce
 8001b9a:	2903      	cmp	r1, #3
 8001b9c:	d101      	bne.n	8001ba2 <_usb_std_getstatus+0x5e>
 8001b9e:	2a02      	cmp	r2, #2
 8001ba0:	d9f1      	bls.n	8001b86 <_usb_std_getstatus+0x42>
 8001ba2:	bd10      	pop	{r4, pc}
 8001ba4:	f893 10ce 	ldrb.w	r1, [r3, #206]	; 0xce
 8001ba8:	2903      	cmp	r1, #3
 8001baa:	d111      	bne.n	8001bd0 <_usb_std_getstatus+0x8c>
 8001bac:	f014 0f80 	tst.w	r4, #128	; 0x80
 8001bb0:	f04f 0018 	mov.w	r0, #24
 8001bb4:	bf1a      	itte	ne
 8001bb6:	f002 027f 	andne.w	r2, r2, #127	; 0x7f
 8001bba:	fb00 3202 	mlane	r2, r0, r2, r3
 8001bbe:	fb00 3202 	mlaeq	r2, r0, r2, r3
 8001bc2:	4904      	ldr	r1, [pc, #16]	; (8001bd4 <_usb_std_getstatus+0x90>)
 8001bc4:	bf14      	ite	ne
 8001bc6:	f892 20d2 	ldrbne.w	r2, [r2, #210]	; 0xd2
 8001bca:	f892 223a 	ldrbeq.w	r2, [r2, #570]	; 0x23a
 8001bce:	e7d9      	b.n	8001b84 <_usb_std_getstatus+0x40>
 8001bd0:	2001      	movs	r0, #1
 8001bd2:	e7e6      	b.n	8001ba2 <_usb_std_getstatus+0x5e>
 8001bd4:	0dd4      	lsrs	r4, r2, #23
 8001bd6:	2000      	movs	r0, #0

08001bd8 <_usb_std_getdescriptor>:
 8001bd8:	b570      	push	{r4, r5, r6, lr}
 8001bda:	780b      	ldrb	r3, [r1, #0]
 8001bdc:	f013 0303 	ands.w	r3, r3, #3
 8001be0:	4605      	mov	r5, r0
 8001be2:	460e      	mov	r6, r1
 8001be4:	d003      	beq.n	8001bee <_usb_std_getdescriptor+0x16>
 8001be6:	2b01      	cmp	r3, #1
 8001be8:	d045      	beq.n	8001c76 <_usb_std_getdescriptor+0x9e>
 8001bea:	2401      	movs	r4, #1
 8001bec:	e028      	b.n	8001c40 <_usb_std_getdescriptor+0x68>
 8001bee:	8849      	ldrh	r1, [r1, #2]
 8001bf0:	0a0b      	lsrs	r3, r1, #8
 8001bf2:	2b03      	cmp	r3, #3
 8001bf4:	461c      	mov	r4, r3
 8001bf6:	b2c9      	uxtb	r1, r1
 8001bf8:	d037      	beq.n	8001c6a <_usb_std_getdescriptor+0x92>
 8001bfa:	d80a      	bhi.n	8001c12 <_usb_std_getdescriptor+0x3a>
 8001bfc:	2b01      	cmp	r3, #1
 8001bfe:	d013      	beq.n	8001c28 <_usb_std_getdescriptor+0x50>
 8001c00:	2b02      	cmp	r3, #2
 8001c02:	d1f2      	bne.n	8001bea <_usb_std_getdescriptor+0x12>
 8001c04:	4b21      	ldr	r3, [pc, #132]	; (8001c8c <_usb_std_getdescriptor+0xb4>)
 8001c06:	f100 02e4 	add.w	r2, r0, #228	; 0xe4
 8001c0a:	4798      	blx	r3
 8001c0c:	f8c5 00d8 	str.w	r0, [r5, #216]	; 0xd8
 8001c10:	e7eb      	b.n	8001bea <_usb_std_getdescriptor+0x12>
 8001c12:	2b0f      	cmp	r3, #15
 8001c14:	d1e9      	bne.n	8001bea <_usb_std_getdescriptor+0x12>
 8001c16:	f8d0 33b0 	ldr.w	r3, [r0, #944]	; 0x3b0
 8001c1a:	689b      	ldr	r3, [r3, #8]
 8001c1c:	789a      	ldrb	r2, [r3, #2]
 8001c1e:	f8a0 20e4 	strh.w	r2, [r0, #228]	; 0xe4
 8001c22:	f8c0 30d8 	str.w	r3, [r0, #216]	; 0xd8
 8001c26:	e7e0      	b.n	8001bea <_usb_std_getdescriptor+0x12>
 8001c28:	4b19      	ldr	r3, [pc, #100]	; (8001c90 <_usb_std_getdescriptor+0xb8>)
 8001c2a:	f100 02e4 	add.w	r2, r0, #228	; 0xe4
 8001c2e:	4798      	blx	r3
 8001c30:	f8c5 00d8 	str.w	r0, [r5, #216]	; 0xd8
 8001c34:	88f3      	ldrh	r3, [r6, #6]
 8001c36:	2b40      	cmp	r3, #64	; 0x40
 8001c38:	d1d7      	bne.n	8001bea <_usb_std_getdescriptor+0x12>
 8001c3a:	2308      	movs	r3, #8
 8001c3c:	f8c5 30e4 	str.w	r3, [r5, #228]	; 0xe4
 8001c40:	f8d5 30e4 	ldr.w	r3, [r5, #228]	; 0xe4
 8001c44:	b17b      	cbz	r3, 8001c66 <_usb_std_getdescriptor+0x8e>
 8001c46:	88f2      	ldrh	r2, [r6, #6]
 8001c48:	b16a      	cbz	r2, 8001c66 <_usb_std_getdescriptor+0x8e>
 8001c4a:	4293      	cmp	r3, r2
 8001c4c:	d219      	bcs.n	8001c82 <_usb_std_getdescriptor+0xaa>
 8001c4e:	f8b5 40d4 	ldrh.w	r4, [r5, #212]	; 0xd4
 8001c52:	42a3      	cmp	r3, r4
 8001c54:	d317      	bcc.n	8001c86 <_usb_std_getdescriptor+0xae>
 8001c56:	fbb3 f0f4 	udiv	r0, r3, r4
 8001c5a:	fb04 3410 	mls	r4, r4, r0, r3
 8001c5e:	b994      	cbnz	r4, 8001c86 <_usb_std_getdescriptor+0xae>
 8001c60:	2301      	movs	r3, #1
 8001c62:	f885 33ad 	strb.w	r3, [r5, #941]	; 0x3ad
 8001c66:	4620      	mov	r0, r4
 8001c68:	bd70      	pop	{r4, r5, r6, pc}
 8001c6a:	29ee      	cmp	r1, #238	; 0xee
 8001c6c:	d8bd      	bhi.n	8001bea <_usb_std_getdescriptor+0x12>
 8001c6e:	4b09      	ldr	r3, [pc, #36]	; (8001c94 <_usb_std_getdescriptor+0xbc>)
 8001c70:	f100 02e4 	add.w	r2, r0, #228	; 0xe4
 8001c74:	e7c9      	b.n	8001c0a <_usb_std_getdescriptor+0x32>
 8001c76:	f8d0 33b4 	ldr.w	r3, [r0, #948]	; 0x3b4
 8001c7a:	68db      	ldr	r3, [r3, #12]
 8001c7c:	4798      	blx	r3
 8001c7e:	4604      	mov	r4, r0
 8001c80:	e7de      	b.n	8001c40 <_usb_std_getdescriptor+0x68>
 8001c82:	f8c5 20e4 	str.w	r2, [r5, #228]	; 0xe4
 8001c86:	2400      	movs	r4, #0
 8001c88:	e7ed      	b.n	8001c66 <_usb_std_getdescriptor+0x8e>
 8001c8a:	bf00      	nop
 8001c8c:	1b29      	subs	r1, r5, r4
 8001c8e:	0800      	lsrs	r0, r0, #32
 8001c90:	1b1d      	subs	r5, r3, r4
 8001c92:	0800      	lsrs	r0, r0, #32
 8001c94:	1b35      	subs	r5, r6, r4
 8001c96:	0800      	lsrs	r0, r0, #32

08001c98 <_usb_std_getconfiguration>:
 8001c98:	f890 30ce 	ldrb.w	r3, [r0, #206]	; 0xce
 8001c9c:	2b02      	cmp	r3, #2
 8001c9e:	b2da      	uxtb	r2, r3
 8001ca0:	d003      	beq.n	8001caa <_usb_std_getconfiguration+0x12>
 8001ca2:	2a03      	cmp	r2, #3
 8001ca4:	d00e      	beq.n	8001cc4 <_usb_std_getconfiguration+0x2c>
 8001ca6:	2001      	movs	r0, #1
 8001ca8:	4770      	bx	lr
 8001caa:	f890 30cc 	ldrb.w	r3, [r0, #204]	; 0xcc
 8001cae:	2b00      	cmp	r3, #0
 8001cb0:	d1f9      	bne.n	8001ca6 <_usb_std_getconfiguration+0xe>
 8001cb2:	f100 03cc 	add.w	r3, r0, #204	; 0xcc
 8001cb6:	f8c0 30d8 	str.w	r3, [r0, #216]	; 0xd8
 8001cba:	2301      	movs	r3, #1
 8001cbc:	f8c0 30e4 	str.w	r3, [r0, #228]	; 0xe4
 8001cc0:	2000      	movs	r0, #0
 8001cc2:	4770      	bx	lr
 8001cc4:	f890 30cc 	ldrb.w	r3, [r0, #204]	; 0xcc
 8001cc8:	2b00      	cmp	r3, #0
 8001cca:	d0ec      	beq.n	8001ca6 <_usb_std_getconfiguration+0xe>
 8001ccc:	e7f1      	b.n	8001cb2 <_usb_std_getconfiguration+0x1a>
	...

08001cd0 <_usb_std_setconfiguration>:
 8001cd0:	b570      	push	{r4, r5, r6, lr}
 8001cd2:	884d      	ldrh	r5, [r1, #2]
 8001cd4:	4e1e      	ldr	r6, [pc, #120]	; (8001d50 <_usb_std_setconfiguration+0x80>)
 8001cd6:	b2ed      	uxtb	r5, r5
 8001cd8:	2d01      	cmp	r5, #1
 8001cda:	4604      	mov	r4, r0
 8001cdc:	70b5      	strb	r5, [r6, #2]
 8001cde:	d806      	bhi.n	8001cee <_usb_std_setconfiguration+0x1e>
 8001ce0:	f890 30ce 	ldrb.w	r3, [r0, #206]	; 0xce
 8001ce4:	2b02      	cmp	r3, #2
 8001ce6:	b2da      	uxtb	r2, r3
 8001ce8:	d003      	beq.n	8001cf2 <_usb_std_setconfiguration+0x22>
 8001cea:	2a03      	cmp	r2, #3
 8001cec:	d00f      	beq.n	8001d0e <_usb_std_setconfiguration+0x3e>
 8001cee:	2501      	movs	r5, #1
 8001cf0:	e019      	b.n	8001d26 <_usb_std_setconfiguration+0x56>
 8001cf2:	b1c5      	cbz	r5, 8001d26 <_usb_std_setconfiguration+0x56>
 8001cf4:	f8d0 33b4 	ldr.w	r3, [r0, #948]	; 0x3b4
 8001cf8:	2101      	movs	r1, #1
 8001cfa:	685b      	ldr	r3, [r3, #4]
 8001cfc:	4798      	blx	r3
 8001cfe:	78b3      	ldrb	r3, [r6, #2]
 8001d00:	f884 30cc 	strb.w	r3, [r4, #204]	; 0xcc
 8001d04:	2303      	movs	r3, #3
 8001d06:	f884 30ce 	strb.w	r3, [r4, #206]	; 0xce
 8001d0a:	2500      	movs	r5, #0
 8001d0c:	e00b      	b.n	8001d26 <_usb_std_setconfiguration+0x56>
 8001d0e:	b965      	cbnz	r5, 8001d2a <_usb_std_setconfiguration+0x5a>
 8001d10:	f8d0 33b4 	ldr.w	r3, [r0, #948]	; 0x3b4
 8001d14:	4629      	mov	r1, r5
 8001d16:	689b      	ldr	r3, [r3, #8]
 8001d18:	4798      	blx	r3
 8001d1a:	78b3      	ldrb	r3, [r6, #2]
 8001d1c:	f884 30cc 	strb.w	r3, [r4, #204]	; 0xcc
 8001d20:	2302      	movs	r3, #2
 8001d22:	f884 30ce 	strb.w	r3, [r4, #206]	; 0xce
 8001d26:	4628      	mov	r0, r5
 8001d28:	bd70      	pop	{r4, r5, r6, pc}
 8001d2a:	f890 30cc 	ldrb.w	r3, [r0, #204]	; 0xcc
 8001d2e:	2b01      	cmp	r3, #1
 8001d30:	d0eb      	beq.n	8001d0a <_usb_std_setconfiguration+0x3a>
 8001d32:	f8d0 33b4 	ldr.w	r3, [r0, #948]	; 0x3b4
 8001d36:	2101      	movs	r1, #1
 8001d38:	689b      	ldr	r3, [r3, #8]
 8001d3a:	4798      	blx	r3
 8001d3c:	78b1      	ldrb	r1, [r6, #2]
 8001d3e:	f8d4 33b4 	ldr.w	r3, [r4, #948]	; 0x3b4
 8001d42:	f884 10cc 	strb.w	r1, [r4, #204]	; 0xcc
 8001d46:	685b      	ldr	r3, [r3, #4]
 8001d48:	4620      	mov	r0, r4
 8001d4a:	4798      	blx	r3
 8001d4c:	e7dd      	b.n	8001d0a <_usb_std_setconfiguration+0x3a>
 8001d4e:	bf00      	nop
 8001d50:	0dd4      	lsrs	r4, r2, #23
 8001d52:	2000      	movs	r0, #0

08001d54 <_usb_std_setaddress>:
 8001d54:	b510      	push	{r4, lr}
 8001d56:	888b      	ldrh	r3, [r1, #4]
 8001d58:	4602      	mov	r2, r0
 8001d5a:	b10b      	cbz	r3, 8001d60 <_usb_std_setaddress+0xc>
 8001d5c:	2001      	movs	r0, #1
 8001d5e:	bd10      	pop	{r4, pc}
 8001d60:	88cc      	ldrh	r4, [r1, #6]
 8001d62:	2c00      	cmp	r4, #0
 8001d64:	d1fa      	bne.n	8001d5c <_usb_std_setaddress+0x8>
 8001d66:	884b      	ldrh	r3, [r1, #2]
 8001d68:	f003 007f 	and.w	r0, r3, #127	; 0x7f
 8001d6c:	f892 30ce 	ldrb.w	r3, [r2, #206]	; 0xce
 8001d70:	f882 00cd 	strb.w	r0, [r2, #205]	; 0xcd
 8001d74:	2b03      	cmp	r3, #3
 8001d76:	d0f1      	beq.n	8001d5c <_usb_std_setaddress+0x8>
 8001d78:	6953      	ldr	r3, [r2, #20]
 8001d7a:	6819      	ldr	r1, [r3, #0]
 8001d7c:	f421 61fe 	bic.w	r1, r1, #2032	; 0x7f0
 8001d80:	6019      	str	r1, [r3, #0]
 8001d82:	6819      	ldr	r1, [r3, #0]
 8001d84:	ea41 1100 	orr.w	r1, r1, r0, lsl #4
 8001d88:	6019      	str	r1, [r3, #0]
 8001d8a:	b120      	cbz	r0, 8001d96 <_usb_std_setaddress+0x42>
 8001d8c:	2302      	movs	r3, #2
 8001d8e:	f882 30ce 	strb.w	r3, [r2, #206]	; 0xce
 8001d92:	4620      	mov	r0, r4
 8001d94:	e7e3      	b.n	8001d5e <_usb_std_setaddress+0xa>
 8001d96:	2301      	movs	r3, #1
 8001d98:	f882 30ce 	strb.w	r3, [r2, #206]	; 0xce
 8001d9c:	e7df      	b.n	8001d5e <_usb_std_setaddress+0xa>

08001d9e <_usb_std_getinterface>:
 8001d9e:	f890 20ce 	ldrb.w	r2, [r0, #206]	; 0xce
 8001da2:	2a03      	cmp	r2, #3
 8001da4:	4603      	mov	r3, r0
 8001da6:	d10e      	bne.n	8001dc6 <_usb_std_getinterface+0x28>
 8001da8:	888a      	ldrh	r2, [r1, #4]
 8001daa:	b2d2      	uxtb	r2, r2
 8001dac:	2a02      	cmp	r2, #2
 8001dae:	f04f 0001 	mov.w	r0, #1
 8001db2:	d809      	bhi.n	8001dc8 <_usb_std_getinterface+0x2a>
 8001db4:	f8d3 23b4 	ldr.w	r2, [r3, #948]	; 0x3b4
 8001db8:	f8c3 00e4 	str.w	r0, [r3, #228]	; 0xe4
 8001dbc:	4402      	add	r2, r0
 8001dbe:	f8c3 20d8 	str.w	r2, [r3, #216]	; 0xd8
 8001dc2:	2000      	movs	r0, #0
 8001dc4:	4770      	bx	lr
 8001dc6:	2001      	movs	r0, #1
 8001dc8:	4770      	bx	lr

08001dca <_usb_std_setinterface>:
 8001dca:	b510      	push	{r4, lr}
 8001dcc:	f890 40ce 	ldrb.w	r4, [r0, #206]	; 0xce
 8001dd0:	2c03      	cmp	r4, #3
 8001dd2:	d10a      	bne.n	8001dea <_usb_std_setinterface+0x20>
 8001dd4:	888a      	ldrh	r2, [r1, #4]
 8001dd6:	b2d2      	uxtb	r2, r2
 8001dd8:	2a02      	cmp	r2, #2
 8001dda:	d806      	bhi.n	8001dea <_usb_std_setinterface+0x20>
 8001ddc:	f8d0 33b4 	ldr.w	r3, [r0, #948]	; 0x3b4
 8001de0:	691b      	ldr	r3, [r3, #16]
 8001de2:	b123      	cbz	r3, 8001dee <_usb_std_setinterface+0x24>
 8001de4:	4798      	blx	r3
 8001de6:	2000      	movs	r0, #0
 8001de8:	bd10      	pop	{r4, pc}
 8001dea:	2001      	movs	r0, #1
 8001dec:	e7fc      	b.n	8001de8 <_usb_std_setinterface+0x1e>
 8001dee:	4618      	mov	r0, r3
 8001df0:	e7fa      	b.n	8001de8 <_usb_std_setinterface+0x1e>
	...

08001df4 <_usb_std_setfeature>:
 8001df4:	b510      	push	{r4, lr}
 8001df6:	780b      	ldrb	r3, [r1, #0]
 8001df8:	f013 0303 	ands.w	r3, r3, #3
 8001dfc:	4602      	mov	r2, r0
 8001dfe:	d003      	beq.n	8001e08 <_usb_std_setfeature+0x14>
 8001e00:	2b02      	cmp	r3, #2
 8001e02:	d010      	beq.n	8001e26 <_usb_std_setfeature+0x32>
 8001e04:	2301      	movs	r3, #1
 8001e06:	e00c      	b.n	8001e22 <_usb_std_setfeature+0x2e>
 8001e08:	f890 00ce 	ldrb.w	r0, [r0, #206]	; 0xce
 8001e0c:	2802      	cmp	r0, #2
 8001e0e:	d003      	beq.n	8001e18 <_usb_std_setfeature+0x24>
 8001e10:	f892 00ce 	ldrb.w	r0, [r2, #206]	; 0xce
 8001e14:	2803      	cmp	r0, #3
 8001e16:	d1f5      	bne.n	8001e04 <_usb_std_setfeature+0x10>
 8001e18:	8849      	ldrh	r1, [r1, #2]
 8001e1a:	2901      	cmp	r1, #1
 8001e1c:	d101      	bne.n	8001e22 <_usb_std_setfeature+0x2e>
 8001e1e:	f882 13a2 	strb.w	r1, [r2, #930]	; 0x3a2
 8001e22:	4618      	mov	r0, r3
 8001e24:	bd10      	pop	{r4, pc}
 8001e26:	f890 30ce 	ldrb.w	r3, [r0, #206]	; 0xce
 8001e2a:	2b03      	cmp	r3, #3
 8001e2c:	d1ea      	bne.n	8001e04 <_usb_std_setfeature+0x10>
 8001e2e:	884c      	ldrh	r4, [r1, #2]
 8001e30:	b934      	cbnz	r4, 8001e40 <_usb_std_setfeature+0x4c>
 8001e32:	888b      	ldrh	r3, [r1, #4]
 8001e34:	b2d9      	uxtb	r1, r3
 8001e36:	f013 037f 	ands.w	r3, r3, #127	; 0x7f
 8001e3a:	d0f2      	beq.n	8001e22 <_usb_std_setfeature+0x2e>
 8001e3c:	4b01      	ldr	r3, [pc, #4]	; (8001e44 <_usb_std_setfeature+0x50>)
 8001e3e:	4798      	blx	r3
 8001e40:	2300      	movs	r3, #0
 8001e42:	e7ee      	b.n	8001e22 <_usb_std_setfeature+0x2e>
 8001e44:	1a11      	subs	r1, r2, r0
 8001e46:	0800      	lsrs	r0, r0, #32

08001e48 <_usb_std_clearfeature>:
 8001e48:	b570      	push	{r4, r5, r6, lr}
 8001e4a:	780b      	ldrb	r3, [r1, #0]
 8001e4c:	f013 0303 	ands.w	r3, r3, #3
 8001e50:	4604      	mov	r4, r0
 8001e52:	460d      	mov	r5, r1
 8001e54:	d003      	beq.n	8001e5e <_usb_std_clearfeature+0x16>
 8001e56:	2b02      	cmp	r3, #2
 8001e58:	d011      	beq.n	8001e7e <_usb_std_clearfeature+0x36>
 8001e5a:	2301      	movs	r3, #1
 8001e5c:	e00d      	b.n	8001e7a <_usb_std_clearfeature+0x32>
 8001e5e:	f890 20ce 	ldrb.w	r2, [r0, #206]	; 0xce
 8001e62:	2a02      	cmp	r2, #2
 8001e64:	d003      	beq.n	8001e6e <_usb_std_clearfeature+0x26>
 8001e66:	f890 20ce 	ldrb.w	r2, [r0, #206]	; 0xce
 8001e6a:	2a03      	cmp	r2, #3
 8001e6c:	d1f5      	bne.n	8001e5a <_usb_std_clearfeature+0x12>
 8001e6e:	886a      	ldrh	r2, [r5, #2]
 8001e70:	2a01      	cmp	r2, #1
 8001e72:	d1f2      	bne.n	8001e5a <_usb_std_clearfeature+0x12>
 8001e74:	2200      	movs	r2, #0
 8001e76:	f884 23a2 	strb.w	r2, [r4, #930]	; 0x3a2
 8001e7a:	4618      	mov	r0, r3
 8001e7c:	bd70      	pop	{r4, r5, r6, pc}
 8001e7e:	f890 30ce 	ldrb.w	r3, [r0, #206]	; 0xce
 8001e82:	2b03      	cmp	r3, #3
 8001e84:	d1e9      	bne.n	8001e5a <_usb_std_clearfeature+0x12>
 8001e86:	884e      	ldrh	r6, [r1, #2]
 8001e88:	b966      	cbnz	r6, 8001ea4 <_usb_std_clearfeature+0x5c>
 8001e8a:	888b      	ldrh	r3, [r1, #4]
 8001e8c:	b2d9      	uxtb	r1, r3
 8001e8e:	f013 037f 	ands.w	r3, r3, #127	; 0x7f
 8001e92:	d0f2      	beq.n	8001e7a <_usb_std_clearfeature+0x32>
 8001e94:	4b04      	ldr	r3, [pc, #16]	; (8001ea8 <_usb_std_clearfeature+0x60>)
 8001e96:	4798      	blx	r3
 8001e98:	f8d4 33b4 	ldr.w	r3, [r4, #948]	; 0x3b4
 8001e9c:	4629      	mov	r1, r5
 8001e9e:	68db      	ldr	r3, [r3, #12]
 8001ea0:	4620      	mov	r0, r4
 8001ea2:	4798      	blx	r3
 8001ea4:	2300      	movs	r3, #0
 8001ea6:	e7e8      	b.n	8001e7a <_usb_std_clearfeature+0x32>
 8001ea8:	1a41      	subs	r1, r0, r1
 8001eaa:	0800      	lsrs	r0, r0, #32

08001eac <_usb_std_setdescriptor>:
 8001eac:	2000      	movs	r0, #0
 8001eae:	4770      	bx	lr

08001eb0 <_usb_std_synchframe>:
 8001eb0:	2000      	movs	r0, #0
 8001eb2:	4770      	bx	lr

08001eb4 <usbd_standard_request>:
 8001eb4:	784a      	ldrb	r2, [r1, #1]
 8001eb6:	4b02      	ldr	r3, [pc, #8]	; (8001ec0 <usbd_standard_request+0xc>)
 8001eb8:	f853 3022 	ldr.w	r3, [r3, r2, lsl #2]
 8001ebc:	4718      	bx	r3
 8001ebe:	bf00      	nop
 8001ec0:	7668      	strb	r0, [r5, #25]
 8001ec2:	0800      	lsrs	r0, r0, #32

08001ec4 <usbd_class_request>:
 8001ec4:	b410      	push	{r4}
 8001ec6:	f890 40ce 	ldrb.w	r4, [r0, #206]	; 0xce
 8001eca:	2c03      	cmp	r4, #3
 8001ecc:	d108      	bne.n	8001ee0 <usbd_class_request+0x1c>
 8001ece:	888a      	ldrh	r2, [r1, #4]
 8001ed0:	b2d2      	uxtb	r2, r2
 8001ed2:	2a02      	cmp	r2, #2
 8001ed4:	d804      	bhi.n	8001ee0 <usbd_class_request+0x1c>
 8001ed6:	f8d0 33b4 	ldr.w	r3, [r0, #948]	; 0x3b4
 8001eda:	bc10      	pop	{r4}
 8001edc:	68db      	ldr	r3, [r3, #12]
 8001ede:	4718      	bx	r3
 8001ee0:	2001      	movs	r0, #1
 8001ee2:	bc10      	pop	{r4}
 8001ee4:	4770      	bx	lr

08001ee6 <usbd_vendor_request>:
 8001ee6:	2000      	movs	r0, #0
 8001ee8:	4770      	bx	lr
	...

08001eec <usbd_enum_error>:
 8001eec:	b570      	push	{r4, r5, r6, lr}
 8001eee:	2180      	movs	r1, #128	; 0x80
 8001ef0:	4604      	mov	r4, r0
 8001ef2:	4d05      	ldr	r5, [pc, #20]	; (8001f08 <usbd_enum_error+0x1c>)
 8001ef4:	47a8      	blx	r5
 8001ef6:	4620      	mov	r0, r4
 8001ef8:	2100      	movs	r1, #0
 8001efa:	47a8      	blx	r5
 8001efc:	4620      	mov	r0, r4
 8001efe:	4b03      	ldr	r3, [pc, #12]	; (8001f0c <usbd_enum_error+0x20>)
 8001f00:	e8bd 4070 	ldmia.w	sp!, {r4, r5, r6, lr}
 8001f04:	4718      	bx	r3
 8001f06:	bf00      	nop
 8001f08:	1a11      	subs	r1, r2, r0
 8001f0a:	0800      	lsrs	r0, r0, #32
 8001f0c:	29c1      	cmp	r1, #193	; 0xc1
 8001f0e:	0800      	lsrs	r0, r0, #32

08001f10 <int_to_unicode>:
 8001f10:	2300      	movs	r3, #0
 8001f12:	b570      	push	{r4, r5, r6, lr}
 8001f14:	1c4d      	adds	r5, r1, #1
 8001f16:	461e      	mov	r6, r3
 8001f18:	b2dc      	uxtb	r4, r3
 8001f1a:	4294      	cmp	r4, r2
 8001f1c:	d300      	bcc.n	8001f20 <int_to_unicode+0x10>
 8001f1e:	bd70      	pop	{r4, r5, r6, pc}
 8001f20:	0f04      	lsrs	r4, r0, #28
 8001f22:	f1b0 4f20 	cmp.w	r0, #2684354560	; 0xa0000000
 8001f26:	bf34      	ite	cc
 8001f28:	3430      	addcc	r4, #48	; 0x30
 8001f2a:	3437      	addcs	r4, #55	; 0x37
 8001f2c:	f801 4013 	strb.w	r4, [r1, r3, lsl #1]
 8001f30:	0100      	lsls	r0, r0, #4
 8001f32:	f805 6013 	strb.w	r6, [r5, r3, lsl #1]
 8001f36:	3301      	adds	r3, #1
 8001f38:	e7ee      	b.n	8001f18 <int_to_unicode+0x8>
	...

08001f3c <serial_string_get>:
 8001f3c:	7803      	ldrb	r3, [r0, #0]
 8001f3e:	2b06      	cmp	r3, #6
 8001f40:	b570      	push	{r4, r5, r6, lr}
 8001f42:	4604      	mov	r4, r0
 8001f44:	d014      	beq.n	8001f70 <serial_string_get+0x34>
 8001f46:	4b0e      	ldr	r3, [pc, #56]	; (8001f80 <serial_string_get+0x44>)
 8001f48:	f8d3 07e8 	ldr.w	r0, [r3, #2024]	; 0x7e8
 8001f4c:	f8d3 27f0 	ldr.w	r2, [r3, #2032]	; 0x7f0
 8001f50:	1880      	adds	r0, r0, r2
 8001f52:	d014      	beq.n	8001f7e <serial_string_get+0x42>
 8001f54:	f8d3 67ec 	ldr.w	r6, [r3, #2028]	; 0x7ec
 8001f58:	4d0a      	ldr	r5, [pc, #40]	; (8001f84 <serial_string_get+0x48>)
 8001f5a:	1ca1      	adds	r1, r4, #2
 8001f5c:	2208      	movs	r2, #8
 8001f5e:	47a8      	blx	r5
 8001f60:	f104 0112 	add.w	r1, r4, #18
 8001f64:	4630      	mov	r0, r6
 8001f66:	462b      	mov	r3, r5
 8001f68:	2204      	movs	r2, #4
 8001f6a:	e8bd 4070 	ldmia.w	sp!, {r4, r5, r6, lr}
 8001f6e:	4718      	bx	r3
 8001f70:	4b05      	ldr	r3, [pc, #20]	; (8001f88 <serial_string_get+0x4c>)
 8001f72:	f8d3 3100 	ldr.w	r3, [r3, #256]	; 0x100
 8001f76:	b113      	cbz	r3, 8001f7e <serial_string_get+0x42>
 8001f78:	8043      	strh	r3, [r0, #2]
 8001f7a:	0c1b      	lsrs	r3, r3, #16
 8001f7c:	8083      	strh	r3, [r0, #4]
 8001f7e:	bd70      	pop	{r4, r5, r6, pc}
 8001f80:	f000 1fff 	and.w	pc, r0, #16711935	; 0xff00ff
 8001f84:	1f11      	subs	r1, r2, #4
 8001f86:	0800      	lsrs	r0, r0, #32
 8001f88:	2000      	movs	r0, #0
 8001f8a:	4002      	ands	r2, r0

08001f8c <usbd_int_suspend.isra.0>:
 8001f8c:	b513      	push	{r0, r1, r4, lr}
 8001f8e:	79c3      	ldrb	r3, [r0, #7]
 8001f90:	f88d 3005 	strb.w	r3, [sp, #5]
 8001f94:	6943      	ldr	r3, [r0, #20]
 8001f96:	689b      	ldr	r3, [r3, #8]
 8001f98:	f003 0301 	and.w	r3, r3, #1
 8001f9c:	f88d 3006 	strb.w	r3, [sp, #6]
 8001fa0:	f890 30ce 	ldrb.w	r3, [r0, #206]	; 0xce
 8001fa4:	1eda      	subs	r2, r3, #3
 8001fa6:	4253      	negs	r3, r2
 8001fa8:	4153      	adcs	r3, r2
 8001faa:	f88d 3007 	strb.w	r3, [sp, #7]
 8001fae:	f890 30ce 	ldrb.w	r3, [r0, #206]	; 0xce
 8001fb2:	b2db      	uxtb	r3, r3
 8001fb4:	f880 30cf 	strb.w	r3, [r0, #207]	; 0xcf
 8001fb8:	2304      	movs	r3, #4
 8001fba:	f880 30ce 	strb.w	r3, [r0, #206]	; 0xce
 8001fbe:	f89d 3005 	ldrb.w	r3, [sp, #5]
 8001fc2:	4604      	mov	r4, r0
 8001fc4:	b183      	cbz	r3, 8001fe8 <usbd_int_suspend.isra.0+0x5c>
 8001fc6:	f89d 3006 	ldrb.w	r3, [sp, #6]
 8001fca:	b16b      	cbz	r3, 8001fe8 <usbd_int_suspend.isra.0+0x5c>
 8001fcc:	f89d 3007 	ldrb.w	r3, [sp, #7]
 8001fd0:	b153      	cbz	r3, 8001fe8 <usbd_int_suspend.isra.0+0x5c>
 8001fd2:	f8d0 20c8 	ldr.w	r2, [r0, #200]	; 0xc8
 8001fd6:	6813      	ldr	r3, [r2, #0]
 8001fd8:	f043 0303 	orr.w	r3, r3, #3
 8001fdc:	6013      	str	r3, [r2, #0]
 8001fde:	2200      	movs	r2, #0
 8001fe0:	4b04      	ldr	r3, [pc, #16]	; (8001ff4 <usbd_int_suspend.isra.0+0x68>)
 8001fe2:	4611      	mov	r1, r2
 8001fe4:	2001      	movs	r0, #1
 8001fe6:	4798      	blx	r3
 8001fe8:	6923      	ldr	r3, [r4, #16]
 8001fea:	f44f 6200 	mov.w	r2, #2048	; 0x800
 8001fee:	615a      	str	r2, [r3, #20]
 8001ff0:	b002      	add	sp, #8
 8001ff2:	bd10      	pop	{r4, pc}
 8001ff4:	0d59      	lsrs	r1, r3, #21
 8001ff6:	0800      	lsrs	r0, r0, #32

08001ff8 <usbd_int_enumfinish.isra.0>:
 8001ff8:	6943      	ldr	r3, [r0, #20]
 8001ffa:	689a      	ldr	r2, [r3, #8]
 8001ffc:	6859      	ldr	r1, [r3, #4]
 8001ffe:	f421 7180 	bic.w	r1, r1, #256	; 0x100
 8002002:	6059      	str	r1, [r3, #4]
 8002004:	6859      	ldr	r1, [r3, #4]
 8002006:	f441 7180 	orr.w	r1, r1, #256	; 0x100
 800200a:	6059      	str	r1, [r3, #4]
 800200c:	6903      	ldr	r3, [r0, #16]
 800200e:	68d9      	ldr	r1, [r3, #12]
 8002010:	f421 5170 	bic.w	r1, r1, #15360	; 0x3c00
 8002014:	60d9      	str	r1, [r3, #12]
 8002016:	f3c2 0241 	ubfx	r2, r2, #1, #2
 800201a:	4909      	ldr	r1, [pc, #36]	; (8002040 <usbd_int_enumfinish.isra.0+0x48>)
 800201c:	5c8a      	ldrb	r2, [r1, r2]
 800201e:	2a03      	cmp	r2, #3
 8002020:	bf15      	itete	ne
 8002022:	2202      	movne	r2, #2
 8002024:	7042      	strbeq	r2, [r0, #1]
 8002026:	7042      	strbne	r2, [r0, #1]
 8002028:	68da      	ldreq	r2, [r3, #12]
 800202a:	bf16      	itet	ne
 800202c:	68da      	ldrne	r2, [r3, #12]
 800202e:	f442 5210 	orreq.w	r2, r2, #9216	; 0x2400
 8002032:	f442 52a0 	orrne.w	r2, r2, #5120	; 0x1400
 8002036:	60da      	str	r2, [r3, #12]
 8002038:	f44f 5200 	mov.w	r2, #8192	; 0x2000
 800203c:	615a      	str	r2, [r3, #20]
 800203e:	4770      	bx	lr
 8002040:	769c      	strb	r4, [r3, #26]
 8002042:	0800      	lsrs	r0, r0, #32

08002044 <usbd_int_reset.isra.0>:
 8002044:	6942      	ldr	r2, [r0, #20]
 8002046:	e92d 43f8 	stmdb	sp!, {r3, r4, r5, r6, r7, r8, r9, lr}
 800204a:	6853      	ldr	r3, [r2, #4]
 800204c:	4604      	mov	r4, r0
 800204e:	f023 0301 	bic.w	r3, r3, #1
 8002052:	6053      	str	r3, [r2, #4]
 8002054:	2100      	movs	r1, #0
 8002056:	4b26      	ldr	r3, [pc, #152]	; (80020f0 <usbd_int_reset.isra.0+0xac>)
 8002058:	3010      	adds	r0, #16
 800205a:	4798      	blx	r3
 800205c:	78e0      	ldrb	r0, [r4, #3]
 800205e:	f104 021c 	add.w	r2, r4, #28
 8002062:	2300      	movs	r3, #0
 8002064:	21ff      	movs	r1, #255	; 0xff
 8002066:	4283      	cmp	r3, r0
 8002068:	d33a      	bcc.n	80020e0 <usbd_int_reset.isra.0+0x9c>
 800206a:	6963      	ldr	r3, [r4, #20]
 800206c:	f8df 9084 	ldr.w	r9, [pc, #132]	; 80020f4 <usbd_int_reset.isra.0+0xb0>
 8002070:	4e21      	ldr	r6, [pc, #132]	; (80020f8 <usbd_int_reset.isra.0+0xb4>)
 8002072:	f04f 32ff 	mov.w	r2, #4294967295
 8002076:	619a      	str	r2, [r3, #24]
 8002078:	f04f 1201 	mov.w	r2, #65537	; 0x10001
 800207c:	61da      	str	r2, [r3, #28]
 800207e:	2501      	movs	r5, #1
 8002080:	2209      	movs	r2, #9
 8002082:	615a      	str	r2, [r3, #20]
 8002084:	611d      	str	r5, [r3, #16]
 8002086:	681a      	ldr	r2, [r3, #0]
 8002088:	f422 62fe 	bic.w	r2, r2, #2032	; 0x7f0
 800208c:	601a      	str	r2, [r3, #0]
 800208e:	4620      	mov	r0, r4
 8002090:	4b1a      	ldr	r3, [pc, #104]	; (80020fc <usbd_int_reset.isra.0+0xb8>)
 8002092:	4798      	blx	r3
 8002094:	6923      	ldr	r3, [r4, #16]
 8002096:	f44f 5280 	mov.w	r2, #4096	; 0x1000
 800209a:	615a      	str	r2, [r3, #20]
 800209c:	f504 730e 	add.w	r3, r4, #568	; 0x238
 80020a0:	4618      	mov	r0, r3
 80020a2:	2218      	movs	r2, #24
 80020a4:	2100      	movs	r1, #0
 80020a6:	47c8      	blx	r9
 80020a8:	f04f 0840 	mov.w	r8, #64	; 0x40
 80020ac:	4601      	mov	r1, r0
 80020ae:	f104 07d0 	add.w	r7, r4, #208	; 0xd0
 80020b2:	f8a4 823c 	strh.w	r8, [r4, #572]	; 0x23c
 80020b6:	4620      	mov	r0, r4
 80020b8:	47b0      	blx	r6
 80020ba:	2218      	movs	r2, #24
 80020bc:	2100      	movs	r1, #0
 80020be:	4638      	mov	r0, r7
 80020c0:	47c8      	blx	r9
 80020c2:	f894 30d0 	ldrb.w	r3, [r4, #208]	; 0xd0
 80020c6:	f8a4 80d4 	strh.w	r8, [r4, #212]	; 0xd4
 80020ca:	f043 0380 	orr.w	r3, r3, #128	; 0x80
 80020ce:	f884 30d0 	strb.w	r3, [r4, #208]	; 0xd0
 80020d2:	4639      	mov	r1, r7
 80020d4:	4620      	mov	r0, r4
 80020d6:	47b0      	blx	r6
 80020d8:	f884 50ce 	strb.w	r5, [r4, #206]	; 0xce
 80020dc:	e8bd 83f8 	ldmia.w	sp!, {r3, r4, r5, r6, r7, r8, r9, pc}
 80020e0:	f852 5b04 	ldr.w	r5, [r2], #4
 80020e4:	60a9      	str	r1, [r5, #8]
 80020e6:	6955      	ldr	r5, [r2, #20]
 80020e8:	3301      	adds	r3, #1
 80020ea:	60a9      	str	r1, [r5, #8]
 80020ec:	e7bb      	b.n	8002066 <usbd_int_reset.isra.0+0x22>
 80020ee:	bf00      	nop
 80020f0:	25b5      	movs	r5, #181	; 0xb5
 80020f2:	0800      	lsrs	r0, r0, #32
 80020f4:	7055      	strb	r5, [r2, #1]
 80020f6:	0800      	lsrs	r0, r0, #32
 80020f8:	276d      	movs	r7, #109	; 0x6d
 80020fa:	0800      	lsrs	r0, r0, #32
 80020fc:	29c1      	cmp	r1, #193	; 0xc1
 80020fe:	0800      	lsrs	r0, r0, #32

08002100 <usbd_int_rxfifo.isra.0>:
 8002100:	b573      	push	{r0, r1, r4, r5, r6, lr}
 8002102:	2300      	movs	r3, #0
 8002104:	9301      	str	r3, [sp, #4]
 8002106:	6903      	ldr	r3, [r0, #16]
 8002108:	699a      	ldr	r2, [r3, #24]
 800210a:	f022 0210 	bic.w	r2, r2, #16
 800210e:	619a      	str	r2, [r3, #24]
 8002110:	6a1b      	ldr	r3, [r3, #32]
 8002112:	9301      	str	r3, [sp, #4]
 8002114:	9c01      	ldr	r4, [sp, #4]
 8002116:	9e01      	ldr	r6, [sp, #4]
 8002118:	9a01      	ldr	r2, [sp, #4]
 800211a:	9b01      	ldr	r3, [sp, #4]
 800211c:	f3c3 4343 	ubfx	r3, r3, #17, #4
 8002120:	2b02      	cmp	r3, #2
 8002122:	4605      	mov	r5, r0
 8002124:	f004 040f 	and.w	r4, r4, #15
 8002128:	f3c6 160a 	ubfx	r6, r6, #4, #11
 800212c:	d008      	beq.n	8002140 <usbd_int_rxfifo.isra.0+0x40>
 800212e:	2b06      	cmp	r3, #6
 8002130:	d01c      	beq.n	800216c <usbd_int_rxfifo.isra.0+0x6c>
 8002132:	692a      	ldr	r2, [r5, #16]
 8002134:	6993      	ldr	r3, [r2, #24]
 8002136:	f043 0310 	orr.w	r3, r3, #16
 800213a:	6193      	str	r3, [r2, #24]
 800213c:	b002      	add	sp, #8
 800213e:	bd70      	pop	{r4, r5, r6, pc}
 8002140:	2e00      	cmp	r6, #0
 8002142:	d0f6      	beq.n	8002132 <usbd_int_rxfifo.isra.0+0x32>
 8002144:	2318      	movs	r3, #24
 8002146:	fb03 0404 	mla	r4, r3, r4, r0
 800214a:	4632      	mov	r2, r6
 800214c:	4b13      	ldr	r3, [pc, #76]	; (800219c <usbd_int_rxfifo.isra.0+0x9c>)
 800214e:	f8d4 1240 	ldr.w	r1, [r4, #576]	; 0x240
 8002152:	3010      	adds	r0, #16
 8002154:	4798      	blx	r3
 8002156:	f8d4 3240 	ldr.w	r3, [r4, #576]	; 0x240
 800215a:	4433      	add	r3, r6
 800215c:	f8c4 3240 	str.w	r3, [r4, #576]	; 0x240
 8002160:	f8d4 3248 	ldr.w	r3, [r4, #584]	; 0x248
 8002164:	4433      	add	r3, r6
 8002166:	f8c4 3248 	str.w	r3, [r4, #584]	; 0x248
 800216a:	e7e2      	b.n	8002132 <usbd_int_rxfifo.isra.0+0x32>
 800216c:	2318      	movs	r3, #24
 800216e:	fb03 0404 	mla	r4, r3, r4, r0
 8002172:	f3c2 32c1 	ubfx	r2, r2, #15, #2
 8002176:	f894 3238 	ldrb.w	r3, [r4, #568]	; 0x238
 800217a:	f003 030f 	and.w	r3, r3, #15
 800217e:	4313      	orrs	r3, r2
 8002180:	d1d7      	bne.n	8002132 <usbd_int_rxfifo.isra.0+0x32>
 8002182:	2e08      	cmp	r6, #8
 8002184:	d1d5      	bne.n	8002132 <usbd_int_rxfifo.isra.0+0x32>
 8002186:	4b05      	ldr	r3, [pc, #20]	; (800219c <usbd_int_rxfifo.isra.0+0x9c>)
 8002188:	f500 7169 	add.w	r1, r0, #932	; 0x3a4
 800218c:	4632      	mov	r2, r6
 800218e:	3010      	adds	r0, #16
 8002190:	4798      	blx	r3
 8002192:	f8d4 3248 	ldr.w	r3, [r4, #584]	; 0x248
 8002196:	3308      	adds	r3, #8
 8002198:	e7e5      	b.n	8002166 <usbd_int_rxfifo.isra.0+0x66>
 800219a:	bf00      	nop
 800219c:	259b      	movs	r5, #155	; 0x9b
 800219e:	0800      	lsrs	r0, r0, #32

080021a0 <usbd_int_epin.isra.0>:
 80021a0:	e92d 4ff0 	stmdb	sp!, {r4, r5, r6, r7, r8, r9, sl, fp, lr}
 80021a4:	6942      	ldr	r2, [r0, #20]
 80021a6:	6993      	ldr	r3, [r2, #24]
 80021a8:	69d2      	ldr	r2, [r2, #28]
 80021aa:	ea03 0802 	and.w	r8, r3, r2
 80021ae:	b085      	sub	sp, #20
 80021b0:	4604      	mov	r4, r0
 80021b2:	f008 083f 	and.w	r8, r8, #63	; 0x3f
 80021b6:	f04f 0900 	mov.w	r9, #0
 80021ba:	fa5f fb89 	uxtb.w	fp, r9
 80021be:	f1b8 0f00 	cmp.w	r8, #0
 80021c2:	d102      	bne.n	80021ca <usbd_int_epin.isra.0+0x2a>
 80021c4:	b005      	add	sp, #20
 80021c6:	e8bd 8ff0 	ldmia.w	sp!, {r4, r5, r6, r7, r8, r9, sl, fp, pc}
 80021ca:	f018 0f01 	tst.w	r8, #1
 80021ce:	d03e      	beq.n	800224e <usbd_int_epin.isra.0+0xae>
 80021d0:	4b34      	ldr	r3, [pc, #208]	; (80022a4 <usbd_int_epin.isra.0+0x104>)
 80021d2:	4659      	mov	r1, fp
 80021d4:	4620      	mov	r0, r4
 80021d6:	4798      	blx	r3
 80021d8:	9003      	str	r0, [sp, #12]
 80021da:	9b03      	ldr	r3, [sp, #12]
 80021dc:	07da      	lsls	r2, r3, #31
 80021de:	d508      	bpl.n	80021f2 <usbd_int_epin.isra.0+0x52>
 80021e0:	eb04 038b 	add.w	r3, r4, fp, lsl #2
 80021e4:	2101      	movs	r1, #1
 80021e6:	69db      	ldr	r3, [r3, #28]
 80021e8:	4620      	mov	r0, r4
 80021ea:	6099      	str	r1, [r3, #8]
 80021ec:	4b2e      	ldr	r3, [pc, #184]	; (80022a8 <usbd_int_epin.isra.0+0x108>)
 80021ee:	4659      	mov	r1, fp
 80021f0:	4798      	blx	r3
 80021f2:	9b03      	ldr	r3, [sp, #12]
 80021f4:	061b      	lsls	r3, r3, #24
 80021f6:	d52a      	bpl.n	800224e <usbd_int_epin.isra.0+0xae>
 80021f8:	2318      	movs	r3, #24
 80021fa:	fb03 f30b 	mul.w	r3, r3, fp
 80021fe:	18e1      	adds	r1, r4, r3
 8002200:	9300      	str	r3, [sp, #0]
 8002202:	e9d1 5337 	ldrd	r5, r3, [r1, #220]	; 0xdc
 8002206:	1aeb      	subs	r3, r5, r3
 8002208:	f8b1 50d4 	ldrh.w	r5, [r1, #212]	; 0xd4
 800220c:	429d      	cmp	r5, r3
 800220e:	bf28      	it	cs
 8002210:	461d      	movcs	r5, r3
 8002212:	2301      	movs	r3, #1
 8002214:	fa03 f30b 	lsl.w	r3, r3, fp
 8002218:	3503      	adds	r5, #3
 800221a:	43db      	mvns	r3, r3
 800221c:	f10b 0a06 	add.w	sl, fp, #6
 8002220:	08ad      	lsrs	r5, r5, #2
 8002222:	9301      	str	r3, [sp, #4]
 8002224:	eb04 0a8a 	add.w	sl, r4, sl, lsl #2
 8002228:	f8da 3004 	ldr.w	r3, [sl, #4]
 800222c:	699b      	ldr	r3, [r3, #24]
 800222e:	b29b      	uxth	r3, r3
 8002230:	42ab      	cmp	r3, r5
 8002232:	d305      	bcc.n	8002240 <usbd_int_epin.isra.0+0xa0>
 8002234:	9b00      	ldr	r3, [sp, #0]
 8002236:	18e6      	adds	r6, r4, r3
 8002238:	e9d6 7337 	ldrd	r7, r3, [r6, #220]	; 0xdc
 800223c:	429f      	cmp	r7, r3
 800223e:	d80b      	bhi.n	8002258 <usbd_int_epin.isra.0+0xb8>
 8002240:	fa5f f389 	uxtb.w	r3, r9
 8002244:	eb04 0383 	add.w	r3, r4, r3, lsl #2
 8002248:	2280      	movs	r2, #128	; 0x80
 800224a:	69db      	ldr	r3, [r3, #28]
 800224c:	609a      	str	r2, [r3, #8]
 800224e:	ea4f 0858 	mov.w	r8, r8, lsr #1
 8002252:	f109 0901 	add.w	r9, r9, #1
 8002256:	e7b0      	b.n	80021ba <usbd_int_epin.isra.0+0x1a>
 8002258:	1aff      	subs	r7, r7, r3
 800225a:	f8b6 30d4 	ldrh.w	r3, [r6, #212]	; 0xd4
 800225e:	f8d6 10d8 	ldr.w	r1, [r6, #216]	; 0xd8
 8002262:	f8df c048 	ldr.w	ip, [pc, #72]	; 80022ac <usbd_int_epin.isra.0+0x10c>
 8002266:	429f      	cmp	r7, r3
 8002268:	bf28      	it	cs
 800226a:	461f      	movcs	r7, r3
 800226c:	b2bb      	uxth	r3, r7
 800226e:	465a      	mov	r2, fp
 8002270:	f104 0010 	add.w	r0, r4, #16
 8002274:	47e0      	blx	ip
 8002276:	f8d6 30d8 	ldr.w	r3, [r6, #216]	; 0xd8
 800227a:	443b      	add	r3, r7
 800227c:	f8c6 30d8 	str.w	r3, [r6, #216]	; 0xd8
 8002280:	f8d6 30e0 	ldr.w	r3, [r6, #224]	; 0xe0
 8002284:	1cfd      	adds	r5, r7, #3
 8002286:	441f      	add	r7, r3
 8002288:	f8d6 30dc 	ldr.w	r3, [r6, #220]	; 0xdc
 800228c:	f8c6 70e0 	str.w	r7, [r6, #224]	; 0xe0
 8002290:	429f      	cmp	r7, r3
 8002292:	ea4f 0595 	mov.w	r5, r5, lsr #2
 8002296:	d1c7      	bne.n	8002228 <usbd_int_epin.isra.0+0x88>
 8002298:	6961      	ldr	r1, [r4, #20]
 800229a:	9a01      	ldr	r2, [sp, #4]
 800229c:	6b4b      	ldr	r3, [r1, #52]	; 0x34
 800229e:	4013      	ands	r3, r2
 80022a0:	634b      	str	r3, [r1, #52]	; 0x34
 80022a2:	e7c1      	b.n	8002228 <usbd_int_epin.isra.0+0x88>
 80022a4:	29a3      	cmp	r1, #163	; 0xa3
 80022a6:	0800      	lsrs	r0, r0, #32
 80022a8:	2b85      	cmp	r3, #133	; 0x85
 80022aa:	0800      	lsrs	r0, r0, #32
 80022ac:	257d      	movs	r5, #125	; 0x7d
 80022ae:	0800      	lsrs	r0, r0, #32

080022b0 <usbd_int_epout.isra.0>:
 80022b0:	6943      	ldr	r3, [r0, #20]
 80022b2:	e92d 47f3 	stmdb	sp!, {r0, r1, r4, r5, r6, r7, r8, r9, sl, lr}
 80022b6:	699c      	ldr	r4, [r3, #24]
 80022b8:	69db      	ldr	r3, [r3, #28]
 80022ba:	4f17      	ldr	r7, [pc, #92]	; (8002318 <usbd_int_epout.isra.0+0x68>)
 80022bc:	f8df 905c 	ldr.w	r9, [pc, #92]	; 800231c <usbd_int_epout.isra.0+0x6c>
 80022c0:	401c      	ands	r4, r3
 80022c2:	4605      	mov	r5, r0
 80022c4:	f3c4 4405 	ubfx	r4, r4, #16, #6
 80022c8:	f04f 0a00 	mov.w	sl, #0
 80022cc:	f04f 0808 	mov.w	r8, #8
 80022d0:	fa5f f18a 	uxtb.w	r1, sl
 80022d4:	b914      	cbnz	r4, 80022dc <usbd_int_epout.isra.0+0x2c>
 80022d6:	b002      	add	sp, #8
 80022d8:	e8bd 87f0 	ldmia.w	sp!, {r4, r5, r6, r7, r8, r9, sl, pc}
 80022dc:	07e0      	lsls	r0, r4, #31
 80022de:	d516      	bpl.n	800230e <usbd_int_epout.isra.0+0x5e>
 80022e0:	eb05 0681 	add.w	r6, r5, r1, lsl #2
 80022e4:	696a      	ldr	r2, [r5, #20]
 80022e6:	6b70      	ldr	r0, [r6, #52]	; 0x34
 80022e8:	6883      	ldr	r3, [r0, #8]
 80022ea:	6952      	ldr	r2, [r2, #20]
 80022ec:	4013      	ands	r3, r2
 80022ee:	9301      	str	r3, [sp, #4]
 80022f0:	9b01      	ldr	r3, [sp, #4]
 80022f2:	07da      	lsls	r2, r3, #31
 80022f4:	d503      	bpl.n	80022fe <usbd_int_epout.isra.0+0x4e>
 80022f6:	2301      	movs	r3, #1
 80022f8:	6083      	str	r3, [r0, #8]
 80022fa:	4628      	mov	r0, r5
 80022fc:	47c8      	blx	r9
 80022fe:	9b01      	ldr	r3, [sp, #4]
 8002300:	071b      	lsls	r3, r3, #28
 8002302:	d504      	bpl.n	800230e <usbd_int_epout.isra.0+0x5e>
 8002304:	4628      	mov	r0, r5
 8002306:	47b8      	blx	r7
 8002308:	6b73      	ldr	r3, [r6, #52]	; 0x34
 800230a:	f8c3 8008 	str.w	r8, [r3, #8]
 800230e:	0864      	lsrs	r4, r4, #1
 8002310:	f10a 0a01 	add.w	sl, sl, #1
 8002314:	e7dc      	b.n	80022d0 <usbd_int_epout.isra.0+0x20>
 8002316:	bf00      	nop
 8002318:	2a99      	cmp	r2, #153	; 0x99
 800231a:	0800      	lsrs	r0, r0, #32
 800231c:	2b1d      	cmp	r3, #29
 800231e:	0800      	lsrs	r0, r0, #32

08002320 <usbd_isr>:
 8002320:	b538      	push	{r3, r4, r5, lr}
 8002322:	6903      	ldr	r3, [r0, #16]
 8002324:	695a      	ldr	r2, [r3, #20]
 8002326:	07d2      	lsls	r2, r2, #31
 8002328:	4604      	mov	r4, r0
 800232a:	d44c      	bmi.n	80023c6 <usbd_isr+0xa6>
 800232c:	695d      	ldr	r5, [r3, #20]
 800232e:	699b      	ldr	r3, [r3, #24]
 8002330:	401d      	ands	r5, r3
 8002332:	d048      	beq.n	80023c6 <usbd_isr+0xa6>
 8002334:	032b      	lsls	r3, r5, #12
 8002336:	d501      	bpl.n	800233c <usbd_isr+0x1c>
 8002338:	4b23      	ldr	r3, [pc, #140]	; (80023c8 <usbd_isr+0xa8>)
 800233a:	4798      	blx	r3
 800233c:	0368      	lsls	r0, r5, #13
 800233e:	d502      	bpl.n	8002346 <usbd_isr+0x26>
 8002340:	4b22      	ldr	r3, [pc, #136]	; (80023cc <usbd_isr+0xac>)
 8002342:	4620      	mov	r0, r4
 8002344:	4798      	blx	r3
 8002346:	0529      	lsls	r1, r5, #20
 8002348:	d502      	bpl.n	8002350 <usbd_isr+0x30>
 800234a:	4b21      	ldr	r3, [pc, #132]	; (80023d0 <usbd_isr+0xb0>)
 800234c:	4620      	mov	r0, r4
 800234e:	4798      	blx	r3
 8002350:	2d00      	cmp	r5, #0
 8002352:	da06      	bge.n	8002362 <usbd_isr+0x42>
 8002354:	2303      	movs	r3, #3
 8002356:	f884 30ce 	strb.w	r3, [r4, #206]	; 0xce
 800235a:	6923      	ldr	r3, [r4, #16]
 800235c:	f04f 4200 	mov.w	r2, #2147483648	; 0x80000000
 8002360:	615a      	str	r2, [r3, #20]
 8002362:	072a      	lsls	r2, r5, #28
 8002364:	d508      	bpl.n	8002378 <usbd_isr+0x58>
 8002366:	f8d4 33b4 	ldr.w	r3, [r4, #948]	; 0x3b4
 800236a:	6a5b      	ldr	r3, [r3, #36]	; 0x24
 800236c:	b10b      	cbz	r3, 8002372 <usbd_isr+0x52>
 800236e:	4620      	mov	r0, r4
 8002370:	4798      	blx	r3
 8002372:	6923      	ldr	r3, [r4, #16]
 8002374:	2208      	movs	r2, #8
 8002376:	615a      	str	r2, [r3, #20]
 8002378:	06eb      	lsls	r3, r5, #27
 800237a:	d502      	bpl.n	8002382 <usbd_isr+0x62>
 800237c:	4b15      	ldr	r3, [pc, #84]	; (80023d4 <usbd_isr+0xb4>)
 800237e:	4620      	mov	r0, r4
 8002380:	4798      	blx	r3
 8002382:	04e8      	lsls	r0, r5, #19
 8002384:	d502      	bpl.n	800238c <usbd_isr+0x6c>
 8002386:	4b14      	ldr	r3, [pc, #80]	; (80023d8 <usbd_isr+0xb8>)
 8002388:	4620      	mov	r0, r4
 800238a:	4798      	blx	r3
 800238c:	04a9      	lsls	r1, r5, #18
 800238e:	d502      	bpl.n	8002396 <usbd_isr+0x76>
 8002390:	4b12      	ldr	r3, [pc, #72]	; (80023dc <usbd_isr+0xbc>)
 8002392:	4620      	mov	r0, r4
 8002394:	4798      	blx	r3
 8002396:	02ea      	lsls	r2, r5, #11
 8002398:	d509      	bpl.n	80023ae <usbd_isr+0x8e>
 800239a:	f8d4 33b4 	ldr.w	r3, [r4, #948]	; 0x3b4
 800239e:	6a9b      	ldr	r3, [r3, #40]	; 0x28
 80023a0:	b10b      	cbz	r3, 80023a6 <usbd_isr+0x86>
 80023a2:	4620      	mov	r0, r4
 80023a4:	4798      	blx	r3
 80023a6:	6923      	ldr	r3, [r4, #16]
 80023a8:	f44f 1280 	mov.w	r2, #1048576	; 0x100000
 80023ac:	615a      	str	r2, [r3, #20]
 80023ae:	02ab      	lsls	r3, r5, #10
 80023b0:	d509      	bpl.n	80023c6 <usbd_isr+0xa6>
 80023b2:	f8d4 33b4 	ldr.w	r3, [r4, #948]	; 0x3b4
 80023b6:	6adb      	ldr	r3, [r3, #44]	; 0x2c
 80023b8:	b10b      	cbz	r3, 80023be <usbd_isr+0x9e>
 80023ba:	4620      	mov	r0, r4
 80023bc:	4798      	blx	r3
 80023be:	6923      	ldr	r3, [r4, #16]
 80023c0:	f44f 1200 	mov.w	r2, #2097152	; 0x200000
 80023c4:	615a      	str	r2, [r3, #20]
 80023c6:	bd38      	pop	{r3, r4, r5, pc}
 80023c8:	22b1      	movs	r2, #177	; 0xb1
 80023ca:	0800      	lsrs	r0, r0, #32
 80023cc:	21a1      	movs	r1, #161	; 0xa1
 80023ce:	0800      	lsrs	r0, r0, #32
 80023d0:	1f8d      	subs	r5, r1, #6
 80023d2:	0800      	lsrs	r0, r0, #32
 80023d4:	2101      	movs	r1, #1
 80023d6:	0800      	lsrs	r0, r0, #32
 80023d8:	2045      	movs	r0, #69	; 0x45
 80023da:	0800      	lsrs	r0, r0, #32
 80023dc:	1ff9      	subs	r1, r7, #7
 80023de:	0800      	lsrs	r0, r0, #32

080023e0 <usb_core_reset.isra.0>:
 80023e0:	6903      	ldr	r3, [r0, #16]
 80023e2:	f043 0301 	orr.w	r3, r3, #1
 80023e6:	6103      	str	r3, [r0, #16]
 80023e8:	6903      	ldr	r3, [r0, #16]
 80023ea:	07db      	lsls	r3, r3, #31
 80023ec:	d4fc      	bmi.n	80023e8 <usb_core_reset.isra.0+0x8>
 80023ee:	4b01      	ldr	r3, [pc, #4]	; (80023f4 <usb_core_reset.isra.0+0x14>)
 80023f0:	2003      	movs	r0, #3
 80023f2:	4718      	bx	r3
 80023f4:	17f5      	asrs	r5, r6, #31
 80023f6:	0800      	lsrs	r0, r0, #32

080023f8 <usb_basic_init>:
 80023f8:	b570      	push	{r4, r5, r6, lr}
 80023fa:	460b      	mov	r3, r1
 80023fc:	2400      	movs	r4, #0
 80023fe:	2102      	movs	r1, #2
 8002400:	2a01      	cmp	r2, #1
 8002402:	7104      	strb	r4, [r0, #4]
 8002404:	7041      	strb	r1, [r0, #1]
 8002406:	7002      	strb	r2, [r0, #0]
 8002408:	d161      	bne.n	80024ce <usb_basic_init+0xd6>
 800240a:	f04f 45a0 	mov.w	r5, #1342177280	; 0x50000000
 800240e:	f44f 6681 	mov.w	r6, #1032	; 0x408
 8002412:	8046      	strh	r6, [r0, #2]
 8002414:	7141      	strb	r1, [r0, #5]
 8002416:	80c2      	strh	r2, [r0, #6]
 8002418:	60c5      	str	r5, [r0, #12]
 800241a:	22bc      	movs	r2, #188	; 0xbc
 800241c:	4e2d      	ldr	r6, [pc, #180]	; (80024d4 <usb_basic_init+0xdc>)
 800241e:	4621      	mov	r1, r4
 8002420:	4618      	mov	r0, r3
 8002422:	47b0      	blx	r6
 8002424:	4a2c      	ldr	r2, [pc, #176]	; (80024d8 <usb_basic_init+0xe0>)
 8002426:	6042      	str	r2, [r0, #4]
 8002428:	f5a2 6280 	sub.w	r2, r2, #1024	; 0x400
 800242c:	6082      	str	r2, [r0, #8]
 800242e:	3240      	adds	r2, #64	; 0x40
 8002430:	6782      	str	r2, [r0, #120]	; 0x78
 8002432:	f502 621c 	add.w	r2, r2, #2496	; 0x9c0
 8002436:	f8c0 20b8 	str.w	r2, [r0, #184]	; 0xb8
 800243a:	f5a2 62a0 	sub.w	r2, r2, #1280	; 0x500
 800243e:	60c2      	str	r2, [r0, #12]
 8002440:	f502 7200 	add.w	r2, r2, #512	; 0x200
 8002444:	6242      	str	r2, [r0, #36]	; 0x24
 8002446:	f5a2 72f0 	sub.w	r2, r2, #480	; 0x1e0
 800244a:	6102      	str	r2, [r0, #16]
 800244c:	f502 7200 	add.w	r2, r2, #512	; 0x200
 8002450:	6282      	str	r2, [r0, #40]	; 0x28
 8002452:	f5a2 72f0 	sub.w	r2, r2, #480	; 0x1e0
 8002456:	6142      	str	r2, [r0, #20]
 8002458:	f502 7200 	add.w	r2, r2, #512	; 0x200
 800245c:	62c2      	str	r2, [r0, #44]	; 0x2c
 800245e:	f5a2 72f0 	sub.w	r2, r2, #480	; 0x1e0
 8002462:	6182      	str	r2, [r0, #24]
 8002464:	f502 7200 	add.w	r2, r2, #512	; 0x200
 8002468:	6302      	str	r2, [r0, #48]	; 0x30
 800246a:	f5a2 62cc 	sub.w	r2, r2, #1632	; 0x660
 800246e:	63c2      	str	r2, [r0, #60]	; 0x3c
 8002470:	f502 6230 	add.w	r2, r2, #2816	; 0xb00
 8002474:	67c2      	str	r2, [r0, #124]	; 0x7c
 8002476:	f5a2 622e 	sub.w	r2, r2, #2784	; 0xae0
 800247a:	6402      	str	r2, [r0, #64]	; 0x40
 800247c:	f502 52d7 	add.w	r2, r2, #6880	; 0x1ae0
 8002480:	f8c0 2080 	str.w	r2, [r0, #128]	; 0x80
 8002484:	f5a2 52d6 	sub.w	r2, r2, #6848	; 0x1ac0
 8002488:	6442      	str	r2, [r0, #68]	; 0x44
 800248a:	f502 522b 	add.w	r2, r2, #10944	; 0x2ac0
 800248e:	f8c0 2084 	str.w	r2, [r0, #132]	; 0x84
 8002492:	4a12      	ldr	r2, [pc, #72]	; (80024dc <usb_basic_init+0xe4>)
 8002494:	6482      	str	r2, [r0, #72]	; 0x48
 8002496:	4a12      	ldr	r2, [pc, #72]	; (80024e0 <usb_basic_init+0xe8>)
 8002498:	f8c0 2088 	str.w	r2, [r0, #136]	; 0x88
 800249c:	f5a2 526a 	sub.w	r2, r2, #14976	; 0x3a80
 80024a0:	64c2      	str	r2, [r0, #76]	; 0x4c
 80024a2:	f04f 2250 	mov.w	r2, #1342197760	; 0x50005000
 80024a6:	f8c0 208c 	str.w	r2, [r0, #140]	; 0x8c
 80024aa:	4a0e      	ldr	r2, [pc, #56]	; (80024e4 <usb_basic_init+0xec>)
 80024ac:	6502      	str	r2, [r0, #80]	; 0x50
 80024ae:	4a0e      	ldr	r2, [pc, #56]	; (80024e8 <usb_basic_init+0xf0>)
 80024b0:	f8c0 2090 	str.w	r2, [r0, #144]	; 0x90
 80024b4:	4a0d      	ldr	r2, [pc, #52]	; (80024ec <usb_basic_init+0xf4>)
 80024b6:	6542      	str	r2, [r0, #84]	; 0x54
 80024b8:	4a0d      	ldr	r2, [pc, #52]	; (80024f0 <usb_basic_init+0xf8>)
 80024ba:	f8c0 2094 	str.w	r2, [r0, #148]	; 0x94
 80024be:	4a0d      	ldr	r2, [pc, #52]	; (80024f4 <usb_basic_init+0xfc>)
 80024c0:	6582      	str	r2, [r0, #88]	; 0x58
 80024c2:	4a0d      	ldr	r2, [pc, #52]	; (80024f8 <usb_basic_init+0x100>)
 80024c4:	6005      	str	r5, [r0, #0]
 80024c6:	f8c0 2098 	str.w	r2, [r0, #152]	; 0x98
 80024ca:	4620      	mov	r0, r4
 80024cc:	bd70      	pop	{r4, r5, r6, pc}
 80024ce:	2001      	movs	r0, #1
 80024d0:	e7fc      	b.n	80024cc <usb_basic_init+0xd4>
 80024d2:	bf00      	nop
 80024d4:	7055      	strb	r5, [r2, #1]
 80024d6:	0800      	lsrs	r0, r0, #32
 80024d8:	0800      	lsrs	r0, r0, #32
 80024da:	5000      	str	r0, [r0, r0]
 80024dc:	0560      	lsls	r0, r4, #21
 80024de:	5000      	str	r0, [r0, r0]
 80024e0:	4000      	ands	r0, r0
 80024e2:	5000      	str	r0, [r0, r0]
 80024e4:	05a0      	lsls	r0, r4, #22
 80024e6:	5000      	str	r0, [r0, r0]
 80024e8:	6000      	str	r0, [r0, #0]
 80024ea:	5000      	str	r0, [r0, r0]
 80024ec:	05c0      	lsls	r0, r0, #23
 80024ee:	5000      	str	r0, [r0, r0]
 80024f0:	7000      	strb	r0, [r0, #0]
 80024f2:	5000      	str	r0, [r0, r0]
 80024f4:	05e0      	lsls	r0, r4, #23
 80024f6:	5000      	str	r0, [r0, r0]
 80024f8:	8000      	strh	r0, [r0, #0]
 80024fa:	5000      	str	r0, [r0, r0]

080024fc <usb_core_init>:
 80024fc:	b530      	push	{r4, r5, lr}
 80024fe:	b085      	sub	sp, #20
 8002500:	ac04      	add	r4, sp, #16
 8002502:	e904 000f 	stmdb	r4, {r0, r1, r2, r3}
 8002506:	f89d 3005 	ldrb.w	r3, [sp, #5]
 800250a:	9d08      	ldr	r5, [sp, #32]
 800250c:	f89d 4006 	ldrb.w	r4, [sp, #6]
 8002510:	6828      	ldr	r0, [r5, #0]
 8002512:	4a18      	ldr	r2, [pc, #96]	; (8002574 <usb_core_init+0x78>)
 8002514:	2b01      	cmp	r3, #1
 8002516:	d116      	bne.n	8002546 <usb_core_init+0x4a>
 8002518:	6b83      	ldr	r3, [r0, #56]	; 0x38
 800251a:	f423 3380 	bic.w	r3, r3, #65536	; 0x10000
 800251e:	6383      	str	r3, [r0, #56]	; 0x38
 8002520:	b11c      	cbz	r4, 800252a <usb_core_init+0x2e>
 8002522:	6b83      	ldr	r3, [r0, #56]	; 0x38
 8002524:	f443 1380 	orr.w	r3, r3, #1048576	; 0x100000
 8002528:	6383      	str	r3, [r0, #56]	; 0x38
 800252a:	68c3      	ldr	r3, [r0, #12]
 800252c:	f423 1300 	bic.w	r3, r3, #2097152	; 0x200000
 8002530:	f023 0340 	bic.w	r3, r3, #64	; 0x40
 8002534:	60c3      	str	r3, [r0, #12]
 8002536:	68c3      	ldr	r3, [r0, #12]
 8002538:	f423 1380 	bic.w	r3, r3, #1048576	; 0x100000
 800253c:	60c3      	str	r3, [r0, #12]
 800253e:	4790      	blx	r2
 8002540:	2000      	movs	r0, #0
 8002542:	b005      	add	sp, #20
 8002544:	bd30      	pop	{r4, r5, pc}
 8002546:	68c3      	ldr	r3, [r0, #12]
 8002548:	f043 0340 	orr.w	r3, r3, #64	; 0x40
 800254c:	60c3      	str	r3, [r0, #12]
 800254e:	4790      	blx	r2
 8002550:	682b      	ldr	r3, [r5, #0]
 8002552:	6b9a      	ldr	r2, [r3, #56]	; 0x38
 8002554:	f442 2250 	orr.w	r2, r2, #851968	; 0xd0000
 8002558:	639a      	str	r2, [r3, #56]	; 0x38
 800255a:	6b9a      	ldr	r2, [r3, #56]	; 0x38
 800255c:	f442 1200 	orr.w	r2, r2, #2097152	; 0x200000
 8002560:	639a      	str	r2, [r3, #56]	; 0x38
 8002562:	b11c      	cbz	r4, 800256c <usb_core_init+0x70>
 8002564:	6b9a      	ldr	r2, [r3, #56]	; 0x38
 8002566:	f442 1280 	orr.w	r2, r2, #1048576	; 0x100000
 800256a:	639a      	str	r2, [r3, #56]	; 0x38
 800256c:	4b02      	ldr	r3, [pc, #8]	; (8002578 <usb_core_init+0x7c>)
 800256e:	2014      	movs	r0, #20
 8002570:	4798      	blx	r3
 8002572:	e7e5      	b.n	8002540 <usb_core_init+0x44>
 8002574:	23e1      	movs	r3, #225	; 0xe1
 8002576:	0800      	lsrs	r0, r0, #32
 8002578:	17e1      	asrs	r1, r4, #31
 800257a:	0800      	lsrs	r0, r0, #32

0800257c <usb_txfifo_write>:
 800257c:	eb00 0082 	add.w	r0, r0, r2, lsl #2
 8002580:	3303      	adds	r3, #3
 8002582:	089b      	lsrs	r3, r3, #2
 8002584:	6fc2      	ldr	r2, [r0, #124]	; 0x7c
 8002586:	eb01 0383 	add.w	r3, r1, r3, lsl #2
 800258a:	4299      	cmp	r1, r3
 800258c:	d101      	bne.n	8002592 <usb_txfifo_write+0x16>
 800258e:	2000      	movs	r0, #0
 8002590:	4770      	bx	lr
 8002592:	f851 0b04 	ldr.w	r0, [r1], #4
 8002596:	6010      	str	r0, [r2, #0]
 8002598:	e7f7      	b.n	800258a <usb_txfifo_write+0xe>

0800259a <usb_rxfifo_read>:
 800259a:	3203      	adds	r2, #3
 800259c:	0892      	lsrs	r2, r2, #2
 800259e:	6fc3      	ldr	r3, [r0, #124]	; 0x7c
 80025a0:	eb01 0282 	add.w	r2, r1, r2, lsl #2
 80025a4:	4291      	cmp	r1, r2
 80025a6:	d101      	bne.n	80025ac <usb_rxfifo_read+0x12>
 80025a8:	4608      	mov	r0, r1
 80025aa:	4770      	bx	lr
 80025ac:	6818      	ldr	r0, [r3, #0]
 80025ae:	f841 0b04 	str.w	r0, [r1], #4
 80025b2:	e7f7      	b.n	80025a4 <usb_rxfifo_read+0xa>

080025b4 <usb_txfifo_flush>:
 80025b4:	6803      	ldr	r3, [r0, #0]
 80025b6:	0189      	lsls	r1, r1, #6
 80025b8:	f041 0120 	orr.w	r1, r1, #32
 80025bc:	b510      	push	{r4, lr}
 80025be:	6119      	str	r1, [r3, #16]
 80025c0:	691c      	ldr	r4, [r3, #16]
 80025c2:	f014 0420 	ands.w	r4, r4, #32
 80025c6:	d1fb      	bne.n	80025c0 <usb_txfifo_flush+0xc>
 80025c8:	4b02      	ldr	r3, [pc, #8]	; (80025d4 <usb_txfifo_flush+0x20>)
 80025ca:	2003      	movs	r0, #3
 80025cc:	4798      	blx	r3
 80025ce:	4620      	mov	r0, r4
 80025d0:	bd10      	pop	{r4, pc}
 80025d2:	bf00      	nop
 80025d4:	17f5      	asrs	r5, r6, #31
 80025d6:	0800      	lsrs	r0, r0, #32

080025d8 <usb_rxfifo_flush>:
 80025d8:	6803      	ldr	r3, [r0, #0]
 80025da:	2210      	movs	r2, #16
 80025dc:	b510      	push	{r4, lr}
 80025de:	611a      	str	r2, [r3, #16]
 80025e0:	691c      	ldr	r4, [r3, #16]
 80025e2:	f014 0410 	ands.w	r4, r4, #16
 80025e6:	d1fb      	bne.n	80025e0 <usb_rxfifo_flush+0x8>
 80025e8:	4b02      	ldr	r3, [pc, #8]	; (80025f4 <usb_rxfifo_flush+0x1c>)
 80025ea:	2003      	movs	r0, #3
 80025ec:	4798      	blx	r3
 80025ee:	4620      	mov	r0, r4
 80025f0:	bd10      	pop	{r4, pc}
 80025f2:	bf00      	nop
 80025f4:	17f5      	asrs	r5, r6, #31
 80025f6:	0800      	lsrs	r0, r0, #32

080025f8 <usb_set_txfifo>:
 80025f8:	6800      	ldr	r0, [r0, #0]
 80025fa:	b570      	push	{r4, r5, r6, lr}
 80025fc:	0412      	lsls	r2, r2, #16
 80025fe:	6a44      	ldr	r4, [r0, #36]	; 0x24
 8002600:	b911      	cbnz	r1, 8002608 <usb_set_txfifo+0x10>
 8002602:	4322      	orrs	r2, r4
 8002604:	6282      	str	r2, [r0, #40]	; 0x28
 8002606:	bd70      	pop	{r4, r5, r6, pc}
 8002608:	6a83      	ldr	r3, [r0, #40]	; 0x28
 800260a:	1e4d      	subs	r5, r1, #1
 800260c:	eb04 4413 	add.w	r4, r4, r3, lsr #16
 8002610:	2300      	movs	r3, #0
 8002612:	1c5e      	adds	r6, r3, #1
 8002614:	b2db      	uxtb	r3, r3
 8002616:	429d      	cmp	r5, r3
 8002618:	d805      	bhi.n	8002626 <usb_set_txfifo+0x2e>
 800261a:	313f      	adds	r1, #63	; 0x3f
 800261c:	eb00 0081 	add.w	r0, r0, r1, lsl #2
 8002620:	4322      	orrs	r2, r4
 8002622:	6042      	str	r2, [r0, #4]
 8002624:	e7ef      	b.n	8002606 <usb_set_txfifo+0xe>
 8002626:	3340      	adds	r3, #64	; 0x40
 8002628:	eb00 0383 	add.w	r3, r0, r3, lsl #2
 800262c:	685b      	ldr	r3, [r3, #4]
 800262e:	eb04 4413 	add.w	r4, r4, r3, lsr #16
 8002632:	4633      	mov	r3, r6
 8002634:	e7ed      	b.n	8002612 <usb_set_txfifo+0x1a>

08002636 <usb_curmode_set>:
 8002636:	6803      	ldr	r3, [r0, #0]
 8002638:	68da      	ldr	r2, [r3, #12]
 800263a:	f022 42c0 	bic.w	r2, r2, #1610612736	; 0x60000000
 800263e:	60da      	str	r2, [r3, #12]
 8002640:	b921      	cbnz	r1, 800264c <usb_curmode_set+0x16>
 8002642:	68da      	ldr	r2, [r3, #12]
 8002644:	f042 4280 	orr.w	r2, r2, #1073741824	; 0x40000000
 8002648:	60da      	str	r2, [r3, #12]
 800264a:	4770      	bx	lr
 800264c:	2901      	cmp	r1, #1
 800264e:	d1fc      	bne.n	800264a <usb_curmode_set+0x14>
 8002650:	68da      	ldr	r2, [r3, #12]
 8002652:	f042 5200 	orr.w	r2, r2, #536870912	; 0x20000000
 8002656:	e7f7      	b.n	8002648 <usb_curmode_set+0x12>

08002658 <usb_devint_enable>:
 8002658:	6903      	ldr	r3, [r0, #16]
 800265a:	f04f 32ff 	mov.w	r2, #4294967295
 800265e:	605a      	str	r2, [r3, #4]
 8002660:	f06f 4280 	mvn.w	r2, #1073741824	; 0x40000000
 8002664:	615a      	str	r2, [r3, #20]
 8002666:	4a07      	ldr	r2, [pc, #28]	; (8002684 <usb_devint_enable+0x2c>)
 8002668:	619a      	str	r2, [r3, #24]
 800266a:	7902      	ldrb	r2, [r0, #4]
 800266c:	b91a      	cbnz	r2, 8002676 <usb_devint_enable+0x1e>
 800266e:	699a      	ldr	r2, [r3, #24]
 8002670:	f042 0210 	orr.w	r2, r2, #16
 8002674:	619a      	str	r2, [r3, #24]
 8002676:	6999      	ldr	r1, [r3, #24]
 8002678:	4a03      	ldr	r2, [pc, #12]	; (8002688 <usb_devint_enable+0x30>)
 800267a:	430a      	orrs	r2, r1
 800267c:	619a      	str	r2, [r3, #24]
 800267e:	2000      	movs	r0, #0
 8002680:	4770      	bx	lr
 8002682:	bf00      	nop
 8002684:	0800      	lsrs	r0, r0, #32
 8002686:	8000      	strh	r0, [r0, #0]
 8002688:	3008      	adds	r0, #8
 800268a:	003c      	movs	r4, r7

0800268c <usb_devcore_init>:
 800268c:	b5f8      	push	{r3, r4, r5, r6, r7, lr}
 800268e:	f8d0 30c8 	ldr.w	r3, [r0, #200]	; 0xc8
 8002692:	2100      	movs	r1, #0
 8002694:	6019      	str	r1, [r3, #0]
 8002696:	6943      	ldr	r3, [r0, #20]
 8002698:	681a      	ldr	r2, [r3, #0]
 800269a:	f422 52c0 	bic.w	r2, r2, #6144	; 0x1800
 800269e:	601a      	str	r2, [r3, #0]
 80026a0:	681a      	ldr	r2, [r3, #0]
 80026a2:	601a      	str	r2, [r3, #0]
 80026a4:	681a      	ldr	r2, [r3, #0]
 80026a6:	4605      	mov	r5, r0
 80026a8:	f022 0203 	bic.w	r2, r2, #3
 80026ac:	601a      	str	r2, [r3, #0]
 80026ae:	f815 7b10 	ldrb.w	r7, [r5], #16
 80026b2:	2f01      	cmp	r7, #1
 80026b4:	4604      	mov	r4, r0
 80026b6:	d116      	bne.n	80026e6 <usb_devcore_init+0x5a>
 80026b8:	681a      	ldr	r2, [r3, #0]
 80026ba:	4e28      	ldr	r6, [pc, #160]	; (800275c <usb_devcore_init+0xd0>)
 80026bc:	f042 0203 	orr.w	r2, r2, #3
 80026c0:	601a      	str	r2, [r3, #0]
 80026c2:	6903      	ldr	r3, [r0, #16]
 80026c4:	2280      	movs	r2, #128	; 0x80
 80026c6:	625a      	str	r2, [r3, #36]	; 0x24
 80026c8:	4628      	mov	r0, r5
 80026ca:	2220      	movs	r2, #32
 80026cc:	47b0      	blx	r6
 80026ce:	2220      	movs	r2, #32
 80026d0:	4639      	mov	r1, r7
 80026d2:	4628      	mov	r0, r5
 80026d4:	47b0      	blx	r6
 80026d6:	2220      	movs	r2, #32
 80026d8:	2102      	movs	r1, #2
 80026da:	4628      	mov	r0, r5
 80026dc:	47b0      	blx	r6
 80026de:	2220      	movs	r2, #32
 80026e0:	2103      	movs	r1, #3
 80026e2:	4628      	mov	r0, r5
 80026e4:	47b0      	blx	r6
 80026e6:	2110      	movs	r1, #16
 80026e8:	4b1d      	ldr	r3, [pc, #116]	; (8002760 <usb_devcore_init+0xd4>)
 80026ea:	4628      	mov	r0, r5
 80026ec:	4798      	blx	r3
 80026ee:	4b1d      	ldr	r3, [pc, #116]	; (8002764 <usb_devcore_init+0xd8>)
 80026f0:	4628      	mov	r0, r5
 80026f2:	4798      	blx	r3
 80026f4:	6961      	ldr	r1, [r4, #20]
 80026f6:	2300      	movs	r3, #0
 80026f8:	f04f 32ff 	mov.w	r2, #4294967295
 80026fc:	610b      	str	r3, [r1, #16]
 80026fe:	614b      	str	r3, [r1, #20]
 8002700:	618a      	str	r2, [r1, #24]
 8002702:	61cb      	str	r3, [r1, #28]
 8002704:	f894 c003 	ldrb.w	ip, [r4, #3]
 8002708:	f104 051c 	add.w	r5, r4, #28
 800270c:	4618      	mov	r0, r3
 800270e:	27ff      	movs	r7, #255	; 0xff
 8002710:	b2da      	uxtb	r2, r3
 8002712:	4594      	cmp	ip, r2
 8002714:	d808      	bhi.n	8002728 <usb_devcore_init+0x9c>
 8002716:	690b      	ldr	r3, [r1, #16]
 8002718:	f043 0310 	orr.w	r3, r3, #16
 800271c:	610b      	str	r3, [r1, #16]
 800271e:	4620      	mov	r0, r4
 8002720:	4b11      	ldr	r3, [pc, #68]	; (8002768 <usb_devcore_init+0xdc>)
 8002722:	4798      	blx	r3
 8002724:	2000      	movs	r0, #0
 8002726:	bdf8      	pop	{r3, r4, r5, r6, r7, pc}
 8002728:	f855 2b04 	ldr.w	r2, [r5], #4
 800272c:	6816      	ldr	r6, [r2, #0]
 800272e:	2e00      	cmp	r6, #0
 8002730:	bfb7      	itett	lt
 8002732:	6816      	ldrlt	r6, [r2, #0]
 8002734:	6010      	strge	r0, [r2, #0]
 8002736:	f046 4690 	orrlt.w	r6, r6, #1207959552	; 0x48000000
 800273a:	6016      	strlt	r6, [r2, #0]
 800273c:	6110      	str	r0, [r2, #16]
 800273e:	6097      	str	r7, [r2, #8]
 8002740:	696a      	ldr	r2, [r5, #20]
 8002742:	6816      	ldr	r6, [r2, #0]
 8002744:	2e00      	cmp	r6, #0
 8002746:	bfb7      	itett	lt
 8002748:	6816      	ldrlt	r6, [r2, #0]
 800274a:	6010      	strge	r0, [r2, #0]
 800274c:	f046 4690 	orrlt.w	r6, r6, #1207959552	; 0x48000000
 8002750:	6016      	strlt	r6, [r2, #0]
 8002752:	3301      	adds	r3, #1
 8002754:	6110      	str	r0, [r2, #16]
 8002756:	6097      	str	r7, [r2, #8]
 8002758:	e7da      	b.n	8002710 <usb_devcore_init+0x84>
 800275a:	bf00      	nop
 800275c:	25f9      	movs	r5, #249	; 0xf9
 800275e:	0800      	lsrs	r0, r0, #32
 8002760:	25b5      	movs	r5, #181	; 0xb5
 8002762:	0800      	lsrs	r0, r0, #32
 8002764:	25d9      	movs	r5, #217	; 0xd9
 8002766:	0800      	lsrs	r0, r0, #32
 8002768:	2659      	movs	r6, #89	; 0x59
 800276a:	0800      	lsrs	r0, r0, #32

0800276c <usb_transc_active>:
 800276c:	780b      	ldrb	r3, [r1, #0]
 800276e:	f991 2000 	ldrsb.w	r2, [r1]
 8002772:	f003 030f 	and.w	r3, r3, #15
 8002776:	b5f0      	push	{r4, r5, r6, r7, lr}
 8002778:	6944      	ldr	r4, [r0, #20]
 800277a:	eb00 0083 	add.w	r0, r0, r3, lsl #2
 800277e:	2a00      	cmp	r2, #0
 8002780:	bfb4      	ite	lt
 8002782:	69c2      	ldrlt	r2, [r0, #28]
 8002784:	6b42      	ldrge	r2, [r0, #52]	; 0x34
 8002786:	68a6      	ldr	r6, [r4, #8]
 8002788:	bfa2      	ittt	ge
 800278a:	2501      	movge	r5, #1
 800278c:	f103 0010 	addge.w	r0, r3, #16
 8002790:	fa05 f000 	lslge.w	r0, r5, r0
 8002794:	6815      	ldr	r5, [r2, #0]
 8002796:	bfbc      	itt	lt
 8002798:	2001      	movlt	r0, #1
 800279a:	4098      	lsllt	r0, r3
 800279c:	042d      	lsls	r5, r5, #16
 800279e:	d416      	bmi.n	80027ce <usb_transc_active+0x62>
 80027a0:	6817      	ldr	r7, [r2, #0]
 80027a2:	4d0f      	ldr	r5, [pc, #60]	; (80027e0 <usb_transc_active+0x74>)
 80027a4:	403d      	ands	r5, r7
 80027a6:	6015      	str	r5, [r2, #0]
 80027a8:	b9b3      	cbnz	r3, 80027d8 <usb_transc_active+0x6c>
 80027aa:	4d0e      	ldr	r5, [pc, #56]	; (80027e4 <usb_transc_active+0x78>)
 80027ac:	6817      	ldr	r7, [r2, #0]
 80027ae:	f006 0606 	and.w	r6, r6, #6
 80027b2:	5dad      	ldrb	r5, [r5, r6]
 80027b4:	433d      	orrs	r5, r7
 80027b6:	6015      	str	r5, [r2, #0]
 80027b8:	7849      	ldrb	r1, [r1, #1]
 80027ba:	6815      	ldr	r5, [r2, #0]
 80027bc:	059b      	lsls	r3, r3, #22
 80027be:	ea43 4381 	orr.w	r3, r3, r1, lsl #18
 80027c2:	432b      	orrs	r3, r5
 80027c4:	f043 5380 	orr.w	r3, r3, #268435456	; 0x10000000
 80027c8:	f443 4300 	orr.w	r3, r3, #32768	; 0x8000
 80027cc:	6013      	str	r3, [r2, #0]
 80027ce:	69e3      	ldr	r3, [r4, #28]
 80027d0:	4318      	orrs	r0, r3
 80027d2:	61e0      	str	r0, [r4, #28]
 80027d4:	2000      	movs	r0, #0
 80027d6:	bdf0      	pop	{r4, r5, r6, r7, pc}
 80027d8:	6816      	ldr	r6, [r2, #0]
 80027da:	888d      	ldrh	r5, [r1, #4]
 80027dc:	4335      	orrs	r5, r6
 80027de:	e7ea      	b.n	80027b6 <usb_transc_active+0x4a>
 80027e0:	f800 fc33 	strb.w	pc, [r0, #-51]
 80027e4:	76a0      	strb	r0, [r4, #26]
 80027e6:	0800      	lsrs	r0, r0, #32

080027e8 <usb_transc_deactivate>:
 80027e8:	f991 2000 	ldrsb.w	r2, [r1]
 80027ec:	780b      	ldrb	r3, [r1, #0]
 80027ee:	2a00      	cmp	r2, #0
 80027f0:	f003 030f 	and.w	r3, r3, #15
 80027f4:	f04f 0201 	mov.w	r2, #1
 80027f8:	bfab      	itete	ge
 80027fa:	f103 0110 	addge.w	r1, r3, #16
 80027fe:	409a      	lsllt	r2, r3
 8002800:	eb00 0383 	addge.w	r3, r0, r3, lsl #2
 8002804:	eb00 0383 	addlt.w	r3, r0, r3, lsl #2
 8002808:	bfaa      	itet	ge
 800280a:	408a      	lslge	r2, r1
 800280c:	69d9      	ldrlt	r1, [r3, #28]
 800280e:	6b59      	ldrge	r1, [r3, #52]	; 0x34
 8002810:	680b      	ldr	r3, [r1, #0]
 8002812:	f423 4300 	bic.w	r3, r3, #32768	; 0x8000
 8002816:	600b      	str	r3, [r1, #0]
 8002818:	6941      	ldr	r1, [r0, #20]
 800281a:	69cb      	ldr	r3, [r1, #28]
 800281c:	ea23 0202 	bic.w	r2, r3, r2
 8002820:	61ca      	str	r2, [r1, #28]
 8002822:	2000      	movs	r0, #0
 8002824:	4770      	bx	lr
	...

08002828 <usb_transc_inxfer>:
 8002828:	780a      	ldrb	r2, [r1, #0]
 800282a:	f002 020f 	and.w	r2, r2, #15
 800282e:	b573      	push	{r0, r1, r4, r5, r6, lr}
 8002830:	eb00 0382 	add.w	r3, r0, r2, lsl #2
 8002834:	69dc      	ldr	r4, [r3, #28]
 8002836:	6823      	ldr	r3, [r4, #0]
 8002838:	9300      	str	r3, [sp, #0]
 800283a:	6923      	ldr	r3, [r4, #16]
 800283c:	9301      	str	r3, [sp, #4]
 800283e:	9b01      	ldr	r3, [sp, #4]
 8002840:	f003 4360 	and.w	r3, r3, #3758096384	; 0xe0000000
 8002844:	9301      	str	r3, [sp, #4]
 8002846:	68cb      	ldr	r3, [r1, #12]
 8002848:	bb4b      	cbnz	r3, 800289e <usb_transc_inxfer+0x76>
 800284a:	9b01      	ldr	r3, [sp, #4]
 800284c:	f443 2300 	orr.w	r3, r3, #524288	; 0x80000
 8002850:	9301      	str	r3, [sp, #4]
 8002852:	9b01      	ldr	r3, [sp, #4]
 8002854:	6123      	str	r3, [r4, #16]
 8002856:	784d      	ldrb	r5, [r1, #1]
 8002858:	2d01      	cmp	r5, #1
 800285a:	d10a      	bne.n	8002872 <usb_transc_inxfer+0x4a>
 800285c:	6943      	ldr	r3, [r0, #20]
 800285e:	689b      	ldr	r3, [r3, #8]
 8002860:	f413 7f80 	tst.w	r3, #256	; 0x100
 8002864:	9b00      	ldr	r3, [sp, #0]
 8002866:	bf14      	ite	ne
 8002868:	f043 5380 	orrne.w	r3, r3, #268435456	; 0x10000000
 800286c:	f043 5300 	orreq.w	r3, r3, #536870912	; 0x20000000
 8002870:	9300      	str	r3, [sp, #0]
 8002872:	9b00      	ldr	r3, [sp, #0]
 8002874:	f043 4304 	orr.w	r3, r3, #2214592512	; 0x84000000
 8002878:	9300      	str	r3, [sp, #0]
 800287a:	9b00      	ldr	r3, [sp, #0]
 800287c:	6023      	str	r3, [r4, #0]
 800287e:	7903      	ldrb	r3, [r0, #4]
 8002880:	b953      	cbnz	r3, 8002898 <usb_transc_inxfer+0x70>
 8002882:	2d01      	cmp	r5, #1
 8002884:	68cb      	ldr	r3, [r1, #12]
 8002886:	d027      	beq.n	80028d8 <usb_transc_inxfer+0xb0>
 8002888:	b133      	cbz	r3, 8002898 <usb_transc_inxfer+0x70>
 800288a:	6941      	ldr	r1, [r0, #20]
 800288c:	2301      	movs	r3, #1
 800288e:	6b48      	ldr	r0, [r1, #52]	; 0x34
 8002890:	fa03 f202 	lsl.w	r2, r3, r2
 8002894:	4302      	orrs	r2, r0
 8002896:	634a      	str	r2, [r1, #52]	; 0x34
 8002898:	2000      	movs	r0, #0
 800289a:	b002      	add	sp, #8
 800289c:	bd70      	pop	{r4, r5, r6, pc}
 800289e:	888e      	ldrh	r6, [r1, #4]
 80028a0:	b992      	cbnz	r2, 80028c8 <usb_transc_inxfer+0xa0>
 80028a2:	42b3      	cmp	r3, r6
 80028a4:	bf94      	ite	ls
 80028a6:	60cb      	strls	r3, [r1, #12]
 80028a8:	60ce      	strhi	r6, [r1, #12]
 80028aa:	9b01      	ldr	r3, [sp, #4]
 80028ac:	f443 2300 	orr.w	r3, r3, #524288	; 0x80000
 80028b0:	9301      	str	r3, [sp, #4]
 80028b2:	9b01      	ldr	r3, [sp, #4]
 80028b4:	68cd      	ldr	r5, [r1, #12]
 80028b6:	432b      	orrs	r3, r5
 80028b8:	9301      	str	r3, [sp, #4]
 80028ba:	784b      	ldrb	r3, [r1, #1]
 80028bc:	2b01      	cmp	r3, #1
 80028be:	d1c8      	bne.n	8002852 <usb_transc_inxfer+0x2a>
 80028c0:	9b01      	ldr	r3, [sp, #4]
 80028c2:	f043 5300 	orr.w	r3, r3, #536870912	; 0x20000000
 80028c6:	e7c3      	b.n	8002850 <usb_transc_inxfer+0x28>
 80028c8:	9d01      	ldr	r5, [sp, #4]
 80028ca:	3b01      	subs	r3, #1
 80028cc:	4433      	add	r3, r6
 80028ce:	fbb3 f3f6 	udiv	r3, r3, r6
 80028d2:	ea45 43c3 	orr.w	r3, r5, r3, lsl #19
 80028d6:	e7eb      	b.n	80028b0 <usb_transc_inxfer+0x88>
 80028d8:	6889      	ldr	r1, [r1, #8]
 80028da:	4c02      	ldr	r4, [pc, #8]	; (80028e4 <usb_transc_inxfer+0xbc>)
 80028dc:	b29b      	uxth	r3, r3
 80028de:	3010      	adds	r0, #16
 80028e0:	47a0      	blx	r4
 80028e2:	e7d9      	b.n	8002898 <usb_transc_inxfer+0x70>
 80028e4:	257d      	movs	r5, #125	; 0x7d
 80028e6:	0800      	lsrs	r0, r0, #32

080028e8 <usb_transc_outxfer>:
 80028e8:	b570      	push	{r4, r5, r6, lr}
 80028ea:	780e      	ldrb	r6, [r1, #0]
 80028ec:	68ca      	ldr	r2, [r1, #12]
 80028ee:	888d      	ldrh	r5, [r1, #4]
 80028f0:	f006 060f 	and.w	r6, r6, #15
 80028f4:	eb00 0086 	add.w	r0, r0, r6, lsl #2
 80028f8:	6b44      	ldr	r4, [r0, #52]	; 0x34
 80028fa:	6820      	ldr	r0, [r4, #0]
 80028fc:	6923      	ldr	r3, [r4, #16]
 80028fe:	f003 4360 	and.w	r3, r3, #3758096384	; 0xe0000000
 8002902:	b102      	cbz	r2, 8002906 <usb_transc_outxfer+0x1e>
 8002904:	b97e      	cbnz	r6, 8002926 <usb_transc_outxfer+0x3e>
 8002906:	432b      	orrs	r3, r5
 8002908:	f443 2300 	orr.w	r3, r3, #524288	; 0x80000
 800290c:	6123      	str	r3, [r4, #16]
 800290e:	784b      	ldrb	r3, [r1, #1]
 8002910:	2b01      	cmp	r3, #1
 8002912:	d103      	bne.n	800291c <usb_transc_outxfer+0x34>
 8002914:	78cb      	ldrb	r3, [r1, #3]
 8002916:	b17b      	cbz	r3, 8002938 <usb_transc_outxfer+0x50>
 8002918:	f040 5000 	orr.w	r0, r0, #536870912	; 0x20000000
 800291c:	f040 4004 	orr.w	r0, r0, #2214592512	; 0x84000000
 8002920:	6020      	str	r0, [r4, #0]
 8002922:	2000      	movs	r0, #0
 8002924:	bd70      	pop	{r4, r5, r6, pc}
 8002926:	3a01      	subs	r2, #1
 8002928:	442a      	add	r2, r5
 800292a:	fbb2 f2f5 	udiv	r2, r2, r5
 800292e:	ea43 43c2 	orr.w	r3, r3, r2, lsl #19
 8002932:	436a      	muls	r2, r5
 8002934:	4313      	orrs	r3, r2
 8002936:	e7e9      	b.n	800290c <usb_transc_outxfer+0x24>
 8002938:	f040 5080 	orr.w	r0, r0, #268435456	; 0x10000000
 800293c:	e7ee      	b.n	800291c <usb_transc_outxfer+0x34>

0800293e <usb_transc_stall>:
 800293e:	780b      	ldrb	r3, [r1, #0]
 8002940:	f991 2000 	ldrsb.w	r2, [r1]
 8002944:	f003 030f 	and.w	r3, r3, #15
 8002948:	2a00      	cmp	r2, #0
 800294a:	eb00 0083 	add.w	r0, r0, r3, lsl #2
 800294e:	da0d      	bge.n	800296c <usb_transc_stall+0x2e>
 8002950:	69c3      	ldr	r3, [r0, #28]
 8002952:	681a      	ldr	r2, [r3, #0]
 8002954:	2a00      	cmp	r2, #0
 8002956:	da03      	bge.n	8002960 <usb_transc_stall+0x22>
 8002958:	681a      	ldr	r2, [r3, #0]
 800295a:	f042 4280 	orr.w	r2, r2, #1073741824	; 0x40000000
 800295e:	601a      	str	r2, [r3, #0]
 8002960:	681a      	ldr	r2, [r3, #0]
 8002962:	f442 1200 	orr.w	r2, r2, #2097152	; 0x200000
 8002966:	601a      	str	r2, [r3, #0]
 8002968:	2000      	movs	r0, #0
 800296a:	4770      	bx	lr
 800296c:	6b43      	ldr	r3, [r0, #52]	; 0x34
 800296e:	e7f7      	b.n	8002960 <usb_transc_stall+0x22>

08002970 <usb_transc_clrstall>:
 8002970:	780b      	ldrb	r3, [r1, #0]
 8002972:	f991 2000 	ldrsb.w	r2, [r1]
 8002976:	f003 030f 	and.w	r3, r3, #15
 800297a:	eb00 0083 	add.w	r0, r0, r3, lsl #2
 800297e:	2a00      	cmp	r2, #0
 8002980:	bfb4      	ite	lt
 8002982:	69c3      	ldrlt	r3, [r0, #28]
 8002984:	6b43      	ldrge	r3, [r0, #52]	; 0x34
 8002986:	681a      	ldr	r2, [r3, #0]
 8002988:	f422 1200 	bic.w	r2, r2, #2097152	; 0x200000
 800298c:	601a      	str	r2, [r3, #0]
 800298e:	784a      	ldrb	r2, [r1, #1]
 8002990:	3a02      	subs	r2, #2
 8002992:	2a01      	cmp	r2, #1
 8002994:	bf9e      	ittt	ls
 8002996:	681a      	ldrls	r2, [r3, #0]
 8002998:	f042 5280 	orrls.w	r2, r2, #268435456	; 0x10000000
 800299c:	601a      	strls	r2, [r3, #0]
 800299e:	2000      	movs	r0, #0
 80029a0:	4770      	bx	lr

080029a2 <usb_iepintr_read>:
 80029a2:	6942      	ldr	r2, [r0, #20]
 80029a4:	b510      	push	{r4, lr}
 80029a6:	eb00 0081 	add.w	r0, r0, r1, lsl #2
 80029aa:	6914      	ldr	r4, [r2, #16]
 80029ac:	6b53      	ldr	r3, [r2, #52]	; 0x34
 80029ae:	69c2      	ldr	r2, [r0, #28]
 80029b0:	40cb      	lsrs	r3, r1
 80029b2:	01db      	lsls	r3, r3, #7
 80029b4:	6890      	ldr	r0, [r2, #8]
 80029b6:	b2db      	uxtb	r3, r3
 80029b8:	4323      	orrs	r3, r4
 80029ba:	4018      	ands	r0, r3
 80029bc:	bd10      	pop	{r4, pc}
	...

080029c0 <usb_ctlep_startout>:
 80029c0:	6b43      	ldr	r3, [r0, #52]	; 0x34
 80029c2:	4a01      	ldr	r2, [pc, #4]	; (80029c8 <usb_ctlep_startout+0x8>)
 80029c4:	611a      	str	r2, [r3, #16]
 80029c6:	4770      	bx	lr
 80029c8:	0018      	movs	r0, r3
 80029ca:	6008      	str	r0, [r1, #0]

080029cc <usb_clock_active>:
 80029cc:	79c3      	ldrb	r3, [r0, #7]
 80029ce:	b14b      	cbz	r3, 80029e4 <usb_clock_active+0x18>
 80029d0:	6943      	ldr	r3, [r0, #20]
 80029d2:	689b      	ldr	r3, [r3, #8]
 80029d4:	07db      	lsls	r3, r3, #31
 80029d6:	bf41      	itttt	mi
 80029d8:	f8d0 20c8 	ldrmi.w	r2, [r0, #200]	; 0xc8
 80029dc:	6813      	ldrmi	r3, [r2, #0]
 80029de:	f023 0303 	bicmi.w	r3, r3, #3
 80029e2:	6013      	strmi	r3, [r2, #0]
 80029e4:	4770      	bx	lr
	...

080029e8 <usbd_ctl_send>:
 80029e8:	b538      	push	{r3, r4, r5, lr}
 80029ea:	4604      	mov	r4, r0
 80029ec:	f8d0 30e4 	ldr.w	r3, [r0, #228]	; 0xe4
 80029f0:	f8d0 20d8 	ldr.w	r2, [r0, #216]	; 0xd8
 80029f4:	4d07      	ldr	r5, [pc, #28]	; (8002a14 <usbd_ctl_send+0x2c>)
 80029f6:	2100      	movs	r1, #0
 80029f8:	47a8      	blx	r5
 80029fa:	f8b4 20d4 	ldrh.w	r2, [r4, #212]	; 0xd4
 80029fe:	f8d4 30e4 	ldr.w	r3, [r4, #228]	; 0xe4
 8002a02:	4293      	cmp	r3, r2
 8002a04:	bf8c      	ite	hi
 8002a06:	2301      	movhi	r3, #1
 8002a08:	2302      	movls	r3, #2
 8002a0a:	f884 33ac 	strb.w	r3, [r4, #940]	; 0x3ac
 8002a0e:	2000      	movs	r0, #0
 8002a10:	bd38      	pop	{r3, r4, r5, pc}
 8002a12:	bf00      	nop
 8002a14:	19e9      	adds	r1, r5, r7
 8002a16:	0800      	lsrs	r0, r0, #32

08002a18 <usbd_ctl_recev>:
 8002a18:	b538      	push	{r3, r4, r5, lr}
 8002a1a:	4604      	mov	r4, r0
 8002a1c:	f8d0 324c 	ldr.w	r3, [r0, #588]	; 0x24c
 8002a20:	f8d0 2240 	ldr.w	r2, [r0, #576]	; 0x240
 8002a24:	4d07      	ldr	r5, [pc, #28]	; (8002a44 <usbd_ctl_recev+0x2c>)
 8002a26:	2100      	movs	r1, #0
 8002a28:	47a8      	blx	r5
 8002a2a:	f8b4 223c 	ldrh.w	r2, [r4, #572]	; 0x23c
 8002a2e:	f8d4 324c 	ldr.w	r3, [r4, #588]	; 0x24c
 8002a32:	4293      	cmp	r3, r2
 8002a34:	bf8c      	ite	hi
 8002a36:	2303      	movhi	r3, #3
 8002a38:	2304      	movls	r3, #4
 8002a3a:	f884 33ac 	strb.w	r3, [r4, #940]	; 0x3ac
 8002a3e:	2000      	movs	r0, #0
 8002a40:	bd38      	pop	{r3, r4, r5, pc}
 8002a42:	bf00      	nop
 8002a44:	19c1      	adds	r1, r0, r7
 8002a46:	0800      	lsrs	r0, r0, #32

08002a48 <usbd_ctl_status_send>:
 8002a48:	b538      	push	{r3, r4, r5, lr}
 8002a4a:	2305      	movs	r3, #5
 8002a4c:	f880 33ac 	strb.w	r3, [r0, #940]	; 0x3ac
 8002a50:	2300      	movs	r3, #0
 8002a52:	461a      	mov	r2, r3
 8002a54:	4619      	mov	r1, r3
 8002a56:	4604      	mov	r4, r0
 8002a58:	4d03      	ldr	r5, [pc, #12]	; (8002a68 <usbd_ctl_status_send+0x20>)
 8002a5a:	47a8      	blx	r5
 8002a5c:	4620      	mov	r0, r4
 8002a5e:	4b03      	ldr	r3, [pc, #12]	; (8002a6c <usbd_ctl_status_send+0x24>)
 8002a60:	4798      	blx	r3
 8002a62:	2000      	movs	r0, #0
 8002a64:	bd38      	pop	{r3, r4, r5, pc}
 8002a66:	bf00      	nop
 8002a68:	19e9      	adds	r1, r5, r7
 8002a6a:	0800      	lsrs	r0, r0, #32
 8002a6c:	29c1      	cmp	r1, #193	; 0xc1
 8002a6e:	0800      	lsrs	r0, r0, #32

08002a70 <usbd_ctl_status_recev>:
 8002a70:	b538      	push	{r3, r4, r5, lr}
 8002a72:	2306      	movs	r3, #6
 8002a74:	f880 33ac 	strb.w	r3, [r0, #940]	; 0x3ac
 8002a78:	2300      	movs	r3, #0
 8002a7a:	461a      	mov	r2, r3
 8002a7c:	4619      	mov	r1, r3
 8002a7e:	4604      	mov	r4, r0
 8002a80:	4d03      	ldr	r5, [pc, #12]	; (8002a90 <usbd_ctl_status_recev+0x20>)
 8002a82:	47a8      	blx	r5
 8002a84:	4620      	mov	r0, r4
 8002a86:	4b03      	ldr	r3, [pc, #12]	; (8002a94 <usbd_ctl_status_recev+0x24>)
 8002a88:	4798      	blx	r3
 8002a8a:	2000      	movs	r0, #0
 8002a8c:	bd38      	pop	{r3, r4, r5, pc}
 8002a8e:	bf00      	nop
 8002a90:	19c1      	adds	r1, r0, r7
 8002a92:	0800      	lsrs	r0, r0, #32
 8002a94:	29c1      	cmp	r1, #193	; 0xc1
 8002a96:	0800      	lsrs	r0, r0, #32

08002a98 <usbd_setup_transc>:
 8002a98:	b537      	push	{r0, r1, r2, r4, r5, lr}
 8002a9a:	4604      	mov	r4, r0
 8002a9c:	e9d0 01e9 	ldrd	r0, r1, [r0, #932]	; 0x3a4
 8002aa0:	466d      	mov	r5, sp
 8002aa2:	e885 0003 	stmia.w	r5, {r0, r1}
 8002aa6:	f89d 3000 	ldrb.w	r3, [sp]
 8002aaa:	f003 0360 	and.w	r3, r3, #96	; 0x60
 8002aae:	2b20      	cmp	r3, #32
 8002ab0:	d010      	beq.n	8002ad4 <usbd_setup_transc+0x3c>
 8002ab2:	2b40      	cmp	r3, #64	; 0x40
 8002ab4:	d012      	beq.n	8002adc <usbd_setup_transc+0x44>
 8002ab6:	b9f3      	cbnz	r3, 8002af6 <usbd_setup_transc+0x5e>
 8002ab8:	4b11      	ldr	r3, [pc, #68]	; (8002b00 <usbd_setup_transc+0x68>)
 8002aba:	4629      	mov	r1, r5
 8002abc:	4620      	mov	r0, r4
 8002abe:	4798      	blx	r3
 8002ac0:	b9c8      	cbnz	r0, 8002af6 <usbd_setup_transc+0x5e>
 8002ac2:	f8bd 3006 	ldrh.w	r3, [sp, #6]
 8002ac6:	b96b      	cbnz	r3, 8002ae4 <usbd_setup_transc+0x4c>
 8002ac8:	4b0e      	ldr	r3, [pc, #56]	; (8002b04 <usbd_setup_transc+0x6c>)
 8002aca:	4620      	mov	r0, r4
 8002acc:	4798      	blx	r3
 8002ace:	2000      	movs	r0, #0
 8002ad0:	b003      	add	sp, #12
 8002ad2:	bd30      	pop	{r4, r5, pc}
 8002ad4:	4b0c      	ldr	r3, [pc, #48]	; (8002b08 <usbd_setup_transc+0x70>)
 8002ad6:	4629      	mov	r1, r5
 8002ad8:	4620      	mov	r0, r4
 8002ada:	e7f0      	b.n	8002abe <usbd_setup_transc+0x26>
 8002adc:	4b0b      	ldr	r3, [pc, #44]	; (8002b0c <usbd_setup_transc+0x74>)
 8002ade:	4629      	mov	r1, r5
 8002ae0:	4620      	mov	r0, r4
 8002ae2:	e7ec      	b.n	8002abe <usbd_setup_transc+0x26>
 8002ae4:	f99d 3000 	ldrsb.w	r3, [sp]
 8002ae8:	2b00      	cmp	r3, #0
 8002aea:	4620      	mov	r0, r4
 8002aec:	da01      	bge.n	8002af2 <usbd_setup_transc+0x5a>
 8002aee:	4b08      	ldr	r3, [pc, #32]	; (8002b10 <usbd_setup_transc+0x78>)
 8002af0:	e7ec      	b.n	8002acc <usbd_setup_transc+0x34>
 8002af2:	4b08      	ldr	r3, [pc, #32]	; (8002b14 <usbd_setup_transc+0x7c>)
 8002af4:	e7ea      	b.n	8002acc <usbd_setup_transc+0x34>
 8002af6:	4b08      	ldr	r3, [pc, #32]	; (8002b18 <usbd_setup_transc+0x80>)
 8002af8:	4629      	mov	r1, r5
 8002afa:	4620      	mov	r0, r4
 8002afc:	4798      	blx	r3
 8002afe:	e7e6      	b.n	8002ace <usbd_setup_transc+0x36>
 8002b00:	1eb5      	subs	r5, r6, #2
 8002b02:	0800      	lsrs	r0, r0, #32
 8002b04:	2a49      	cmp	r2, #73	; 0x49
 8002b06:	0800      	lsrs	r0, r0, #32
 8002b08:	1ec5      	subs	r5, r0, #3
 8002b0a:	0800      	lsrs	r0, r0, #32
 8002b0c:	1ee7      	subs	r7, r4, #3
 8002b0e:	0800      	lsrs	r0, r0, #32
 8002b10:	29e9      	cmp	r1, #233	; 0xe9
 8002b12:	0800      	lsrs	r0, r0, #32
 8002b14:	2a19      	cmp	r2, #25
 8002b16:	0800      	lsrs	r0, r0, #32
 8002b18:	1eed      	subs	r5, r5, #3
 8002b1a:	0800      	lsrs	r0, r0, #32

08002b1c <usbd_out_transc>:
 8002b1c:	b510      	push	{r4, lr}
 8002b1e:	4604      	mov	r4, r0
 8002b20:	bb01      	cbnz	r1, 8002b64 <usbd_out_transc+0x48>
 8002b22:	f890 33ac 	ldrb.w	r3, [r0, #940]	; 0x3ac
 8002b26:	2b03      	cmp	r3, #3
 8002b28:	d003      	beq.n	8002b32 <usbd_out_transc+0x16>
 8002b2a:	2b04      	cmp	r3, #4
 8002b2c:	d00b      	beq.n	8002b46 <usbd_out_transc+0x2a>
 8002b2e:	2000      	movs	r0, #0
 8002b30:	bd10      	pop	{r4, pc}
 8002b32:	f8d0 324c 	ldr.w	r3, [r0, #588]	; 0x24c
 8002b36:	f8b0 223c 	ldrh.w	r2, [r0, #572]	; 0x23c
 8002b3a:	1a9b      	subs	r3, r3, r2
 8002b3c:	f8c0 324c 	str.w	r3, [r0, #588]	; 0x24c
 8002b40:	4b0e      	ldr	r3, [pc, #56]	; (8002b7c <usbd_out_transc+0x60>)
 8002b42:	4798      	blx	r3
 8002b44:	e7f3      	b.n	8002b2e <usbd_out_transc+0x12>
 8002b46:	f890 30ce 	ldrb.w	r3, [r0, #206]	; 0xce
 8002b4a:	2b03      	cmp	r3, #3
 8002b4c:	d104      	bne.n	8002b58 <usbd_out_transc+0x3c>
 8002b4e:	f8d0 33b4 	ldr.w	r3, [r0, #948]	; 0x3b4
 8002b52:	699b      	ldr	r3, [r3, #24]
 8002b54:	b103      	cbz	r3, 8002b58 <usbd_out_transc+0x3c>
 8002b56:	4798      	blx	r3
 8002b58:	2300      	movs	r3, #0
 8002b5a:	f8c4 324c 	str.w	r3, [r4, #588]	; 0x24c
 8002b5e:	4620      	mov	r0, r4
 8002b60:	4b07      	ldr	r3, [pc, #28]	; (8002b80 <usbd_out_transc+0x64>)
 8002b62:	e7ee      	b.n	8002b42 <usbd_out_transc+0x26>
 8002b64:	f8d0 33b4 	ldr.w	r3, [r0, #948]	; 0x3b4
 8002b68:	6a1b      	ldr	r3, [r3, #32]
 8002b6a:	2b00      	cmp	r3, #0
 8002b6c:	d0df      	beq.n	8002b2e <usbd_out_transc+0x12>
 8002b6e:	f890 20ce 	ldrb.w	r2, [r0, #206]	; 0xce
 8002b72:	2a03      	cmp	r2, #3
 8002b74:	d1db      	bne.n	8002b2e <usbd_out_transc+0x12>
 8002b76:	4798      	blx	r3
 8002b78:	e7d9      	b.n	8002b2e <usbd_out_transc+0x12>
 8002b7a:	bf00      	nop
 8002b7c:	2a19      	cmp	r2, #25
 8002b7e:	0800      	lsrs	r0, r0, #32
 8002b80:	2a49      	cmp	r2, #73	; 0x49
 8002b82:	0800      	lsrs	r0, r0, #32

08002b84 <usbd_in_transc>:
 8002b84:	b570      	push	{r4, r5, r6, lr}
 8002b86:	4604      	mov	r4, r0
 8002b88:	460d      	mov	r5, r1
 8002b8a:	bb51      	cbnz	r1, 8002be2 <usbd_in_transc+0x5e>
 8002b8c:	f890 33ac 	ldrb.w	r3, [r0, #940]	; 0x3ac
 8002b90:	2b01      	cmp	r3, #1
 8002b92:	d003      	beq.n	8002b9c <usbd_in_transc+0x18>
 8002b94:	2b02      	cmp	r3, #2
 8002b96:	d00b      	beq.n	8002bb0 <usbd_in_transc+0x2c>
 8002b98:	2000      	movs	r0, #0
 8002b9a:	bd70      	pop	{r4, r5, r6, pc}
 8002b9c:	f8d0 30e4 	ldr.w	r3, [r0, #228]	; 0xe4
 8002ba0:	f8b0 20d4 	ldrh.w	r2, [r0, #212]	; 0xd4
 8002ba4:	1a9b      	subs	r3, r3, r2
 8002ba6:	f8c0 30e4 	str.w	r3, [r0, #228]	; 0xe4
 8002baa:	4b13      	ldr	r3, [pc, #76]	; (8002bf8 <usbd_in_transc+0x74>)
 8002bac:	4798      	blx	r3
 8002bae:	e7f3      	b.n	8002b98 <usbd_in_transc+0x14>
 8002bb0:	f890 33ad 	ldrb.w	r3, [r0, #941]	; 0x3ad
 8002bb4:	b133      	cbz	r3, 8002bc4 <usbd_in_transc+0x40>
 8002bb6:	4e11      	ldr	r6, [pc, #68]	; (8002bfc <usbd_in_transc+0x78>)
 8002bb8:	460b      	mov	r3, r1
 8002bba:	460a      	mov	r2, r1
 8002bbc:	47b0      	blx	r6
 8002bbe:	f884 53ad 	strb.w	r5, [r4, #941]	; 0x3ad
 8002bc2:	e7e9      	b.n	8002b98 <usbd_in_transc+0x14>
 8002bc4:	f890 30ce 	ldrb.w	r3, [r0, #206]	; 0xce
 8002bc8:	2b03      	cmp	r3, #3
 8002bca:	d104      	bne.n	8002bd6 <usbd_in_transc+0x52>
 8002bcc:	f8d0 33b4 	ldr.w	r3, [r0, #948]	; 0x3b4
 8002bd0:	695b      	ldr	r3, [r3, #20]
 8002bd2:	b103      	cbz	r3, 8002bd6 <usbd_in_transc+0x52>
 8002bd4:	4798      	blx	r3
 8002bd6:	2300      	movs	r3, #0
 8002bd8:	f8c4 30e4 	str.w	r3, [r4, #228]	; 0xe4
 8002bdc:	4620      	mov	r0, r4
 8002bde:	4b08      	ldr	r3, [pc, #32]	; (8002c00 <usbd_in_transc+0x7c>)
 8002be0:	e7e4      	b.n	8002bac <usbd_in_transc+0x28>
 8002be2:	f890 30ce 	ldrb.w	r3, [r0, #206]	; 0xce
 8002be6:	2b03      	cmp	r3, #3
 8002be8:	d1d6      	bne.n	8002b98 <usbd_in_transc+0x14>
 8002bea:	f8d0 33b4 	ldr.w	r3, [r0, #948]	; 0x3b4
 8002bee:	69db      	ldr	r3, [r3, #28]
 8002bf0:	2b00      	cmp	r3, #0
 8002bf2:	d0d1      	beq.n	8002b98 <usbd_in_transc+0x14>
 8002bf4:	4798      	blx	r3
 8002bf6:	e7cf      	b.n	8002b98 <usbd_in_transc+0x14>
 8002bf8:	29e9      	cmp	r1, #233	; 0xe9
 8002bfa:	0800      	lsrs	r0, r0, #32
 8002bfc:	19e9      	adds	r1, r5, r7
 8002bfe:	0800      	lsrs	r0, r0, #32
 8002c00:	2a71      	cmp	r2, #113	; 0x71
 8002c02:	0800      	lsrs	r0, r0, #32

08002c04 <escpos_esc_init>:
 8002c04:	b570      	push	{r4, r5, r6, lr}
 8002c06:	4b16      	ldr	r3, [pc, #88]	; (8002c60 <escpos_esc_init+0x5c>)
 8002c08:	4c16      	ldr	r4, [pc, #88]	; (8002c64 <escpos_esc_init+0x60>)
 8002c0a:	4d17      	ldr	r5, [pc, #92]	; (8002c68 <escpos_esc_init+0x64>)
 8002c0c:	4798      	blx	r3
 8002c0e:	4b17      	ldr	r3, [pc, #92]	; (8002c6c <escpos_esc_init+0x68>)
 8002c10:	4798      	blx	r3
 8002c12:	4b17      	ldr	r3, [pc, #92]	; (8002c70 <escpos_esc_init+0x6c>)
 8002c14:	4798      	blx	r3
 8002c16:	4b17      	ldr	r3, [pc, #92]	; (8002c74 <escpos_esc_init+0x70>)
 8002c18:	4798      	blx	r3
 8002c1a:	f44f 30e1 	mov.w	r0, #115200	; 0x1c200
 8002c1e:	4b16      	ldr	r3, [pc, #88]	; (8002c78 <escpos_esc_init+0x74>)
 8002c20:	4798      	blx	r3
 8002c22:	4b16      	ldr	r3, [pc, #88]	; (8002c7c <escpos_esc_init+0x78>)
 8002c24:	4798      	blx	r3
 8002c26:	4b16      	ldr	r3, [pc, #88]	; (8002c80 <escpos_esc_init+0x7c>)
 8002c28:	4798      	blx	r3
 8002c2a:	4b16      	ldr	r3, [pc, #88]	; (8002c84 <escpos_esc_init+0x80>)
 8002c2c:	4798      	blx	r3
 8002c2e:	4620      	mov	r0, r4
 8002c30:	4b15      	ldr	r3, [pc, #84]	; (8002c88 <escpos_esc_init+0x84>)
 8002c32:	4798      	blx	r3
 8002c34:	4620      	mov	r0, r4
 8002c36:	4915      	ldr	r1, [pc, #84]	; (8002c8c <escpos_esc_init+0x88>)
 8002c38:	4b15      	ldr	r3, [pc, #84]	; (8002c90 <escpos_esc_init+0x8c>)
 8002c3a:	f44f 5280 	mov.w	r2, #4096	; 0x1000
 8002c3e:	4798      	blx	r3
 8002c40:	2300      	movs	r3, #0
 8002c42:	81a3      	strh	r3, [r4, #12]
 8002c44:	f44f 7010 	mov.w	r0, #576	; 0x240
 8002c48:	4a12      	ldr	r2, [pc, #72]	; (8002c94 <escpos_esc_init+0x90>)
 8002c4a:	802b      	strh	r3, [r5, #0]
 8002c4c:	21c0      	movs	r1, #192	; 0xc0
 8002c4e:	73a3      	strb	r3, [r4, #14]
 8002c50:	4790      	blx	r2
 8002c52:	e8bd 4070 	ldmia.w	sp!, {r4, r5, r6, lr}
 8002c56:	4b10      	ldr	r3, [pc, #64]	; (8002c98 <escpos_esc_init+0x94>)
 8002c58:	f44f 6080 	mov.w	r0, #1024	; 0x400
 8002c5c:	4718      	bx	r3
 8002c5e:	bf00      	nop
 8002c60:	65c5      	str	r5, [r0, #92]	; 0x5c
 8002c62:	0800      	lsrs	r0, r0, #32
 8002c64:	0dd8      	lsrs	r0, r3, #23
 8002c66:	2000      	movs	r0, #0
 8002c68:	3224      	adds	r2, #36	; 0x24
 8002c6a:	2000      	movs	r0, #0
 8002c6c:	615d      	str	r5, [r3, #20]
 8002c6e:	0800      	lsrs	r0, r0, #32
 8002c70:	5d4d      	ldrb	r5, [r1, r5]
 8002c72:	0800      	lsrs	r0, r0, #32
 8002c74:	41e5      	rors	r5, r4
 8002c76:	0800      	lsrs	r0, r0, #32
 8002c78:	5531      	strb	r1, [r6, r4]
 8002c7a:	0800      	lsrs	r0, r0, #32
 8002c7c:	37bd      	adds	r7, #189	; 0xbd
 8002c7e:	0800      	lsrs	r0, r0, #32
 8002c80:	54b9      	strb	r1, [r7, r2]
 8002c82:	0800      	lsrs	r0, r0, #32
 8002c84:	4de5      	ldr	r5, [pc, #916]	; (800301c <Printer_Set_Relative_Print_Position+0x14>)
 8002c86:	0800      	lsrs	r0, r0, #32
 8002c88:	37b1      	adds	r7, #177	; 0xb1
 8002c8a:	0800      	lsrs	r0, r0, #32
 8002c8c:	0de8      	lsrs	r0, r5, #23
 8002c8e:	2000      	movs	r0, #0
 8002c90:	37d5      	adds	r7, #213	; 0xd5
 8002c92:	0800      	lsrs	r0, r0, #32
 8002c94:	464d      	mov	r5, r9
 8002c96:	0800      	lsrs	r0, r0, #32
 8002c98:	0c6d      	lsrs	r5, r5, #17
 8002c9a:	0800      	lsrs	r0, r0, #32

08002c9c <escpos_write_into_receiveBuffer>:
 8002c9c:	4684      	mov	ip, r0
 8002c9e:	460a      	mov	r2, r1
 8002ca0:	4801      	ldr	r0, [pc, #4]	; (8002ca8 <escpos_write_into_receiveBuffer+0xc>)
 8002ca2:	4b02      	ldr	r3, [pc, #8]	; (8002cac <escpos_write_into_receiveBuffer+0x10>)
 8002ca4:	4661      	mov	r1, ip
 8002ca6:	4718      	bx	r3
 8002ca8:	0dd8      	lsrs	r0, r3, #23
 8002caa:	2000      	movs	r0, #0
 8002cac:	3915      	subs	r1, #21
 8002cae:	0800      	lsrs	r0, r0, #32

08002cb0 <ReadCurrentCmd>:
 8002cb0:	4801      	ldr	r0, [pc, #4]	; (8002cb8 <ReadCurrentCmd+0x8>)
 8002cb2:	4b02      	ldr	r3, [pc, #8]	; (8002cbc <ReadCurrentCmd+0xc>)
 8002cb4:	4718      	bx	r3
 8002cb6:	bf00      	nop
 8002cb8:	0dd8      	lsrs	r0, r3, #23
 8002cba:	2000      	movs	r0, #0
 8002cbc:	386d      	subs	r0, #109	; 0x6d
 8002cbe:	0800      	lsrs	r0, r0, #32

08002cc0 <escpos>:
 8002cc0:	b530      	push	{r4, r5, lr}
 8002cc2:	4b1a      	ldr	r3, [pc, #104]	; (8002d2c <escpos+0x6c>)
 8002cc4:	b083      	sub	sp, #12
 8002cc6:	4798      	blx	r3
 8002cc8:	4b19      	ldr	r3, [pc, #100]	; (8002d30 <escpos+0x70>)
 8002cca:	4798      	blx	r3
 8002ccc:	b930      	cbnz	r0, 8002cdc <escpos+0x1c>
 8002cce:	4d19      	ldr	r5, [pc, #100]	; (8002d34 <escpos+0x74>)
 8002cd0:	7b2a      	ldrb	r2, [r5, #12]
 8002cd2:	b1a2      	cbz	r2, 8002cfe <escpos+0x3e>
 8002cd4:	2a01      	cmp	r2, #1
 8002cd6:	4604      	mov	r4, r0
 8002cd8:	d00b      	beq.n	8002cf2 <escpos+0x32>
 8002cda:	732c      	strb	r4, [r5, #12]
 8002cdc:	4b16      	ldr	r3, [pc, #88]	; (8002d38 <escpos+0x78>)
 8002cde:	4798      	blx	r3
 8002ce0:	4b16      	ldr	r3, [pc, #88]	; (8002d3c <escpos+0x7c>)
 8002ce2:	4798      	blx	r3
 8002ce4:	4b16      	ldr	r3, [pc, #88]	; (8002d40 <escpos+0x80>)
 8002ce6:	4798      	blx	r3
 8002ce8:	4b16      	ldr	r3, [pc, #88]	; (8002d44 <escpos+0x84>)
 8002cea:	b003      	add	sp, #12
 8002cec:	e8bd 4030 	ldmia.w	sp!, {r4, r5, lr}
 8002cf0:	4718      	bx	r3
 8002cf2:	4b15      	ldr	r3, [pc, #84]	; (8002d48 <escpos+0x88>)
 8002cf4:	4798      	blx	r3
 8002cf6:	2800      	cmp	r0, #0
 8002cf8:	d0f0      	beq.n	8002cdc <escpos+0x1c>
 8002cfa:	732c      	strb	r4, [r5, #12]
 8002cfc:	e7ee      	b.n	8002cdc <escpos+0x1c>
 8002cfe:	4b13      	ldr	r3, [pc, #76]	; (8002d4c <escpos+0x8c>)
 8002d00:	f10d 0107 	add.w	r1, sp, #7
 8002d04:	4628      	mov	r0, r5
 8002d06:	4798      	blx	r3
 8002d08:	2802      	cmp	r0, #2
 8002d0a:	d0e7      	beq.n	8002cdc <escpos+0x1c>
 8002d0c:	f89d 0007 	ldrb.w	r0, [sp, #7]
 8002d10:	281f      	cmp	r0, #31
 8002d12:	d904      	bls.n	8002d1e <escpos+0x5e>
 8002d14:	287f      	cmp	r0, #127	; 0x7f
 8002d16:	d005      	beq.n	8002d24 <escpos+0x64>
 8002d18:	4b0d      	ldr	r3, [pc, #52]	; (8002d50 <escpos+0x90>)
 8002d1a:	4798      	blx	r3
 8002d1c:	e7de      	b.n	8002cdc <escpos+0x1c>
 8002d1e:	2301      	movs	r3, #1
 8002d20:	732b      	strb	r3, [r5, #12]
 8002d22:	e7db      	b.n	8002cdc <escpos+0x1c>
 8002d24:	4b0b      	ldr	r3, [pc, #44]	; (8002d54 <escpos+0x94>)
 8002d26:	4628      	mov	r0, r5
 8002d28:	4798      	blx	r3
 8002d2a:	e7d7      	b.n	8002cdc <escpos+0x1c>
 8002d2c:	5001      	str	r1, [r0, r0]
 8002d2e:	0800      	lsrs	r0, r0, #32
 8002d30:	652d      	str	r5, [r5, #80]	; 0x50
 8002d32:	0800      	lsrs	r0, r0, #32
 8002d34:	0dd8      	lsrs	r0, r3, #23
 8002d36:	2000      	movs	r0, #0
 8002d38:	5efd      	ldrsh	r5, [r7, r3]
 8002d3a:	0800      	lsrs	r0, r0, #32
 8002d3c:	6239      	str	r1, [r7, #32]
 8002d3e:	0800      	lsrs	r0, r0, #32
 8002d40:	66c9      	str	r1, [r1, #108]	; 0x6c
 8002d42:	0800      	lsrs	r0, r0, #32
 8002d44:	40fd      	lsrs	r5, r7
 8002d46:	0800      	lsrs	r0, r0, #32
 8002d48:	3635      	adds	r6, #53	; 0x35
 8002d4a:	0800      	lsrs	r0, r0, #32
 8002d4c:	3895      	subs	r0, #149	; 0x95
 8002d4e:	0800      	lsrs	r0, r0, #32
 8002d50:	47b5      			; <UNDEFINED> instruction: 0x47b5
 8002d52:	0800      	lsrs	r0, r0, #32
 8002d54:	386d      	subs	r0, #109	; 0x6d
 8002d56:	0800      	lsrs	r0, r0, #32

08002d58 <Printer_RealTime_Status_Transmission>:
 8002d58:	2001      	movs	r0, #1
 8002d5a:	4770      	bx	lr

08002d5c <PrinterDefaultCMD>:
 8002d5c:	2001      	movs	r0, #1
 8002d5e:	4770      	bx	lr

08002d60 <Printer_Cut_Paper>:
 8002d60:	b538      	push	{r3, r4, r5, lr}
 8002d62:	4d2a      	ldr	r5, [pc, #168]	; (8002e0c <Printer_Cut_Paper+0xac>)
 8002d64:	78ac      	ldrb	r4, [r5, #2]
 8002d66:	2c04      	cmp	r4, #4
 8002d68:	d839      	bhi.n	8002dde <Printer_Cut_Paper+0x7e>
 8002d6a:	e8df f004 	tbb	[pc, r4]
 8002d6e:	240d      	movs	r4, #13
 8002d70:	3c32      	subs	r4, #50	; 0x32
 8002d72:	0003      	movs	r3, r0
 8002d74:	7928      	ldrb	r0, [r5, #4]
 8002d76:	4b26      	ldr	r3, [pc, #152]	; (8002e10 <Printer_Cut_Paper+0xb0>)
 8002d78:	2101      	movs	r1, #1
 8002d7a:	4798      	blx	r3
 8002d7c:	b108      	cbz	r0, 8002d82 <Printer_Cut_Paper+0x22>
 8002d7e:	2302      	movs	r3, #2
 8002d80:	70ab      	strb	r3, [r5, #2]
 8002d82:	2400      	movs	r4, #0
 8002d84:	4620      	mov	r0, r4
 8002d86:	bd38      	pop	{r3, r4, r5, pc}
 8002d88:	4922      	ldr	r1, [pc, #136]	; (8002e14 <Printer_Cut_Paper+0xb4>)
 8002d8a:	68e8      	ldr	r0, [r5, #12]
 8002d8c:	4b22      	ldr	r3, [pc, #136]	; (8002e18 <Printer_Cut_Paper+0xb8>)
 8002d8e:	2200      	movs	r2, #0
 8002d90:	4798      	blx	r3
 8002d92:	2802      	cmp	r0, #2
 8002d94:	d0f5      	beq.n	8002d82 <Printer_Cut_Paper+0x22>
 8002d96:	792b      	ldrb	r3, [r5, #4]
 8002d98:	f1a3 0230 	sub.w	r2, r3, #48	; 0x30
 8002d9c:	2a01      	cmp	r2, #1
 8002d9e:	d927      	bls.n	8002df0 <Printer_Cut_Paper+0x90>
 8002da0:	2b01      	cmp	r3, #1
 8002da2:	d925      	bls.n	8002df0 <Printer_Cut_Paper+0x90>
 8002da4:	2b42      	cmp	r3, #66	; 0x42
 8002da6:	bf18      	it	ne
 8002da8:	2401      	movne	r4, #1
 8002daa:	d1eb      	bne.n	8002d84 <Printer_Cut_Paper+0x24>
 8002dac:	4b1b      	ldr	r3, [pc, #108]	; (8002e1c <Printer_Cut_Paper+0xbc>)
 8002dae:	4798      	blx	r3
 8002db0:	2301      	movs	r3, #1
 8002db2:	70ab      	strb	r3, [r5, #2]
 8002db4:	e7e6      	b.n	8002d84 <Printer_Cut_Paper+0x24>
 8002db6:	4917      	ldr	r1, [pc, #92]	; (8002e14 <Printer_Cut_Paper+0xb4>)
 8002db8:	68e8      	ldr	r0, [r5, #12]
 8002dba:	4b19      	ldr	r3, [pc, #100]	; (8002e20 <Printer_Cut_Paper+0xc0>)
 8002dbc:	4798      	blx	r3
 8002dbe:	2802      	cmp	r0, #2
 8002dc0:	d0df      	beq.n	8002d82 <Printer_Cut_Paper+0x22>
 8002dc2:	4b18      	ldr	r3, [pc, #96]	; (8002e24 <Printer_Cut_Paper+0xc4>)
 8002dc4:	4798      	blx	r3
 8002dc6:	b9c0      	cbnz	r0, 8002dfa <Printer_Cut_Paper+0x9a>
 8002dc8:	2304      	movs	r3, #4
 8002dca:	2400      	movs	r4, #0
 8002dcc:	70ab      	strb	r3, [r5, #2]
 8002dce:	4620      	mov	r0, r4
 8002dd0:	bd38      	pop	{r3, r4, r5, pc}
 8002dd2:	4b0f      	ldr	r3, [pc, #60]	; (8002e10 <Printer_Cut_Paper+0xb0>)
 8002dd4:	2102      	movs	r1, #2
 8002dd6:	2000      	movs	r0, #0
 8002dd8:	4798      	blx	r3
 8002dda:	2800      	cmp	r0, #0
 8002ddc:	d0d1      	beq.n	8002d82 <Printer_Cut_Paper+0x22>
 8002dde:	2300      	movs	r3, #0
 8002de0:	70ab      	strb	r3, [r5, #2]
 8002de2:	2401      	movs	r4, #1
 8002de4:	e7ce      	b.n	8002d84 <Printer_Cut_Paper+0x24>
 8002de6:	4b10      	ldr	r3, [pc, #64]	; (8002e28 <Printer_Cut_Paper+0xc8>)
 8002de8:	4798      	blx	r3
 8002dea:	2800      	cmp	r0, #0
 8002dec:	d1ec      	bne.n	8002dc8 <Printer_Cut_Paper+0x68>
 8002dee:	e7c8      	b.n	8002d82 <Printer_Cut_Paper+0x22>
 8002df0:	2202      	movs	r2, #2
 8002df2:	4b0a      	ldr	r3, [pc, #40]	; (8002e1c <Printer_Cut_Paper+0xbc>)
 8002df4:	70aa      	strb	r2, [r5, #2]
 8002df6:	4798      	blx	r3
 8002df8:	e7c4      	b.n	8002d84 <Printer_Cut_Paper+0x24>
 8002dfa:	4b0c      	ldr	r3, [pc, #48]	; (8002e2c <Printer_Cut_Paper+0xcc>)
 8002dfc:	4798      	blx	r3
 8002dfe:	4b0c      	ldr	r3, [pc, #48]	; (8002e30 <Printer_Cut_Paper+0xd0>)
 8002e00:	4798      	blx	r3
 8002e02:	2303      	movs	r3, #3
 8002e04:	70ab      	strb	r3, [r5, #2]
 8002e06:	2400      	movs	r4, #0
 8002e08:	e7bc      	b.n	8002d84 <Printer_Cut_Paper+0x24>
 8002e0a:	bf00      	nop
 8002e0c:	1de8      	adds	r0, r5, #7
 8002e0e:	2000      	movs	r0, #0
 8002e10:	40d1      	lsrs	r1, r2
 8002e12:	0800      	lsrs	r0, r0, #32
 8002e14:	1dec      	adds	r4, r5, #7
 8002e16:	2000      	movs	r0, #0
 8002e18:	3895      	subs	r0, #149	; 0x95
 8002e1a:	0800      	lsrs	r0, r0, #32
 8002e1c:	2cb1      	cmp	r4, #177	; 0xb1
 8002e1e:	0800      	lsrs	r0, r0, #32
 8002e20:	37ed      	adds	r7, #237	; 0xed
 8002e22:	0800      	lsrs	r0, r0, #32
 8002e24:	4d45      	ldr	r5, [pc, #276]	; (8002f3c <Printer_Define_NV_Bitmap+0x1c>)
 8002e26:	0800      	lsrs	r0, r0, #32
 8002e28:	4d79      	ldr	r5, [pc, #484]	; (8003010 <Printer_Set_Relative_Print_Position+0x8>)
 8002e2a:	0800      	lsrs	r0, r0, #32
 8002e2c:	4d41      	ldr	r5, [pc, #260]	; (8002f34 <Printer_Define_NV_Bitmap+0x14>)
 8002e2e:	0800      	lsrs	r0, r0, #32
 8002e30:	4d9d      	ldr	r5, [pc, #628]	; (80030a8 <Printer_Select_Justification+0x40>)
 8002e32:	0800      	lsrs	r0, r0, #32

08002e34 <Printer_Set_Default_LineSpacing>:
 8002e34:	b508      	push	{r3, lr}
 8002e36:	4b02      	ldr	r3, [pc, #8]	; (8002e40 <Printer_Set_Default_LineSpacing+0xc>)
 8002e38:	4798      	blx	r3
 8002e3a:	2001      	movs	r0, #1
 8002e3c:	bd08      	pop	{r3, pc}
 8002e3e:	bf00      	nop
 8002e40:	4755      	bx	sl
 8002e42:	0800      	lsrs	r0, r0, #32

08002e44 <Printer_JMP_TO_NEXT_TAB_Position>:
 8002e44:	b508      	push	{r3, lr}
 8002e46:	4b02      	ldr	r3, [pc, #8]	; (8002e50 <Printer_JMP_TO_NEXT_TAB_Position+0xc>)
 8002e48:	4798      	blx	r3
 8002e4a:	2001      	movs	r0, #1
 8002e4c:	bd08      	pop	{r3, pc}
 8002e4e:	bf00      	nop
 8002e50:	4cc5      	ldr	r4, [pc, #788]	; (8003168 <Printer_Select_Character_Font+0x54>)
 8002e52:	0800      	lsrs	r0, r0, #32

08002e54 <Printer_Feed_N_Line>:
 8002e54:	b538      	push	{r3, r4, r5, lr}
 8002e56:	4c1a      	ldr	r4, [pc, #104]	; (8002ec0 <Printer_Feed_N_Line+0x6c>)
 8002e58:	78a3      	ldrb	r3, [r4, #2]
 8002e5a:	2b01      	cmp	r3, #1
 8002e5c:	d007      	beq.n	8002e6e <Printer_Feed_N_Line+0x1a>
 8002e5e:	2b02      	cmp	r3, #2
 8002e60:	d01f      	beq.n	8002ea2 <Printer_Feed_N_Line+0x4e>
 8002e62:	b163      	cbz	r3, 8002e7e <Printer_Feed_N_Line+0x2a>
 8002e64:	2300      	movs	r3, #0
 8002e66:	70a3      	strb	r3, [r4, #2]
 8002e68:	2501      	movs	r5, #1
 8002e6a:	4628      	mov	r0, r5
 8002e6c:	bd38      	pop	{r3, r4, r5, pc}
 8002e6e:	4b15      	ldr	r3, [pc, #84]	; (8002ec4 <Printer_Feed_N_Line+0x70>)
 8002e70:	4798      	blx	r3
 8002e72:	b108      	cbz	r0, 8002e78 <Printer_Feed_N_Line+0x24>
 8002e74:	2302      	movs	r3, #2
 8002e76:	70a3      	strb	r3, [r4, #2]
 8002e78:	2500      	movs	r5, #0
 8002e7a:	4628      	mov	r0, r5
 8002e7c:	bd38      	pop	{r3, r4, r5, pc}
 8002e7e:	68e0      	ldr	r0, [r4, #12]
 8002e80:	4b11      	ldr	r3, [pc, #68]	; (8002ec8 <Printer_Feed_N_Line+0x74>)
 8002e82:	1d21      	adds	r1, r4, #4
 8002e84:	4798      	blx	r3
 8002e86:	4605      	mov	r5, r0
 8002e88:	2800      	cmp	r0, #0
 8002e8a:	d1f5      	bne.n	8002e78 <Printer_Feed_N_Line+0x24>
 8002e8c:	4b0f      	ldr	r3, [pc, #60]	; (8002ecc <Printer_Feed_N_Line+0x78>)
 8002e8e:	4798      	blx	r3
 8002e90:	2800      	cmp	r0, #0
 8002e92:	d0ef      	beq.n	8002e74 <Printer_Feed_N_Line+0x20>
 8002e94:	4b0e      	ldr	r3, [pc, #56]	; (8002ed0 <Printer_Feed_N_Line+0x7c>)
 8002e96:	4798      	blx	r3
 8002e98:	4b0e      	ldr	r3, [pc, #56]	; (8002ed4 <Printer_Feed_N_Line+0x80>)
 8002e9a:	4798      	blx	r3
 8002e9c:	2301      	movs	r3, #1
 8002e9e:	70a3      	strb	r3, [r4, #2]
 8002ea0:	e7e3      	b.n	8002e6a <Printer_Feed_N_Line+0x16>
 8002ea2:	7925      	ldrb	r5, [r4, #4]
 8002ea4:	2d00      	cmp	r5, #0
 8002ea6:	d0dd      	beq.n	8002e64 <Printer_Feed_N_Line+0x10>
 8002ea8:	4b0b      	ldr	r3, [pc, #44]	; (8002ed8 <Printer_Feed_N_Line+0x84>)
 8002eaa:	4798      	blx	r3
 8002eac:	fb15 f000 	smulbb	r0, r5, r0
 8002eb0:	4b0a      	ldr	r3, [pc, #40]	; (8002edc <Printer_Feed_N_Line+0x88>)
 8002eb2:	2101      	movs	r1, #1
 8002eb4:	b280      	uxth	r0, r0
 8002eb6:	4798      	blx	r3
 8002eb8:	2800      	cmp	r0, #0
 8002eba:	d0dd      	beq.n	8002e78 <Printer_Feed_N_Line+0x24>
 8002ebc:	e7d2      	b.n	8002e64 <Printer_Feed_N_Line+0x10>
 8002ebe:	bf00      	nop
 8002ec0:	1de8      	adds	r0, r5, #7
 8002ec2:	2000      	movs	r0, #0
 8002ec4:	4d79      	ldr	r5, [pc, #484]	; (80030ac <Printer_Select_Justification+0x44>)
 8002ec6:	0800      	lsrs	r0, r0, #32
 8002ec8:	37ed      	adds	r7, #237	; 0xed
 8002eca:	0800      	lsrs	r0, r0, #32
 8002ecc:	4d45      	ldr	r5, [pc, #276]	; (8002fe4 <Printer_Print_NV_Bitmap+0x54>)
 8002ece:	0800      	lsrs	r0, r0, #32
 8002ed0:	4d41      	ldr	r5, [pc, #260]	; (8002fd8 <Printer_Print_NV_Bitmap+0x48>)
 8002ed2:	0800      	lsrs	r0, r0, #32
 8002ed4:	4d9d      	ldr	r5, [pc, #628]	; (800314c <Printer_Select_Character_Font+0x38>)
 8002ed6:	0800      	lsrs	r0, r0, #32
 8002ed8:	479d      			; <UNDEFINED> instruction: 0x479d
 8002eda:	0800      	lsrs	r0, r0, #32
 8002edc:	40d1      	lsrs	r1, r2
 8002ede:	0800      	lsrs	r0, r0, #32

08002ee0 <Printer_Set_Double_Width_And_Height>:
 8002ee0:	b510      	push	{r4, lr}
 8002ee2:	4c0b      	ldr	r4, [pc, #44]	; (8002f10 <Printer_Set_Double_Width_And_Height+0x30>)
 8002ee4:	4b0b      	ldr	r3, [pc, #44]	; (8002f14 <Printer_Set_Double_Width_And_Height+0x34>)
 8002ee6:	68e0      	ldr	r0, [r4, #12]
 8002ee8:	1d21      	adds	r1, r4, #4
 8002eea:	4798      	blx	r3
 8002eec:	2802      	cmp	r0, #2
 8002eee:	d00d      	beq.n	8002f0c <Printer_Set_Double_Width_And_Height+0x2c>
 8002ef0:	7920      	ldrb	r0, [r4, #4]
 8002ef2:	4b09      	ldr	r3, [pc, #36]	; (8002f18 <Printer_Set_Double_Width_And_Height+0x38>)
 8002ef4:	f3c0 1002 	ubfx	r0, r0, #4, #3
 8002ef8:	3001      	adds	r0, #1
 8002efa:	4798      	blx	r3
 8002efc:	7920      	ldrb	r0, [r4, #4]
 8002efe:	4b07      	ldr	r3, [pc, #28]	; (8002f1c <Printer_Set_Double_Width_And_Height+0x3c>)
 8002f00:	f000 0007 	and.w	r0, r0, #7
 8002f04:	3001      	adds	r0, #1
 8002f06:	4798      	blx	r3
 8002f08:	2001      	movs	r0, #1
 8002f0a:	bd10      	pop	{r4, pc}
 8002f0c:	2000      	movs	r0, #0
 8002f0e:	bd10      	pop	{r4, pc}
 8002f10:	1de8      	adds	r0, r5, #7
 8002f12:	2000      	movs	r0, #0
 8002f14:	37ed      	adds	r7, #237	; 0xed
 8002f16:	0800      	lsrs	r0, r0, #32
 8002f18:	46e5      	mov	sp, ip
 8002f1a:	0800      	lsrs	r0, r0, #32
 8002f1c:	46f5      	mov	sp, lr
 8002f1e:	0800      	lsrs	r0, r0, #32

08002f20 <Printer_Define_NV_Bitmap>:
 8002f20:	b538      	push	{r3, r4, r5, lr}
 8002f22:	4d15      	ldr	r5, [pc, #84]	; (8002f78 <Printer_Define_NV_Bitmap+0x58>)
 8002f24:	78ab      	ldrb	r3, [r5, #2]
 8002f26:	b133      	cbz	r3, 8002f36 <Printer_Define_NV_Bitmap+0x16>
 8002f28:	2b01      	cmp	r3, #1
 8002f2a:	d01d      	beq.n	8002f68 <Printer_Define_NV_Bitmap+0x48>
 8002f2c:	2300      	movs	r3, #0
 8002f2e:	70ab      	strb	r3, [r5, #2]
 8002f30:	2401      	movs	r4, #1
 8002f32:	4620      	mov	r0, r4
 8002f34:	bd38      	pop	{r3, r4, r5, pc}
 8002f36:	4b11      	ldr	r3, [pc, #68]	; (8002f7c <Printer_Define_NV_Bitmap+0x5c>)
 8002f38:	4798      	blx	r3
 8002f3a:	4604      	mov	r4, r0
 8002f3c:	2800      	cmp	r0, #0
 8002f3e:	d1f7      	bne.n	8002f30 <Printer_Define_NV_Bitmap+0x10>
 8002f40:	68e8      	ldr	r0, [r5, #12]
 8002f42:	4b0f      	ldr	r3, [pc, #60]	; (8002f80 <Printer_Define_NV_Bitmap+0x60>)
 8002f44:	4622      	mov	r2, r4
 8002f46:	1d29      	adds	r1, r5, #4
 8002f48:	4798      	blx	r3
 8002f4a:	2802      	cmp	r0, #2
 8002f4c:	d011      	beq.n	8002f72 <Printer_Define_NV_Bitmap+0x52>
 8002f4e:	7928      	ldrb	r0, [r5, #4]
 8002f50:	2800      	cmp	r0, #0
 8002f52:	d0ed      	beq.n	8002f30 <Printer_Define_NV_Bitmap+0x10>
 8002f54:	4b0b      	ldr	r3, [pc, #44]	; (8002f84 <Printer_Define_NV_Bitmap+0x64>)
 8002f56:	4798      	blx	r3
 8002f58:	2800      	cmp	r0, #0
 8002f5a:	d0e9      	beq.n	8002f30 <Printer_Define_NV_Bitmap+0x10>
 8002f5c:	4b0a      	ldr	r3, [pc, #40]	; (8002f88 <Printer_Define_NV_Bitmap+0x68>)
 8002f5e:	68e8      	ldr	r0, [r5, #12]
 8002f60:	4798      	blx	r3
 8002f62:	2301      	movs	r3, #1
 8002f64:	70ab      	strb	r3, [r5, #2]
 8002f66:	e7e4      	b.n	8002f32 <Printer_Define_NV_Bitmap+0x12>
 8002f68:	68e8      	ldr	r0, [r5, #12]
 8002f6a:	4b08      	ldr	r3, [pc, #32]	; (8002f8c <Printer_Define_NV_Bitmap+0x6c>)
 8002f6c:	4798      	blx	r3
 8002f6e:	2800      	cmp	r0, #0
 8002f70:	d1dc      	bne.n	8002f2c <Printer_Define_NV_Bitmap+0xc>
 8002f72:	2400      	movs	r4, #0
 8002f74:	4620      	mov	r0, r4
 8002f76:	bd38      	pop	{r3, r4, r5, pc}
 8002f78:	1de8      	adds	r0, r5, #7
 8002f7a:	2000      	movs	r0, #0
 8002f7c:	50cd      	str	r5, [r1, r3]
 8002f7e:	0800      	lsrs	r0, r0, #32
 8002f80:	3895      	subs	r0, #149	; 0x95
 8002f82:	0800      	lsrs	r0, r0, #32
 8002f84:	50d9      	str	r1, [r3, r3]
 8002f86:	0800      	lsrs	r0, r0, #32
 8002f88:	386d      	subs	r0, #109	; 0x6d
 8002f8a:	0800      	lsrs	r0, r0, #32
 8002f8c:	4e0d      	ldr	r6, [pc, #52]	; (8002fc4 <Printer_Print_NV_Bitmap+0x34>)
 8002f8e:	0800      	lsrs	r0, r0, #32

08002f90 <Printer_Print_NV_Bitmap>:
 8002f90:	b538      	push	{r3, r4, r5, lr}
 8002f92:	4c16      	ldr	r4, [pc, #88]	; (8002fec <Printer_Print_NV_Bitmap+0x5c>)
 8002f94:	78a3      	ldrb	r3, [r4, #2]
 8002f96:	b12b      	cbz	r3, 8002fa4 <Printer_Print_NV_Bitmap+0x14>
 8002f98:	2b01      	cmp	r3, #1
 8002f9a:	d021      	beq.n	8002fe0 <Printer_Print_NV_Bitmap+0x50>
 8002f9c:	2300      	movs	r3, #0
 8002f9e:	70a3      	strb	r3, [r4, #2]
 8002fa0:	2001      	movs	r0, #1
 8002fa2:	bd38      	pop	{r3, r4, r5, pc}
 8002fa4:	4b12      	ldr	r3, [pc, #72]	; (8002ff0 <Printer_Print_NV_Bitmap+0x60>)
 8002fa6:	4798      	blx	r3
 8002fa8:	2800      	cmp	r0, #0
 8002faa:	d1f9      	bne.n	8002fa0 <Printer_Print_NV_Bitmap+0x10>
 8002fac:	4b11      	ldr	r3, [pc, #68]	; (8002ff4 <Printer_Print_NV_Bitmap+0x64>)
 8002fae:	4798      	blx	r3
 8002fb0:	4602      	mov	r2, r0
 8002fb2:	2800      	cmp	r0, #0
 8002fb4:	d1f4      	bne.n	8002fa0 <Printer_Print_NV_Bitmap+0x10>
 8002fb6:	68e0      	ldr	r0, [r4, #12]
 8002fb8:	4d0f      	ldr	r5, [pc, #60]	; (8002ff8 <Printer_Print_NV_Bitmap+0x68>)
 8002fba:	2302      	movs	r3, #2
 8002fbc:	1d21      	adds	r1, r4, #4
 8002fbe:	47a8      	blx	r5
 8002fc0:	2802      	cmp	r0, #2
 8002fc2:	d011      	beq.n	8002fe8 <Printer_Print_NV_Bitmap+0x58>
 8002fc4:	7920      	ldrb	r0, [r4, #4]
 8002fc6:	2800      	cmp	r0, #0
 8002fc8:	d0ea      	beq.n	8002fa0 <Printer_Print_NV_Bitmap+0x10>
 8002fca:	7961      	ldrb	r1, [r4, #5]
 8002fcc:	4b0b      	ldr	r3, [pc, #44]	; (8002ffc <Printer_Print_NV_Bitmap+0x6c>)
 8002fce:	4798      	blx	r3
 8002fd0:	2800      	cmp	r0, #0
 8002fd2:	d0e5      	beq.n	8002fa0 <Printer_Print_NV_Bitmap+0x10>
 8002fd4:	4b0a      	ldr	r3, [pc, #40]	; (8003000 <Printer_Print_NV_Bitmap+0x70>)
 8002fd6:	68e0      	ldr	r0, [r4, #12]
 8002fd8:	2102      	movs	r1, #2
 8002fda:	4798      	blx	r3
 8002fdc:	2301      	movs	r3, #1
 8002fde:	70a3      	strb	r3, [r4, #2]
 8002fe0:	4b08      	ldr	r3, [pc, #32]	; (8003004 <Printer_Print_NV_Bitmap+0x74>)
 8002fe2:	4798      	blx	r3
 8002fe4:	2800      	cmp	r0, #0
 8002fe6:	d1d9      	bne.n	8002f9c <Printer_Print_NV_Bitmap+0xc>
 8002fe8:	2000      	movs	r0, #0
 8002fea:	bd38      	pop	{r3, r4, r5, pc}
 8002fec:	1de8      	adds	r0, r5, #7
 8002fee:	2000      	movs	r0, #0
 8002ff0:	50cd      	str	r5, [r1, r3]
 8002ff2:	0800      	lsrs	r0, r0, #32
 8002ff4:	4d45      	ldr	r5, [pc, #276]	; (800310c <Pinter_Turn_90_Clockwise_Rotation_Mode+0x44>)
 8002ff6:	0800      	lsrs	r0, r0, #32
 8002ff8:	39f5      	subs	r1, #245	; 0xf5
 8002ffa:	0800      	lsrs	r0, r0, #32
 8002ffc:	5121      	str	r1, [r4, r4]
 8002ffe:	0800      	lsrs	r0, r0, #32
 8003000:	3c29      	subs	r4, #41	; 0x29
 8003002:	0800      	lsrs	r0, r0, #32
 8003004:	5209      	strh	r1, [r1, r0]
 8003006:	0800      	lsrs	r0, r0, #32

08003008 <Printer_Set_Relative_Print_Position>:
 8003008:	b510      	push	{r4, lr}
 800300a:	4c09      	ldr	r4, [pc, #36]	; (8003030 <Printer_Set_Relative_Print_Position+0x28>)
 800300c:	4b09      	ldr	r3, [pc, #36]	; (8003034 <Printer_Set_Relative_Print_Position+0x2c>)
 800300e:	68e0      	ldr	r0, [r4, #12]
 8003010:	2202      	movs	r2, #2
 8003012:	1d21      	adds	r1, r4, #4
 8003014:	4798      	blx	r3
 8003016:	2802      	cmp	r0, #2
 8003018:	d008      	beq.n	800302c <Printer_Set_Relative_Print_Position+0x24>
 800301a:	7962      	ldrb	r2, [r4, #5]
 800301c:	7920      	ldrb	r0, [r4, #4]
 800301e:	4b06      	ldr	r3, [pc, #24]	; (8003038 <Printer_Set_Relative_Print_Position+0x30>)
 8003020:	eb00 2002 	add.w	r0, r0, r2, lsl #8
 8003024:	b280      	uxth	r0, r0
 8003026:	4798      	blx	r3
 8003028:	2001      	movs	r0, #1
 800302a:	bd10      	pop	{r4, pc}
 800302c:	2000      	movs	r0, #0
 800302e:	bd10      	pop	{r4, pc}
 8003030:	1de8      	adds	r0, r5, #7
 8003032:	2000      	movs	r0, #0
 8003034:	3979      	subs	r1, #121	; 0x79
 8003036:	0800      	lsrs	r0, r0, #32
 8003038:	4d69      	ldr	r5, [pc, #420]	; (80031e0 <Printer_Turn_Strike_Mode+0x18>)
 800303a:	0800      	lsrs	r0, r0, #32

0800303c <Printer_Turn_UpsideDown_Printing_Mode>:
 800303c:	b510      	push	{r4, lr}
 800303e:	4c07      	ldr	r4, [pc, #28]	; (800305c <Printer_Turn_UpsideDown_Printing_Mode+0x20>)
 8003040:	4b07      	ldr	r3, [pc, #28]	; (8003060 <Printer_Turn_UpsideDown_Printing_Mode+0x24>)
 8003042:	68e0      	ldr	r0, [r4, #12]
 8003044:	1d21      	adds	r1, r4, #4
 8003046:	4798      	blx	r3
 8003048:	2802      	cmp	r0, #2
 800304a:	d004      	beq.n	8003056 <Printer_Turn_UpsideDown_Printing_Mode+0x1a>
 800304c:	7920      	ldrb	r0, [r4, #4]
 800304e:	4b05      	ldr	r3, [pc, #20]	; (8003064 <Printer_Turn_UpsideDown_Printing_Mode+0x28>)
 8003050:	4798      	blx	r3
 8003052:	2001      	movs	r0, #1
 8003054:	bd10      	pop	{r4, pc}
 8003056:	2000      	movs	r0, #0
 8003058:	bd10      	pop	{r4, pc}
 800305a:	bf00      	nop
 800305c:	1de8      	adds	r0, r5, #7
 800305e:	2000      	movs	r0, #0
 8003060:	37ed      	adds	r7, #237	; 0xed
 8003062:	0800      	lsrs	r0, r0, #32
 8003064:	4715      	bx	r2
 8003066:	0800      	lsrs	r0, r0, #32

08003068 <Printer_Select_Justification>:
 8003068:	b538      	push	{r3, r4, r5, lr}
 800306a:	4b12      	ldr	r3, [pc, #72]	; (80030b4 <Printer_Select_Justification+0x4c>)
 800306c:	4798      	blx	r3
 800306e:	b110      	cbz	r0, 8003076 <Printer_Select_Justification+0xe>
 8003070:	2401      	movs	r4, #1
 8003072:	4620      	mov	r0, r4
 8003074:	bd38      	pop	{r3, r4, r5, pc}
 8003076:	4d10      	ldr	r5, [pc, #64]	; (80030b8 <Printer_Select_Justification+0x50>)
 8003078:	4b10      	ldr	r3, [pc, #64]	; (80030bc <Printer_Select_Justification+0x54>)
 800307a:	4602      	mov	r2, r0
 800307c:	4604      	mov	r4, r0
 800307e:	1d29      	adds	r1, r5, #4
 8003080:	68e8      	ldr	r0, [r5, #12]
 8003082:	4798      	blx	r3
 8003084:	2802      	cmp	r0, #2
 8003086:	d0f4      	beq.n	8003072 <Printer_Select_Justification+0xa>
 8003088:	792b      	ldrb	r3, [r5, #4]
 800308a:	b18b      	cbz	r3, 80030b0 <Printer_Select_Justification+0x48>
 800308c:	2b30      	cmp	r3, #48	; 0x30
 800308e:	d00f      	beq.n	80030b0 <Printer_Select_Justification+0x48>
 8003090:	2b01      	cmp	r3, #1
 8003092:	d007      	beq.n	80030a4 <Printer_Select_Justification+0x3c>
 8003094:	2b31      	cmp	r3, #49	; 0x31
 8003096:	d005      	beq.n	80030a4 <Printer_Select_Justification+0x3c>
 8003098:	2b02      	cmp	r3, #2
 800309a:	d001      	beq.n	80030a0 <Printer_Select_Justification+0x38>
 800309c:	2b32      	cmp	r3, #50	; 0x32
 800309e:	d1e7      	bne.n	8003070 <Printer_Select_Justification+0x8>
 80030a0:	2002      	movs	r0, #2
 80030a2:	e000      	b.n	80030a6 <Printer_Select_Justification+0x3e>
 80030a4:	2001      	movs	r0, #1
 80030a6:	4b06      	ldr	r3, [pc, #24]	; (80030c0 <Printer_Select_Justification+0x58>)
 80030a8:	4798      	blx	r3
 80030aa:	4b06      	ldr	r3, [pc, #24]	; (80030c4 <Printer_Select_Justification+0x5c>)
 80030ac:	4798      	blx	r3
 80030ae:	e7df      	b.n	8003070 <Printer_Select_Justification+0x8>
 80030b0:	2000      	movs	r0, #0
 80030b2:	e7f8      	b.n	80030a6 <Printer_Select_Justification+0x3e>
 80030b4:	4d45      	ldr	r5, [pc, #276]	; (80031cc <Printer_Turn_Strike_Mode+0x4>)
 80030b6:	0800      	lsrs	r0, r0, #32
 80030b8:	1de8      	adds	r0, r5, #7
 80030ba:	2000      	movs	r0, #0
 80030bc:	3895      	subs	r0, #149	; 0x95
 80030be:	0800      	lsrs	r0, r0, #32
 80030c0:	4735      	bx	r6
 80030c2:	0800      	lsrs	r0, r0, #32
 80030c4:	2cb1      	cmp	r4, #177	; 0xb1
 80030c6:	0800      	lsrs	r0, r0, #32

080030c8 <Pinter_Turn_90_Clockwise_Rotation_Mode>:
 80030c8:	b510      	push	{r4, lr}
 80030ca:	4c0e      	ldr	r4, [pc, #56]	; (8003104 <Pinter_Turn_90_Clockwise_Rotation_Mode+0x3c>)
 80030cc:	4b0e      	ldr	r3, [pc, #56]	; (8003108 <Pinter_Turn_90_Clockwise_Rotation_Mode+0x40>)
 80030ce:	68e0      	ldr	r0, [r4, #12]
 80030d0:	2200      	movs	r2, #0
 80030d2:	1d21      	adds	r1, r4, #4
 80030d4:	4798      	blx	r3
 80030d6:	2802      	cmp	r0, #2
 80030d8:	d011      	beq.n	80030fe <Pinter_Turn_90_Clockwise_Rotation_Mode+0x36>
 80030da:	7923      	ldrb	r3, [r4, #4]
 80030dc:	b143      	cbz	r3, 80030f0 <Pinter_Turn_90_Clockwise_Rotation_Mode+0x28>
 80030de:	2b30      	cmp	r3, #48	; 0x30
 80030e0:	d006      	beq.n	80030f0 <Pinter_Turn_90_Clockwise_Rotation_Mode+0x28>
 80030e2:	2b01      	cmp	r3, #1
 80030e4:	f04f 0001 	mov.w	r0, #1
 80030e8:	d003      	beq.n	80030f2 <Pinter_Turn_90_Clockwise_Rotation_Mode+0x2a>
 80030ea:	2b31      	cmp	r3, #49	; 0x31
 80030ec:	d001      	beq.n	80030f2 <Pinter_Turn_90_Clockwise_Rotation_Mode+0x2a>
 80030ee:	bd10      	pop	{r4, pc}
 80030f0:	2000      	movs	r0, #0
 80030f2:	4b06      	ldr	r3, [pc, #24]	; (800310c <Pinter_Turn_90_Clockwise_Rotation_Mode+0x44>)
 80030f4:	4798      	blx	r3
 80030f6:	4b06      	ldr	r3, [pc, #24]	; (8003110 <Pinter_Turn_90_Clockwise_Rotation_Mode+0x48>)
 80030f8:	4798      	blx	r3
 80030fa:	2001      	movs	r0, #1
 80030fc:	bd10      	pop	{r4, pc}
 80030fe:	2000      	movs	r0, #0
 8003100:	bd10      	pop	{r4, pc}
 8003102:	bf00      	nop
 8003104:	1de8      	adds	r0, r5, #7
 8003106:	2000      	movs	r0, #0
 8003108:	3895      	subs	r0, #149	; 0x95
 800310a:	0800      	lsrs	r0, r0, #32
 800310c:	4745      	bx	r8
 800310e:	0800      	lsrs	r0, r0, #32
 8003110:	2cb1      	cmp	r4, #177	; 0xb1
 8003112:	0800      	lsrs	r0, r0, #32

08003114 <Printer_Select_Character_Font>:
 8003114:	b510      	push	{r4, lr}
 8003116:	4c11      	ldr	r4, [pc, #68]	; (800315c <Printer_Select_Character_Font+0x48>)
 8003118:	4b11      	ldr	r3, [pc, #68]	; (8003160 <Printer_Select_Character_Font+0x4c>)
 800311a:	68e0      	ldr	r0, [r4, #12]
 800311c:	2200      	movs	r2, #0
 800311e:	1d21      	adds	r1, r4, #4
 8003120:	4798      	blx	r3
 8003122:	2802      	cmp	r0, #2
 8003124:	d014      	beq.n	8003150 <Printer_Select_Character_Font+0x3c>
 8003126:	7923      	ldrb	r3, [r4, #4]
 8003128:	b15b      	cbz	r3, 8003142 <Printer_Select_Character_Font+0x2e>
 800312a:	2b30      	cmp	r3, #48	; 0x30
 800312c:	d009      	beq.n	8003142 <Printer_Select_Character_Font+0x2e>
 800312e:	2b01      	cmp	r3, #1
 8003130:	d010      	beq.n	8003154 <Printer_Select_Character_Font+0x40>
 8003132:	2b31      	cmp	r3, #49	; 0x31
 8003134:	d00e      	beq.n	8003154 <Printer_Select_Character_Font+0x40>
 8003136:	2b02      	cmp	r3, #2
 8003138:	d00e      	beq.n	8003158 <Printer_Select_Character_Font+0x44>
 800313a:	2b32      	cmp	r3, #50	; 0x32
 800313c:	d00c      	beq.n	8003158 <Printer_Select_Character_Font+0x44>
 800313e:	2001      	movs	r0, #1
 8003140:	bd10      	pop	{r4, pc}
 8003142:	2000      	movs	r0, #0
 8003144:	4b07      	ldr	r3, [pc, #28]	; (8003164 <Printer_Select_Character_Font+0x50>)
 8003146:	4798      	blx	r3
 8003148:	4b07      	ldr	r3, [pc, #28]	; (8003168 <Printer_Select_Character_Font+0x54>)
 800314a:	4798      	blx	r3
 800314c:	2001      	movs	r0, #1
 800314e:	bd10      	pop	{r4, pc}
 8003150:	2000      	movs	r0, #0
 8003152:	bd10      	pop	{r4, pc}
 8003154:	2001      	movs	r0, #1
 8003156:	e7f5      	b.n	8003144 <Printer_Select_Character_Font+0x30>
 8003158:	2002      	movs	r0, #2
 800315a:	e7f3      	b.n	8003144 <Printer_Select_Character_Font+0x30>
 800315c:	1de8      	adds	r0, r5, #7
 800315e:	2000      	movs	r0, #0
 8003160:	3895      	subs	r0, #149	; 0x95
 8003162:	0800      	lsrs	r0, r0, #32
 8003164:	476d      	bx	sp
 8003166:	0800      	lsrs	r0, r0, #32
 8003168:	2cb1      	cmp	r4, #177	; 0xb1
 800316a:	0800      	lsrs	r0, r0, #32

0800316c <Printer_Print_And_Line_Feed>:
 800316c:	b570      	push	{r4, r5, r6, lr}
 800316e:	4b0f      	ldr	r3, [pc, #60]	; (80031ac <Printer_Print_And_Line_Feed+0x40>)
 8003170:	4798      	blx	r3
 8003172:	b1a0      	cbz	r0, 800319e <Printer_Print_And_Line_Feed+0x32>
 8003174:	4d0e      	ldr	r5, [pc, #56]	; (80031b0 <Printer_Print_And_Line_Feed+0x44>)
 8003176:	78ac      	ldrb	r4, [r5, #2]
 8003178:	b93c      	cbnz	r4, 800318a <Printer_Print_And_Line_Feed+0x1e>
 800317a:	4b0e      	ldr	r3, [pc, #56]	; (80031b4 <Printer_Print_And_Line_Feed+0x48>)
 800317c:	4798      	blx	r3
 800317e:	4b0e      	ldr	r3, [pc, #56]	; (80031b8 <Printer_Print_And_Line_Feed+0x4c>)
 8003180:	4798      	blx	r3
 8003182:	2301      	movs	r3, #1
 8003184:	70ab      	strb	r3, [r5, #2]
 8003186:	4620      	mov	r0, r4
 8003188:	bd70      	pop	{r4, r5, r6, pc}
 800318a:	4b0c      	ldr	r3, [pc, #48]	; (80031bc <Printer_Print_And_Line_Feed+0x50>)
 800318c:	4798      	blx	r3
 800318e:	4604      	mov	r4, r0
 8003190:	2800      	cmp	r0, #0
 8003192:	d0f8      	beq.n	8003186 <Printer_Print_And_Line_Feed+0x1a>
 8003194:	2300      	movs	r3, #0
 8003196:	2401      	movs	r4, #1
 8003198:	70ab      	strb	r3, [r5, #2]
 800319a:	4620      	mov	r0, r4
 800319c:	bd70      	pop	{r4, r5, r6, pc}
 800319e:	4b08      	ldr	r3, [pc, #32]	; (80031c0 <Printer_Print_And_Line_Feed+0x54>)
 80031a0:	4798      	blx	r3
 80031a2:	e8bd 4070 	ldmia.w	sp!, {r4, r5, r6, lr}
 80031a6:	4b07      	ldr	r3, [pc, #28]	; (80031c4 <Printer_Print_And_Line_Feed+0x58>)
 80031a8:	2101      	movs	r1, #1
 80031aa:	4718      	bx	r3
 80031ac:	4d45      	ldr	r5, [pc, #276]	; (80032c4 <Printer_Set_Underline_Dots+0x18>)
 80031ae:	0800      	lsrs	r0, r0, #32
 80031b0:	1de8      	adds	r0, r5, #7
 80031b2:	2000      	movs	r0, #0
 80031b4:	4d41      	ldr	r5, [pc, #260]	; (80032bc <Printer_Set_Underline_Dots+0x10>)
 80031b6:	0800      	lsrs	r0, r0, #32
 80031b8:	4d9d      	ldr	r5, [pc, #628]	; (8003430 <Printer_Define_UserDefined_Characters+0x2c>)
 80031ba:	0800      	lsrs	r0, r0, #32
 80031bc:	4d79      	ldr	r5, [pc, #484]	; (80033a4 <Printer_Select_BitImage_Mode+0x34>)
 80031be:	0800      	lsrs	r0, r0, #32
 80031c0:	479d      			; <UNDEFINED> instruction: 0x479d
 80031c2:	0800      	lsrs	r0, r0, #32
 80031c4:	40d1      	lsrs	r1, r2
 80031c6:	0800      	lsrs	r0, r0, #32

080031c8 <Printer_Turn_Strike_Mode>:
 80031c8:	b510      	push	{r4, lr}
 80031ca:	4c08      	ldr	r4, [pc, #32]	; (80031ec <Printer_Turn_Strike_Mode+0x24>)
 80031cc:	4b08      	ldr	r3, [pc, #32]	; (80031f0 <Printer_Turn_Strike_Mode+0x28>)
 80031ce:	68e0      	ldr	r0, [r4, #12]
 80031d0:	1d21      	adds	r1, r4, #4
 80031d2:	4798      	blx	r3
 80031d4:	2802      	cmp	r0, #2
 80031d6:	d006      	beq.n	80031e6 <Printer_Turn_Strike_Mode+0x1e>
 80031d8:	7920      	ldrb	r0, [r4, #4]
 80031da:	4b06      	ldr	r3, [pc, #24]	; (80031f4 <Printer_Turn_Strike_Mode+0x2c>)
 80031dc:	f000 0001 	and.w	r0, r0, #1
 80031e0:	4798      	blx	r3
 80031e2:	2001      	movs	r0, #1
 80031e4:	bd10      	pop	{r4, pc}
 80031e6:	2000      	movs	r0, #0
 80031e8:	bd10      	pop	{r4, pc}
 80031ea:	bf00      	nop
 80031ec:	1de8      	adds	r0, r5, #7
 80031ee:	2000      	movs	r0, #0
 80031f0:	37ed      	adds	r7, #237	; 0xed
 80031f2:	0800      	lsrs	r0, r0, #32
 80031f4:	4705      	bx	r0
 80031f6:	0800      	lsrs	r0, r0, #32

080031f8 <Printer_Select_Bold_Mode>:
 80031f8:	b510      	push	{r4, lr}
 80031fa:	4c07      	ldr	r4, [pc, #28]	; (8003218 <Printer_Select_Bold_Mode+0x20>)
 80031fc:	4b07      	ldr	r3, [pc, #28]	; (800321c <Printer_Select_Bold_Mode+0x24>)
 80031fe:	68e0      	ldr	r0, [r4, #12]
 8003200:	1d21      	adds	r1, r4, #4
 8003202:	4798      	blx	r3
 8003204:	2802      	cmp	r0, #2
 8003206:	d004      	beq.n	8003212 <Printer_Select_Bold_Mode+0x1a>
 8003208:	7920      	ldrb	r0, [r4, #4]
 800320a:	4b05      	ldr	r3, [pc, #20]	; (8003220 <Printer_Select_Bold_Mode+0x28>)
 800320c:	4798      	blx	r3
 800320e:	2001      	movs	r0, #1
 8003210:	bd10      	pop	{r4, pc}
 8003212:	2000      	movs	r0, #0
 8003214:	bd10      	pop	{r4, pc}
 8003216:	bf00      	nop
 8003218:	1de8      	adds	r0, r5, #7
 800321a:	2000      	movs	r0, #0
 800321c:	37ed      	adds	r7, #237	; 0xed
 800321e:	0800      	lsrs	r0, r0, #32
 8003220:	478d      			; <UNDEFINED> instruction: 0x478d
 8003222:	0800      	lsrs	r0, r0, #32

08003224 <Printer_setHorizontal_Tab_Positions>:
 8003224:	b510      	push	{r4, lr}
 8003226:	4c12      	ldr	r4, [pc, #72]	; (8003270 <Printer_setHorizontal_Tab_Positions+0x4c>)
 8003228:	4b12      	ldr	r3, [pc, #72]	; (8003274 <Printer_setHorizontal_Tab_Positions+0x50>)
 800322a:	68e0      	ldr	r0, [r4, #12]
 800322c:	1d21      	adds	r1, r4, #4
 800322e:	4798      	blx	r3
 8003230:	2802      	cmp	r0, #2
 8003232:	d019      	beq.n	8003268 <Printer_setHorizontal_Tab_Positions+0x44>
 8003234:	7923      	ldrb	r3, [r4, #4]
 8003236:	b943      	cbnz	r3, 800324a <Printer_setHorizontal_Tab_Positions+0x26>
 8003238:	78e0      	ldrb	r0, [r4, #3]
 800323a:	2801      	cmp	r0, #1
 800323c:	d016      	beq.n	800326c <Printer_setHorizontal_Tab_Positions+0x48>
 800323e:	2200      	movs	r2, #0
 8003240:	4b0d      	ldr	r3, [pc, #52]	; (8003278 <Printer_setHorizontal_Tab_Positions+0x54>)
 8003242:	70a2      	strb	r2, [r4, #2]
 8003244:	4798      	blx	r3
 8003246:	2001      	movs	r0, #1
 8003248:	bd10      	pop	{r4, pc}
 800324a:	f04f 0c01 	mov.w	ip, #1
 800324e:	78a1      	ldrb	r1, [r4, #2]
 8003250:	4a0a      	ldr	r2, [pc, #40]	; (800327c <Printer_setHorizontal_Tab_Positions+0x58>)
 8003252:	f884 c003 	strb.w	ip, [r4, #3]
 8003256:	4618      	mov	r0, r3
 8003258:	4790      	blx	r2
 800325a:	2800      	cmp	r0, #0
 800325c:	d0ef      	beq.n	800323e <Printer_setHorizontal_Tab_Positions+0x1a>
 800325e:	78a3      	ldrb	r3, [r4, #2]
 8003260:	3301      	adds	r3, #1
 8003262:	2000      	movs	r0, #0
 8003264:	70a3      	strb	r3, [r4, #2]
 8003266:	bd10      	pop	{r4, pc}
 8003268:	2000      	movs	r0, #0
 800326a:	bd10      	pop	{r4, pc}
 800326c:	8063      	strh	r3, [r4, #2]
 800326e:	bd10      	pop	{r4, pc}
 8003270:	1de8      	adds	r0, r5, #7
 8003272:	2000      	movs	r0, #0
 8003274:	37ed      	adds	r7, #237	; 0xed
 8003276:	0800      	lsrs	r0, r0, #32
 8003278:	4d29      	ldr	r5, [pc, #164]	; (8003320 <Printer_Select_Print_Modes+0x1c>)
 800327a:	0800      	lsrs	r0, r0, #32
 800327c:	4ca1      	ldr	r4, [pc, #644]	; (8003504 <Printer_Set_Absolute_Print_Position+0x30>)
 800327e:	0800      	lsrs	r0, r0, #32

08003280 <Printer_Set_LineSpacing>:
 8003280:	b510      	push	{r4, lr}
 8003282:	4c07      	ldr	r4, [pc, #28]	; (80032a0 <Printer_Set_LineSpacing+0x20>)
 8003284:	4b07      	ldr	r3, [pc, #28]	; (80032a4 <Printer_Set_LineSpacing+0x24>)
 8003286:	68e0      	ldr	r0, [r4, #12]
 8003288:	1d21      	adds	r1, r4, #4
 800328a:	4798      	blx	r3
 800328c:	2802      	cmp	r0, #2
 800328e:	d004      	beq.n	800329a <Printer_Set_LineSpacing+0x1a>
 8003290:	7920      	ldrb	r0, [r4, #4]
 8003292:	4b05      	ldr	r3, [pc, #20]	; (80032a8 <Printer_Set_LineSpacing+0x28>)
 8003294:	4798      	blx	r3
 8003296:	2001      	movs	r0, #1
 8003298:	bd10      	pop	{r4, pc}
 800329a:	2000      	movs	r0, #0
 800329c:	bd10      	pop	{r4, pc}
 800329e:	bf00      	nop
 80032a0:	1de8      	adds	r0, r5, #7
 80032a2:	2000      	movs	r0, #0
 80032a4:	37ed      	adds	r7, #237	; 0xed
 80032a6:	0800      	lsrs	r0, r0, #32
 80032a8:	4761      	bx	ip
 80032aa:	0800      	lsrs	r0, r0, #32

080032ac <Printer_Set_Underline_Dots>:
 80032ac:	b510      	push	{r4, lr}
 80032ae:	4c11      	ldr	r4, [pc, #68]	; (80032f4 <Printer_Set_Underline_Dots+0x48>)
 80032b0:	4b11      	ldr	r3, [pc, #68]	; (80032f8 <Printer_Set_Underline_Dots+0x4c>)
 80032b2:	68e0      	ldr	r0, [r4, #12]
 80032b4:	2200      	movs	r2, #0
 80032b6:	1d21      	adds	r1, r4, #4
 80032b8:	4798      	blx	r3
 80032ba:	2802      	cmp	r0, #2
 80032bc:	d014      	beq.n	80032e8 <Printer_Set_Underline_Dots+0x3c>
 80032be:	7923      	ldrb	r3, [r4, #4]
 80032c0:	b15b      	cbz	r3, 80032da <Printer_Set_Underline_Dots+0x2e>
 80032c2:	2b30      	cmp	r3, #48	; 0x30
 80032c4:	d009      	beq.n	80032da <Printer_Set_Underline_Dots+0x2e>
 80032c6:	2b01      	cmp	r3, #1
 80032c8:	d010      	beq.n	80032ec <Printer_Set_Underline_Dots+0x40>
 80032ca:	2b31      	cmp	r3, #49	; 0x31
 80032cc:	d00e      	beq.n	80032ec <Printer_Set_Underline_Dots+0x40>
 80032ce:	2b02      	cmp	r3, #2
 80032d0:	d00e      	beq.n	80032f0 <Printer_Set_Underline_Dots+0x44>
 80032d2:	2b32      	cmp	r3, #50	; 0x32
 80032d4:	d00c      	beq.n	80032f0 <Printer_Set_Underline_Dots+0x44>
 80032d6:	2001      	movs	r0, #1
 80032d8:	bd10      	pop	{r4, pc}
 80032da:	2000      	movs	r0, #0
 80032dc:	4b07      	ldr	r3, [pc, #28]	; (80032fc <Printer_Set_Underline_Dots+0x50>)
 80032de:	4798      	blx	r3
 80032e0:	4b07      	ldr	r3, [pc, #28]	; (8003300 <Printer_Set_Underline_Dots+0x54>)
 80032e2:	4798      	blx	r3
 80032e4:	2001      	movs	r0, #1
 80032e6:	bd10      	pop	{r4, pc}
 80032e8:	2000      	movs	r0, #0
 80032ea:	bd10      	pop	{r4, pc}
 80032ec:	2001      	movs	r0, #1
 80032ee:	e7f5      	b.n	80032dc <Printer_Set_Underline_Dots+0x30>
 80032f0:	2002      	movs	r0, #2
 80032f2:	e7f3      	b.n	80032dc <Printer_Set_Underline_Dots+0x30>
 80032f4:	1de8      	adds	r0, r5, #7
 80032f6:	2000      	movs	r0, #0
 80032f8:	3895      	subs	r0, #149	; 0x95
 80032fa:	0800      	lsrs	r0, r0, #32
 80032fc:	477d      	bx	pc
 80032fe:	0800      	lsrs	r0, r0, #32
 8003300:	2cb1      	cmp	r4, #177	; 0xb1
 8003302:	0800      	lsrs	r0, r0, #32

08003304 <Printer_Select_Print_Modes>:
 8003304:	b510      	push	{r4, lr}
 8003306:	4c13      	ldr	r4, [pc, #76]	; (8003354 <Printer_Select_Print_Modes+0x50>)
 8003308:	4b13      	ldr	r3, [pc, #76]	; (8003358 <Printer_Select_Print_Modes+0x54>)
 800330a:	68e0      	ldr	r0, [r4, #12]
 800330c:	1d21      	adds	r1, r4, #4
 800330e:	4798      	blx	r3
 8003310:	2802      	cmp	r0, #2
 8003312:	d01c      	beq.n	800334e <Printer_Select_Print_Modes+0x4a>
 8003314:	7923      	ldrb	r3, [r4, #4]
 8003316:	2400      	movs	r4, #0
 8003318:	f363 0407 	bfi	r4, r3, #0, #8
 800331c:	f004 0001 	and.w	r0, r4, #1
 8003320:	4b0e      	ldr	r3, [pc, #56]	; (800335c <Printer_Select_Print_Modes+0x58>)
 8003322:	4798      	blx	r3
 8003324:	f3c4 00c0 	ubfx	r0, r4, #3, #1
 8003328:	4b0d      	ldr	r3, [pc, #52]	; (8003360 <Printer_Select_Print_Modes+0x5c>)
 800332a:	4798      	blx	r3
 800332c:	f3c4 1000 	ubfx	r0, r4, #4, #1
 8003330:	3001      	adds	r0, #1
 8003332:	4b0c      	ldr	r3, [pc, #48]	; (8003364 <Printer_Select_Print_Modes+0x60>)
 8003334:	b2c0      	uxtb	r0, r0
 8003336:	4798      	blx	r3
 8003338:	f3c4 1040 	ubfx	r0, r4, #5, #1
 800333c:	3001      	adds	r0, #1
 800333e:	4b0a      	ldr	r3, [pc, #40]	; (8003368 <Printer_Select_Print_Modes+0x64>)
 8003340:	b2c0      	uxtb	r0, r0
 8003342:	4798      	blx	r3
 8003344:	09e0      	lsrs	r0, r4, #7
 8003346:	4b09      	ldr	r3, [pc, #36]	; (800336c <Printer_Select_Print_Modes+0x68>)
 8003348:	4798      	blx	r3
 800334a:	2001      	movs	r0, #1
 800334c:	bd10      	pop	{r4, pc}
 800334e:	2000      	movs	r0, #0
 8003350:	bd10      	pop	{r4, pc}
 8003352:	bf00      	nop
 8003354:	1de8      	adds	r0, r5, #7
 8003356:	2000      	movs	r0, #0
 8003358:	37ed      	adds	r7, #237	; 0xed
 800335a:	0800      	lsrs	r0, r0, #32
 800335c:	476d      	bx	sp
 800335e:	0800      	lsrs	r0, r0, #32
 8003360:	478d      			; <UNDEFINED> instruction: 0x478d
 8003362:	0800      	lsrs	r0, r0, #32
 8003364:	46f5      	mov	sp, lr
 8003366:	0800      	lsrs	r0, r0, #32
 8003368:	46e5      	mov	sp, ip
 800336a:	0800      	lsrs	r0, r0, #32
 800336c:	477d      	bx	pc
 800336e:	0800      	lsrs	r0, r0, #32

08003370 <Printer_Select_BitImage_Mode>:
 8003370:	b5f8      	push	{r3, r4, r5, r6, r7, lr}
 8003372:	4d1f      	ldr	r5, [pc, #124]	; (80033f0 <Printer_Select_BitImage_Mode+0x80>)
 8003374:	78ac      	ldrb	r4, [r5, #2]
 8003376:	b12c      	cbz	r4, 8003384 <Printer_Select_BitImage_Mode+0x14>
 8003378:	2c01      	cmp	r4, #1
 800337a:	d011      	beq.n	80033a0 <Printer_Select_BitImage_Mode+0x30>
 800337c:	2400      	movs	r4, #0
 800337e:	70ac      	strb	r4, [r5, #2]
 8003380:	4620      	mov	r0, r4
 8003382:	bdf8      	pop	{r3, r4, r5, r6, r7, pc}
 8003384:	68e8      	ldr	r0, [r5, #12]
 8003386:	4e1b      	ldr	r6, [pc, #108]	; (80033f4 <Printer_Select_BitImage_Mode+0x84>)
 8003388:	2303      	movs	r3, #3
 800338a:	4622      	mov	r2, r4
 800338c:	1d29      	adds	r1, r5, #4
 800338e:	47b0      	blx	r6
 8003390:	2802      	cmp	r0, #2
 8003392:	d018      	beq.n	80033c6 <Printer_Select_BitImage_Mode+0x56>
 8003394:	79ab      	ldrb	r3, [r5, #6]
 8003396:	2b03      	cmp	r3, #3
 8003398:	d921      	bls.n	80033de <Printer_Select_BitImage_Mode+0x6e>
 800339a:	2401      	movs	r4, #1
 800339c:	4620      	mov	r0, r4
 800339e:	bdf8      	pop	{r3, r4, r5, r6, r7, pc}
 80033a0:	79a9      	ldrb	r1, [r5, #6]
 80033a2:	796e      	ldrb	r6, [r5, #5]
 80033a4:	792b      	ldrb	r3, [r5, #4]
 80033a6:	68e8      	ldr	r0, [r5, #12]
 80033a8:	eb06 2601 	add.w	r6, r6, r1, lsl #8
 80033ac:	3b20      	subs	r3, #32
 80033ae:	2b01      	cmp	r3, #1
 80033b0:	b2b6      	uxth	r6, r6
 80033b2:	bf98      	it	ls
 80033b4:	eb06 0746 	addls.w	r7, r6, r6, lsl #1
 80033b8:	4b0f      	ldr	r3, [pc, #60]	; (80033f8 <Printer_Select_BitImage_Mode+0x88>)
 80033ba:	bf94      	ite	ls
 80033bc:	b2bf      	uxthls	r7, r7
 80033be:	4637      	movhi	r7, r6
 80033c0:	4798      	blx	r3
 80033c2:	42b8      	cmp	r0, r7
 80033c4:	d202      	bcs.n	80033cc <Printer_Select_BitImage_Mode+0x5c>
 80033c6:	2400      	movs	r4, #0
 80033c8:	4620      	mov	r0, r4
 80033ca:	bdf8      	pop	{r3, r4, r5, r6, r7, pc}
 80033cc:	2300      	movs	r3, #0
 80033ce:	7928      	ldrb	r0, [r5, #4]
 80033d0:	70ab      	strb	r3, [r5, #2]
 80033d2:	68ea      	ldr	r2, [r5, #12]
 80033d4:	4b09      	ldr	r3, [pc, #36]	; (80033fc <Printer_Select_BitImage_Mode+0x8c>)
 80033d6:	4631      	mov	r1, r6
 80033d8:	4798      	blx	r3
 80033da:	4620      	mov	r0, r4
 80033dc:	bdf8      	pop	{r3, r4, r5, r6, r7, pc}
 80033de:	68e8      	ldr	r0, [r5, #12]
 80033e0:	4b07      	ldr	r3, [pc, #28]	; (8003400 <Printer_Select_BitImage_Mode+0x90>)
 80033e2:	2103      	movs	r1, #3
 80033e4:	4798      	blx	r3
 80033e6:	2301      	movs	r3, #1
 80033e8:	70ab      	strb	r3, [r5, #2]
 80033ea:	4620      	mov	r0, r4
 80033ec:	bdf8      	pop	{r3, r4, r5, r6, r7, pc}
 80033ee:	bf00      	nop
 80033f0:	1de8      	adds	r0, r5, #7
 80033f2:	2000      	movs	r0, #0
 80033f4:	39f5      	subs	r1, #245	; 0xf5
 80033f6:	0800      	lsrs	r0, r0, #32
 80033f8:	3c1d      	subs	r4, #29
 80033fa:	0800      	lsrs	r0, r0, #32
 80033fc:	4a1d      	ldr	r2, [pc, #116]	; (8003474 <Printer_Define_UserDefined_Characters+0x70>)
 80033fe:	0800      	lsrs	r0, r0, #32
 8003400:	3c29      	subs	r4, #41	; 0x29
 8003402:	0800      	lsrs	r0, r0, #32

08003404 <Printer_Define_UserDefined_Characters>:
 8003404:	b570      	push	{r4, r5, r6, lr}
 8003406:	4d21      	ldr	r5, [pc, #132]	; (800348c <Printer_Define_UserDefined_Characters+0x88>)
 8003408:	78ac      	ldrb	r4, [r5, #2]
 800340a:	b08a      	sub	sp, #40	; 0x28
 800340c:	b134      	cbz	r4, 800341c <Printer_Define_UserDefined_Characters+0x18>
 800340e:	2c01      	cmp	r4, #1
 8003410:	d01f      	beq.n	8003452 <Printer_Define_UserDefined_Characters+0x4e>
 8003412:	2400      	movs	r4, #0
 8003414:	70ac      	strb	r4, [r5, #2]
 8003416:	4620      	mov	r0, r4
 8003418:	b00a      	add	sp, #40	; 0x28
 800341a:	bd70      	pop	{r4, r5, r6, pc}
 800341c:	68e8      	ldr	r0, [r5, #12]
 800341e:	4e1c      	ldr	r6, [pc, #112]	; (8003490 <Printer_Define_UserDefined_Characters+0x8c>)
 8003420:	2303      	movs	r3, #3
 8003422:	4622      	mov	r2, r4
 8003424:	1d29      	adds	r1, r5, #4
 8003426:	47b0      	blx	r6
 8003428:	2802      	cmp	r0, #2
 800342a:	d02b      	beq.n	8003484 <Printer_Define_UserDefined_Characters+0x80>
 800342c:	792b      	ldrb	r3, [r5, #4]
 800342e:	3b02      	subs	r3, #2
 8003430:	2b01      	cmp	r3, #1
 8003432:	d823      	bhi.n	800347c <Printer_Define_UserDefined_Characters+0x78>
 8003434:	796b      	ldrb	r3, [r5, #5]
 8003436:	79aa      	ldrb	r2, [r5, #6]
 8003438:	2b1f      	cmp	r3, #31
 800343a:	d801      	bhi.n	8003440 <Printer_Define_UserDefined_Characters+0x3c>
 800343c:	4293      	cmp	r3, r2
 800343e:	d81d      	bhi.n	800347c <Printer_Define_UserDefined_Characters+0x78>
 8003440:	0613      	lsls	r3, r2, #24
 8003442:	d41b      	bmi.n	800347c <Printer_Define_UserDefined_Characters+0x78>
 8003444:	4b13      	ldr	r3, [pc, #76]	; (8003494 <Printer_Define_UserDefined_Characters+0x90>)
